(lp0
I22
aI93
aI116
aI153
aI188
aI304
aI378
aI395
aI414
aI419
aI460
aI490
aI500
aI500
aI500
aI500
aI500
aI500
aI500
aI500
aI500
aI500
aI500
aI500
aI500
a.(lp0
I6
aI30
aI40
aI44
aI41
aI62
aI61
aI57
aI55
aI49
aI49
aI47
aI43
aI41
aI40
aI39
aI38
aI37
aI36
aI35
aI34
aI33
aI33
aI31
aI30
a.(lp0
I104
aI171
aI223
aI290
aI356
aI436
aI468
aI485
aI500
aI500
aI500
aI500
aI500
aI500
aI500
aI500
aI500
aI500
aI500
aI500
aI500
aI500
aI500
aI500
aI500
a.(lp0
I9
aI13
aI15
aI15
aI15
aI14
aI13
aI12
aI11
aI10
aI9
aI9
aI8
aI8
aI8
aI7
aI7
aI7
aI7
aI6
aI6
aI6
aI6
aI6
aI6
a.(lp0
I102
aI219
aI338
aI356
aI418
aI435
aI435
aI452
aI500
aI500
aI500
aI500
aI500
aI500
aI500
aI500
aI500
aI500
aI500
aI500
aI500
aI500
aI500
aI500
aI500
a.(lp0
I7
aI10
aI12
aI12
aI11
aI10
aI10
aI10
aI9
aI8
aI8
aI8
aI7
aI7
aI7
aI6
aI6
aI6
aI6
aI6
aI6
aI6
aI6
aI6
aI6
a.(lp0
I87
aI138
aI240
aI356
aI389
aI454
aI500
aI500
aI500
aI500
aI500
aI500
aI500
aI500
aI500
aI500
aI500
aI500
aI500
aI500
aI500
aI500
aI500
aI500
aI500
a.(lp0
I8
aI10
aI13
aI16
aI15
aI15
aI14
aI13
aI12
aI12
aI11
aI10
aI10
aI9
aI9
aI9
aI8
aI8
aI8
aI8
aI8
aI8
aI8
aI8
aI7
a.(lp0
I1
aI2
aI4
aI7
aI33
aI38
aI500
aI500
aI500
aI500
aI500
aI500
aI500
aI500
aI500
aI500
aI500
aI500
aI500
aI500
aI500
aI500
aI500
aI500
aI500
a.(lp0
I2
aI4
aI6
aI6
aI13
aI16
aI45
aI43
aI38
aI42
aI39
aI39
aI39
aI38
aI37
aI37
aI36
aI35
aI35
aI34
aI37
aI29
aI34
aI33
aI33
a.