(lp0
I63
aI103
aI126
aI182
aI218
aI252
aI277
aI308
aI321
aI322
aI322
aI342
aI350
aI350
aI350
aI350
aI350
aI350
aI350
aI350
aI350
aI350
aI350
aI350
aI350
a.(lp0
I11
aI17
aI19
aI23
aI25
aI27
aI29
aI30
aI30
aI29
aI29
aI29
aI28
aI27
aI25
aI23
aI22
aI22
aI21
aI20
aI20
aI19
aI19
aI18
aI19
a.(lp0
I59
aI96
aI133
aI192
aI237
aI249
aI272
aI317
aI328
aI328
aI350
aI350
aI350
aI350
aI350
aI350
aI350
aI350
aI350
aI350
aI350
aI350
aI350
aI350
aI350
a.(lp0
I5
aI7
aI8
aI9
aI10
aI10
aI10
aI10
aI9
aI9
aI8
aI8
aI7
aI7
aI7
aI7
aI7
aI6
aI6
aI6
aI6
aI6
aI6
aI6
aI6
a.(lp0
I72
aI132
aI157
aI215
aI261
aI273
aI317
aI339
aI350
aI350
aI350
aI350
aI350
aI350
aI350
aI350
aI350
aI350
aI350
aI350
aI350
aI350
aI350
aI350
aI350
a.(lp0
I4
aI7
aI7
aI8
aI8
aI7
aI8
aI7
aI7
aI6
aI6
aI6
aI5
aI5
aI5
aI5
aI5
aI5
aI5
aI5
aI5
aI5
aI5
aI5
aI5
a.(lp0
I16
aI87
aI157
aI203
aI227
aI261
aI284
aI285
aI317
aI339
aI350
aI350
aI350
aI350
aI350
aI350
aI350
aI350
aI350
aI350
aI350
aI350
aI350
aI350
aI350
a.(lp0
I4
aI8
aI9
aI10
aI10
aI10
aI10
aI9
aI10
aI9
aI8
aI8
aI7
aI7
aI7
aI7
aI7
aI6
aI6
aI6
aI6
aI6
aI6
aI6
aI6
a.(lp0
I1
aI15
aI350
aI350
aI350
aI350
aI350
aI350
aI350
aI350
aI350
aI350
aI350
aI350
aI350
aI350
aI350
aI350
aI350
aI350
aI350
aI350
aI350
aI350
aI350
a.(lp0
I2
aI13
aI35
aI34
aI28
aI24
aI24
aI23
aI23
aI23
aI23
aI21
aI21
aI21
aI21
aI21
aI21
aI21
aI21
aI21
aI21
aI21
aI21
aI21
aI21
a.