(lp0
I37
aI124
aI226
aI227
aI262
aI310
aI358
aI374
aI391
aI406
aI424
aI424
aI441
aI457
aI457
aI485
aI486
aI500
aI500
aI500
aI500
aI500
aI500
aI500
aI500
a.(lp0
I14
aI23
aI39
aI38
aI41
aI55
aI58
aI62
aI58
aI56
aI58
aI55
aI54
aI55
aI54
aI48
aI45
aI42
aI36
aI31
aI30
aI29
aI28
aI28
aI28
a.(lp0
I53
aI90
aI159
aI257
aI338
aI386
aI451
aI483
aI483
aI484
aI484
aI500
aI500
aI500
aI500
aI500
aI500
aI500
aI500
aI500
aI500
aI500
aI500
aI500
aI500
a.(lp0
I6
aI8
aI12
aI13
aI13
aI13
aI13
aI12
aI12
aI11
aI10
aI10
aI9
aI9
aI9
aI9
aI8
aI8
aI8
aI8
aI8
aI7
aI7
aI7
aI7
a.(lp0
I68
aI169
aI236
aI287
aI321
aI370
aI403
aI451
aI483
aI484
aI500
aI500
aI500
aI500
aI500
aI500
aI500
aI500
aI500
aI500
aI500
aI500
aI500
aI500
aI500
a.(lp0
I4
aI6
aI8
aI9
aI9
aI9
aI9
aI9
aI8
aI7
aI7
aI7
aI7
aI6
aI6
aI6
aI6
aI6
aI6
aI6
aI6
aI6
aI5
aI5
aI5
a.(lp0
I39
aI105
aI156
aI270
aI304
aI322
aI371
aI372
aI404
aI405
aI452
aI484
aI500
aI500
aI500
aI500
aI500
aI500
aI500
aI500
aI500
aI500
aI500
aI500
aI500
a.(lp0
I6
aI8
aI9
aI11
aI11
aI11
aI11
aI10
aI10
aI10
aI10
aI9
aI9
aI8
aI8
aI8
aI8
aI8
aI8
aI7
aI7
aI7
aI7
aI7
aI7
a.(lp0
I1
aI18
aI500
aI500
aI500
aI500
aI500
aI500
aI500
aI500
aI500
aI500
aI500
aI500
aI500
aI500
aI500
aI500
aI500
aI500
aI500
aI500
aI500
aI500
aI500
a.(lp0
I2
aI9
aI36
aI36
aI37
aI33
aI31
aI31
aI29
aI29
aI26
aI26
aI27
aI27
aI27
aI26
aI25
aI25
aI24
aI25
aI25
aI25
aI25
aI24
aI23
a.