(lp0
I17
aI61
aI97
aI147
aI173
aI188
aI196
aI196
aI200
aI200
aI200
aI200
aI200
aI200
aI200
a.(lp0
I12
aI19
aI22
aI24
aI26
aI24
aI21
aI20
aI19
aI18
aI17
aI16
aI16
aI15
aI16
a.(lp0
I42
aI109
aI156
aI188
aI200
aI200
aI200
aI200
aI200
aI200
aI200
aI200
aI200
aI200
aI200
a.(lp0
I7
aI8
aI10
aI9
aI7
aI7
aI6
aI6
aI6
aI6
aI5
aI5
aI5
aI5
aI5
a.(lp0
I88
aI142
aI174
aI187
aI193
aI200
aI200
aI200
aI200
aI200
aI200
aI200
aI200
aI200
aI200
a.(lp0
I6
aI7
aI7
aI6
aI6
aI5
aI5
aI5
aI4
aI4
aI4
aI4
aI4
aI4
aI4
a.(lp0
I101
aI147
aI167
aI187
aI187
aI200
aI200
aI200
aI200
aI200
aI200
aI200
aI200
aI200
aI200
a.(lp0
I8
aI8
aI8
aI8
aI8
aI7
aI6
aI6
aI6
aI6
aI6
aI5
aI5
aI5
aI5
a.(lp0
I24
aI200
aI200
aI200
aI200
aI200
aI200
aI200
aI200
aI200
aI200
aI200
aI200
aI200
aI200
a.(lp0
I17
aI23
aI20
aI18
aI17
aI16
aI17
aI16
aI16
aI15
aI15
aI15
aI15
aI15
aI15
a.