(lp0
I42
aI73
aI143
aI192
aI202
aI251
aI252
aI262
aI281
aI290
aI300
aI300
aI300
aI300
aI300
aI300
aI300
aI300
aI300
aI300
a.(lp0
I15
aI31
aI46
aI61
aI58
aI64
aI59
aI49
aI47
aI39
aI39
aI35
aI30
aI30
aI30
aI29
aI28
aI27
aI28
aI27
a.(lp0
I81
aI112
aI153
aI193
aI222
aI251
aI271
aI290
aI300
aI300
aI300
aI300
aI300
aI300
aI300
aI300
aI300
aI300
aI300
aI300
a.(lp0
I6
aI9
aI10
aI13
aI12
aI11
aI10
aI9
aI8
aI7
aI7
aI7
aI6
aI6
aI6
aI6
aI6
aI6
aI6
aI6
a.(lp0
I91
aI142
aI172
aI202
aI233
aI261
aI280
aI300
aI300
aI300
aI300
aI300
aI300
aI300
aI300
aI300
aI300
aI300
aI300
aI300
a.(lp0
I8
aI10
aI10
aI9
aI9
aI8
aI8
aI7
aI6
aI6
aI6
aI5
aI5
aI5
aI5
aI5
aI5
aI5
aI5
aI5
a.(lp0
I31
aI63
aI123
aI173
aI213
aI223
aI262
aI281
aI300
aI300
aI300
aI300
aI300
aI300
aI300
aI300
aI300
aI300
aI300
aI300
a.(lp0
I4
aI8
aI11
aI11
aI12
aI11
aI11
aI10
aI9
aI9
aI8
aI8
aI7
aI7
aI6
aI6
aI6
aI6
aI6
aI6
a.(lp0
I1
aI300
aI300
aI300
aI300
aI300
aI300
aI300
aI300
aI300
aI300
aI300
aI300
aI300
aI300
aI300
aI300
aI300
aI300
aI300
a.(lp0
I4
aI136
aI127
aI33
aI21
aI21
aI21
aI21
aI21
aI30
aI30
aI29
aI30
aI29
aI29
aI29
aI29
aI29
aI28
aI25
a.