(lp0
I54
aI98
aI128
aI186
aI206
aI235
aI245
aI246
aI273
aI273
aI291
aI292
aI300
aI300
aI300
aI300
aI300
aI300
aI300
aI300
aI300
aI300
aI300
aI300
aI300
a.(lp0
I14
aI24
aI26
aI29
aI29
aI32
aI31
aI30
aI27
aI23
aI22
aI20
aI18
aI17
aI16
aI16
aI15
aI15
aI14
aI14
aI13
aI13
aI13
aI13
aI13
a.(lp0
I112
aI173
aI203
aI242
aI243
aI254
aI274
aI291
aI300
aI300
aI300
aI300
aI300
aI300
aI300
aI300
aI300
aI300
aI300
aI300
aI300
aI300
aI300
aI300
aI300
a.(lp0
I9
aI11
aI10
aI10
aI9
aI10
aI10
aI9
aI8
aI7
aI7
aI7
aI7
aI6
aI6
aI6
aI6
aI6
aI6
aI6
aI5
aI5
aI5
aI5
aI5
a.(lp0
I71
aI133
aI155
aI195
aI253
aI290
aI300
aI300
aI300
aI300
aI300
aI300
aI300
aI300
aI300
aI300
aI300
aI300
aI300
aI300
aI300
aI300
aI300
aI300
aI300
a.(lp0
I5
aI7
aI8
aI8
aI8
aI7
aI7
aI6
aI6
aI6
aI5
aI5
aI5
aI5
aI5
aI5
aI5
aI5
aI5
aI5
aI4
aI4
aI4
aI4
aI4
a.(lp0
I35
aI94
aI148
aI205
aI215
aI235
aI254
aI254
aI291
aI291
aI300
aI300
aI300
aI300
aI300
aI300
aI300
aI300
aI300
aI300
aI300
aI300
aI300
aI300
aI300
a.(lp0
I6
aI7
aI10
aI10
aI10
aI10
aI9
aI9
aI9
aI8
aI8
aI7
aI7
aI6
aI6
aI6
aI6
aI6
aI6
aI6
aI6
aI6
aI6
aI6
aI6
a.(lp0
I11
aI300
aI300
aI300
aI300
aI300
aI300
aI300
aI300
aI300
aI300
aI300
aI300
aI300
aI300
aI300
aI300
aI300
aI300
aI300
aI300
aI300
aI300
aI300
aI300
a.(lp0
I8
aI24
aI20
aI18
aI18
aI17
aI15
aI15
aI15
aI15
aI15
aI15
aI15
aI15
aI14
aI14
aI14
aI13
aI13
aI13
aI13
aI13
aI13
aI13
aI13
a.