(lp0
(lp1
I2
aa(lp2
I3
aI2
aa(lp3
I5
aI3
aI2
aa(lp4
I4
aI5
aI3
aI2
aa(lp5
I1
aI4
aI5
aI3
aI2
aa.(lp0
(lp1
I4
aa(lp2
I2
aI4
aa(lp3
I3
aI2
aI4
aa(lp4
I5
aI3
aI2
aI4
aa(lp5
I1
aI5
aI3
aI2
aI4
aa.(lp0
(lp1
I2
aa(lp2
I4
aI2
aa(lp3
I5
aI4
aI2
aa(lp4
I1
aI5
aI4
aI2
aa(lp5
I3
aI1
aI5
aI4
aI2
aa.(lp0
(lp1
I2
aa(lp2
I3
aI2
aa(lp3
I1
aI3
aI2
aa(lp4
I4
aI1
aI3
aI2
aa(lp5
I5
aI4
aI1
aI3
aI2
aa.(lp0
(lp1
I0
aa(lp2
I0
aI3
aa(lp3
I0
aI3
aI4
aa(lp4
I0
aI3
aI4
aI1
aa(lp5
I0
aI3
aI4
aI1
aI6
aa.