(lp0
(lp1
I3
aa(lp2
I4
aI3
aa(lp3
I2
aI4
aI3
aa(lp4
I1
aI2
aI4
aI3
aa.(lp0
(lp1
I1
aa(lp2
I3
aI1
aa(lp3
I4
aI3
aI1
aa(lp4
I2
aI4
aI3
aI1
aa.(lp0
(lp1
I1
aa(lp2
I2
aI1
aa(lp3
I3
aI2
aI1
aa(lp4
I4
aI3
aI2
aI1
aa.(lp0
(lp1
I4
aa(lp2
I1
aI4
aa(lp3
I2
aI1
aI4
aa(lp4
I3
aI2
aI1
aI4
aa.(lp0
(lp1
I3
aa(lp2
I2
aI3
aa(lp3
I4
aI2
aI3
aa(lp4
I1
aI4
aI2
aI3
aa.(lp0
(lp1
I3
aa(lp2
I4
aI3
aa(lp3
I2
aI4
aI3
aa(lp4
I1
aI2
aI4
aI3
aa.(lp0
(lp1
I2
aa(lp2
I3
aI2
aa(lp3
I1
aI3
aI2
aa(lp4
I4
aI1
aI3
aI2
aa.(lp0
(lp1
I3
aa(lp2
I4
aI3
aa(lp3
I2
aI4
aI3
aa(lp4
I1
aI2
aI4
aI3
aa.(lp0
(lp1
I4
aa(lp2
I2
aI4
aa(lp3
I1
aI2
aI4
aa(lp4
I3
aI1
aI2
aI4
aa.(lp0
(lp1
I3
aa(lp2
I4
aI3
aa(lp3
I2
aI4
aI3
aa(lp4
I1
aI2
aI4
aI3
aa.(lp0
(lp1
I4
aa(lp2
I2
aI4
aa(lp3
I3
aI2
aI4
aa(lp4
I1
aI3
aI2
aI4
aa.(lp0
(lp1
I1
aa(lp2
I2
aI1
aa(lp3
I4
aI2
aI1
aa(lp4
I3
aI4
aI2
aI1
aa.(lp0
(lp1
I1
aa(lp2
I3
aI1
aa(lp3
I2
aI3
aI1
aa(lp4
I4
aI2
aI3
aI1
aa.(lp0
(lp1
I1
aa(lp2
I2
aI1
aa(lp3
I4
aI2
aI1
aa(lp4
I3
aI4
aI2
aI1
aa.(lp0
(lp1
I4
aa(lp2
I3
aI4
aa(lp3
I2
aI3
aI4
aa(lp4
I1
aI2
aI3
aI4
aa.(lp0
(lp1
I1
aa(lp2
I4
aI1
aa(lp3
I3
aI4
aI1
aa(lp4
I2
aI3
aI4
aI1
aa.