(lp0
(lp1
I12
aa(lp2
I26
aI12
aa(lp3
I21
aI26
aI12
aa(lp4
I27
aI21
aI26
aI12
aa(lp5
I29
aI27
aI21
aI26
aI12
aa(lp6
I19
aI29
aI27
aI21
aI26
aI12
aa(lp7
I18
aI19
aI29
aI27
aI21
aI26
aI12
aa(lp8
I15
aI18
aI19
aI29
aI27
aI21
aI26
aI12
aa(lp9
I22
aI15
aI18
aI19
aI29
aI27
aI21
aI26
aI12
aa(lp10
I2
aI22
aI15
aI18
aI19
aI29
aI27
aI21
aI26
aI12
aa(lp11
I1
aI2
aI22
aI15
aI18
aI19
aI29
aI27
aI21
aI26
aI12
aa(lp12
I5
aI1
aI2
aI22
aI15
aI18
aI19
aI29
aI27
aI21
aI26
aI12
aa(lp13
I4
aI5
aI1
aI2
aI22
aI15
aI18
aI19
aI29
aI27
aI21
aI26
aI12
aa(lp14
I11
aI4
aI5
aI1
aI2
aI22
aI15
aI18
aI19
aI29
aI27
aI21
aI26
aI12
aa(lp15
I9
aI11
aI4
aI5
aI1
aI2
aI22
aI15
aI18
aI19
aI29
aI27
aI21
aI26
aI12
aa(lp16
I7
aI9
aI11
aI4
aI5
aI1
aI2
aI22
aI15
aI18
aI19
aI29
aI27
aI21
aI26
aI12
aa(lp17
I14
aI7
aI9
aI11
aI4
aI5
aI1
aI2
aI22
aI15
aI18
aI19
aI29
aI27
aI21
aI26
aI12
aa(lp18
I23
aI14
aI7
aI9
aI11
aI4
aI5
aI1
aI2
aI22
aI15
aI18
aI19
aI29
aI27
aI21
aI26
aI12
aa(lp19
I17
aI23
aI14
aI7
aI9
aI11
aI4
aI5
aI1
aI2
aI22
aI15
aI18
aI19
aI29
aI27
aI21
aI26
aI12
aa(lp20
I10
aI17
aI23
aI14
aI7
aI9
aI11
aI4
aI5
aI1
aI2
aI22
aI15
aI18
aI19
aI29
aI27
aI21
aI26
aI12
aa(lp21
I16
aI10
aI17
aI23
aI14
aI7
aI9
aI11
aI4
aI5
aI1
aI2
aI22
aI15
aI18
aI19
aI29
aI27
aI21
aI26
aI12
aa(lp22
I8
aI16
aI10
aI17
aI23
aI14
aI7
aI9
aI11
aI4
aI5
aI1
aI2
aI22
aI15
aI18
aI19
aI29
aI27
aI21
aI26
aI12
aa(lp23
I28
aI8
aI16
aI10
aI17
aI23
aI14
aI7
aI9
aI11
aI4
aI5
aI1
aI2
aI22
aI15
aI18
aI19
aI29
aI27
aI21
aI26
aI12
aa(lp24
I13
aI28
aI8
aI16
aI10
aI17
aI23
aI14
aI7
aI9
aI11
aI4
aI5
aI1
aI2
aI22
aI15
aI18
aI19
aI29
aI27
aI21
aI26
aI12
aa(lp25
I25
aI13
aI28
aI8
aI16
aI10
aI17
aI23
aI14
aI7
aI9
aI11
aI4
aI5
aI1
aI2
aI22
aI15
aI18
aI19
aI29
aI27
aI21
aI26
aI12
aa(lp26
I3
aI25
aI13
aI28
aI8
aI16
aI10
aI17
aI23
aI14
aI7
aI9
aI11
aI4
aI5
aI1
aI2
aI22
aI15
aI18
aI19
aI29
aI27
aI21
aI26
aI12
aa(lp27
I6
aI3
aI25
aI13
aI28
aI8
aI16
aI10
aI17
aI23
aI14
aI7
aI9
aI11
aI4
aI5
aI1
aI2
aI22
aI15
aI18
aI19
aI29
aI27
aI21
aI26
aI12
aa(lp28
I30
aI6
aI3
aI25
aI13
aI28
aI8
aI16
aI10
aI17
aI23
aI14
aI7
aI9
aI11
aI4
aI5
aI1
aI2
aI22
aI15
aI18
aI19
aI29
aI27
aI21
aI26
aI12
aa(lp29
I20
aI30
aI6
aI3
aI25
aI13
aI28
aI8
aI16
aI10
aI17
aI23
aI14
aI7
aI9
aI11
aI4
aI5
aI1
aI2
aI22
aI15
aI18
aI19
aI29
aI27
aI21
aI26
aI12
aa(lp30
I24
aI20
aI30
aI6
aI3
aI25
aI13
aI28
aI8
aI16
aI10
aI17
aI23
aI14
aI7
aI9
aI11
aI4
aI5
aI1
aI2
aI22
aI15
aI18
aI19
aI29
aI27
aI21
aI26
aI12
aa.