(lp0
(lp1
I3
aa(lp2
I16
aI3
aa(lp3
I2
aI16
aI3
aa(lp4
I17
aI2
aI16
aI3
aa(lp5
I6
aI17
aI2
aI16
aI3
aa(lp6
I14
aI6
aI17
aI2
aI16
aI3
aa(lp7
I10
aI14
aI6
aI17
aI2
aI16
aI3
aa(lp8
I7
aI10
aI14
aI6
aI17
aI2
aI16
aI3
aa(lp9
I13
aI7
aI10
aI14
aI6
aI17
aI2
aI16
aI3
aa(lp10
I20
aI13
aI7
aI10
aI14
aI6
aI17
aI2
aI16
aI3
aa(lp11
I9
aI20
aI13
aI7
aI10
aI14
aI6
aI17
aI2
aI16
aI3
aa(lp12
I12
aI9
aI20
aI13
aI7
aI10
aI14
aI6
aI17
aI2
aI16
aI3
aa(lp13
I15
aI12
aI9
aI20
aI13
aI7
aI10
aI14
aI6
aI17
aI2
aI16
aI3
aa(lp14
I4
aI15
aI12
aI9
aI20
aI13
aI7
aI10
aI14
aI6
aI17
aI2
aI16
aI3
aa(lp15
I19
aI4
aI15
aI12
aI9
aI20
aI13
aI7
aI10
aI14
aI6
aI17
aI2
aI16
aI3
aa(lp16
I8
aI19
aI4
aI15
aI12
aI9
aI20
aI13
aI7
aI10
aI14
aI6
aI17
aI2
aI16
aI3
aa(lp17
I5
aI8
aI19
aI4
aI15
aI12
aI9
aI20
aI13
aI7
aI10
aI14
aI6
aI17
aI2
aI16
aI3
aa(lp18
I1
aI5
aI8
aI19
aI4
aI15
aI12
aI9
aI20
aI13
aI7
aI10
aI14
aI6
aI17
aI2
aI16
aI3
aa(lp19
I11
aI1
aI5
aI8
aI19
aI4
aI15
aI12
aI9
aI20
aI13
aI7
aI10
aI14
aI6
aI17
aI2
aI16
aI3
aa(lp20
I18
aI11
aI1
aI5
aI8
aI19
aI4
aI15
aI12
aI9
aI20
aI13
aI7
aI10
aI14
aI6
aI17
aI2
aI16
aI3
aa.(lp0
(lp1
I20
aa(lp2
I18
aI20
aa(lp3
I7
aI18
aI20
aa(lp4
I14
aI7
aI18
aI20
aa(lp5
I6
aI14
aI7
aI18
aI20
aa(lp6
I5
aI6
aI14
aI7
aI18
aI20
aa(lp7
I12
aI5
aI6
aI14
aI7
aI18
aI20
aa(lp8
I16
aI12
aI5
aI6
aI14
aI7
aI18
aI20
aa(lp9
I19
aI16
aI12
aI5
aI6
aI14
aI7
aI18
aI20
aa(lp10
I10
aI19
aI16
aI12
aI5
aI6
aI14
aI7
aI18
aI20
aa(lp11
I15
aI10
aI19
aI16
aI12
aI5
aI6
aI14
aI7
aI18
aI20
aa(lp12
I9
aI15
aI10
aI19
aI16
aI12
aI5
aI6
aI14
aI7
aI18
aI20
aa(lp13
I2
aI9
aI15
aI10
aI19
aI16
aI12
aI5
aI6
aI14
aI7
aI18
aI20
aa(lp14
I4
aI2
aI9
aI15
aI10
aI19
aI16
aI12
aI5
aI6
aI14
aI7
aI18
aI20
aa(lp15
I13
aI4
aI2
aI9
aI15
aI10
aI19
aI16
aI12
aI5
aI6
aI14
aI7
aI18
aI20
aa(lp16
I1
aI13
aI4
aI2
aI9
aI15
aI10
aI19
aI16
aI12
aI5
aI6
aI14
aI7
aI18
aI20
aa(lp17
I8
aI1
aI13
aI4
aI2
aI9
aI15
aI10
aI19
aI16
aI12
aI5
aI6
aI14
aI7
aI18
aI20
aa(lp18
I3
aI8
aI1
aI13
aI4
aI2
aI9
aI15
aI10
aI19
aI16
aI12
aI5
aI6
aI14
aI7
aI18
aI20
aa(lp19
I17
aI3
aI8
aI1
aI13
aI4
aI2
aI9
aI15
aI10
aI19
aI16
aI12
aI5
aI6
aI14
aI7
aI18
aI20
aa(lp20
I11
aI17
aI3
aI8
aI1
aI13
aI4
aI2
aI9
aI15
aI10
aI19
aI16
aI12
aI5
aI6
aI14
aI7
aI18
aI20
aa.(lp0
(lp1
I8
aa(lp2
I6
aI8
aa(lp3
I18
aI6
aI8
aa(lp4
I5
aI18
aI6
aI8
aa(lp5
I9
aI5
aI18
aI6
aI8
aa(lp6
I16
aI9
aI5
aI18
aI6
aI8
aa(lp7
I7
aI16
aI9
aI5
aI18
aI6
aI8
aa(lp8
I14
aI7
aI16
aI9
aI5
aI18
aI6
aI8
aa(lp9
I13
aI14
aI7
aI16
aI9
aI5
aI18
aI6
aI8
aa(lp10
I20
aI13
aI14
aI7
aI16
aI9
aI5
aI18
aI6
aI8
aa(lp11
I19
aI20
aI13
aI14
aI7
aI16
aI9
aI5
aI18
aI6
aI8
aa(lp12
I11
aI19
aI20
aI13
aI14
aI7
aI16
aI9
aI5
aI18
aI6
aI8
aa(lp13
I12
aI11
aI19
aI20
aI13
aI14
aI7
aI16
aI9
aI5
aI18
aI6
aI8
aa(lp14
I10
aI12
aI11
aI19
aI20
aI13
aI14
aI7
aI16
aI9
aI5
aI18
aI6
aI8
aa(lp15
I3
aI10
aI12
aI11
aI19
aI20
aI13
aI14
aI7
aI16
aI9
aI5
aI18
aI6
aI8
aa(lp16
I4
aI3
aI10
aI12
aI11
aI19
aI20
aI13
aI14
aI7
aI16
aI9
aI5
aI18
aI6
aI8
aa(lp17
I17
aI4
aI3
aI10
aI12
aI11
aI19
aI20
aI13
aI14
aI7
aI16
aI9
aI5
aI18
aI6
aI8
aa(lp18
I2
aI17
aI4
aI3
aI10
aI12
aI11
aI19
aI20
aI13
aI14
aI7
aI16
aI9
aI5
aI18
aI6
aI8
aa(lp19
I1
aI2
aI17
aI4
aI3
aI10
aI12
aI11
aI19
aI20
aI13
aI14
aI7
aI16
aI9
aI5
aI18
aI6
aI8
aa(lp20
I15
aI1
aI2
aI17
aI4
aI3
aI10
aI12
aI11
aI19
aI20
aI13
aI14
aI7
aI16
aI9
aI5
aI18
aI6
aI8
aa.(lp0
(lp1
I6
aa(lp2
I7
aI6
aa(lp3
I16
aI7
aI6
aa(lp4
I19
aI16
aI7
aI6
aa(lp5
I10
aI19
aI16
aI7
aI6
aa(lp6
I18
aI10
aI19
aI16
aI7
aI6
aa(lp7
I12
aI18
aI10
aI19
aI16
aI7
aI6
aa(lp8
I3
aI12
aI18
aI10
aI19
aI16
aI7
aI6
aa(lp9
I9
aI3
aI12
aI18
aI10
aI19
aI16
aI7
aI6
aa(lp10
I5
aI9
aI3
aI12
aI18
aI10
aI19
aI16
aI7
aI6
aa(lp11
I17
aI5
aI9
aI3
aI12
aI18
aI10
aI19
aI16
aI7
aI6
aa(lp12
I8
aI17
aI5
aI9
aI3
aI12
aI18
aI10
aI19
aI16
aI7
aI6
aa(lp13
I4
aI8
aI17
aI5
aI9
aI3
aI12
aI18
aI10
aI19
aI16
aI7
aI6
aa(lp14
I11
aI4
aI8
aI17
aI5
aI9
aI3
aI12
aI18
aI10
aI19
aI16
aI7
aI6
aa(lp15
I13
aI11
aI4
aI8
aI17
aI5
aI9
aI3
aI12
aI18
aI10
aI19
aI16
aI7
aI6
aa(lp16
I20
aI13
aI11
aI4
aI8
aI17
aI5
aI9
aI3
aI12
aI18
aI10
aI19
aI16
aI7
aI6
aa(lp17
I14
aI20
aI13
aI11
aI4
aI8
aI17
aI5
aI9
aI3
aI12
aI18
aI10
aI19
aI16
aI7
aI6
aa(lp18
I15
aI14
aI20
aI13
aI11
aI4
aI8
aI17
aI5
aI9
aI3
aI12
aI18
aI10
aI19
aI16
aI7
aI6
aa(lp19
I1
aI15
aI14
aI20
aI13
aI11
aI4
aI8
aI17
aI5
aI9
aI3
aI12
aI18
aI10
aI19
aI16
aI7
aI6
aa(lp20
I2
aI1
aI15
aI14
aI20
aI13
aI11
aI4
aI8
aI17
aI5
aI9
aI3
aI12
aI18
aI10
aI19
aI16
aI7
aI6
aa.(lp0
(lp1
I12
aa(lp2
I17
aI12
aa(lp3
I7
aI17
aI12
aa(lp4
I19
aI7
aI17
aI12
aa(lp5
I5
aI19
aI7
aI17
aI12
aa(lp6
I20
aI5
aI19
aI7
aI17
aI12
aa(lp7
I16
aI20
aI5
aI19
aI7
aI17
aI12
aa(lp8
I14
aI16
aI20
aI5
aI19
aI7
aI17
aI12
aa(lp9
I6
aI14
aI16
aI20
aI5
aI19
aI7
aI17
aI12
aa(lp10
I15
aI6
aI14
aI16
aI20
aI5
aI19
aI7
aI17
aI12
aa(lp11
I4
aI15
aI6
aI14
aI16
aI20
aI5
aI19
aI7
aI17
aI12
aa(lp12
I2
aI4
aI15
aI6
aI14
aI16
aI20
aI5
aI19
aI7
aI17
aI12
aa(lp13
I18
aI2
aI4
aI15
aI6
aI14
aI16
aI20
aI5
aI19
aI7
aI17
aI12
aa(lp14
I9
aI18
aI2
aI4
aI15
aI6
aI14
aI16
aI20
aI5
aI19
aI7
aI17
aI12
aa(lp15
I10
aI9
aI18
aI2
aI4
aI15
aI6
aI14
aI16
aI20
aI5
aI19
aI7
aI17
aI12
aa(lp16
I8
aI10
aI9
aI18
aI2
aI4
aI15
aI6
aI14
aI16
aI20
aI5
aI19
aI7
aI17
aI12
aa(lp17
I11
aI8
aI10
aI9
aI18
aI2
aI4
aI15
aI6
aI14
aI16
aI20
aI5
aI19
aI7
aI17
aI12
aa(lp18
I13
aI11
aI8
aI10
aI9
aI18
aI2
aI4
aI15
aI6
aI14
aI16
aI20
aI5
aI19
aI7
aI17
aI12
aa(lp19
I3
aI13
aI11
aI8
aI10
aI9
aI18
aI2
aI4
aI15
aI6
aI14
aI16
aI20
aI5
aI19
aI7
aI17
aI12
aa(lp20
I1
aI3
aI13
aI11
aI8
aI10
aI9
aI18
aI2
aI4
aI15
aI6
aI14
aI16
aI20
aI5
aI19
aI7
aI17
aI12
aa.(lp0
(lp1
I9
aa(lp2
I4
aI9
aa(lp3
I12
aI4
aI9
aa(lp4
I13
aI12
aI4
aI9
aa(lp5
I1
aI13
aI12
aI4
aI9
aa(lp6
I16
aI1
aI13
aI12
aI4
aI9
aa(lp7
I15
aI16
aI1
aI13
aI12
aI4
aI9
aa(lp8
I20
aI15
aI16
aI1
aI13
aI12
aI4
aI9
aa(lp9
I19
aI20
aI15
aI16
aI1
aI13
aI12
aI4
aI9
aa(lp10
I11
aI19
aI20
aI15
aI16
aI1
aI13
aI12
aI4
aI9
aa(lp11
I10
aI11
aI19
aI20
aI15
aI16
aI1
aI13
aI12
aI4
aI9
aa(lp12
I3
aI10
aI11
aI19
aI20
aI15
aI16
aI1
aI13
aI12
aI4
aI9
aa(lp13
I17
aI3
aI10
aI11
aI19
aI20
aI15
aI16
aI1
aI13
aI12
aI4
aI9
aa(lp14
I18
aI17
aI3
aI10
aI11
aI19
aI20
aI15
aI16
aI1
aI13
aI12
aI4
aI9
aa(lp15
I7
aI18
aI17
aI3
aI10
aI11
aI19
aI20
aI15
aI16
aI1
aI13
aI12
aI4
aI9
aa(lp16
I6
aI7
aI18
aI17
aI3
aI10
aI11
aI19
aI20
aI15
aI16
aI1
aI13
aI12
aI4
aI9
aa(lp17
I8
aI6
aI7
aI18
aI17
aI3
aI10
aI11
aI19
aI20
aI15
aI16
aI1
aI13
aI12
aI4
aI9
aa(lp18
I5
aI8
aI6
aI7
aI18
aI17
aI3
aI10
aI11
aI19
aI20
aI15
aI16
aI1
aI13
aI12
aI4
aI9
aa(lp19
I2
aI5
aI8
aI6
aI7
aI18
aI17
aI3
aI10
aI11
aI19
aI20
aI15
aI16
aI1
aI13
aI12
aI4
aI9
aa(lp20
I14
aI2
aI5
aI8
aI6
aI7
aI18
aI17
aI3
aI10
aI11
aI19
aI20
aI15
aI16
aI1
aI13
aI12
aI4
aI9
aa.(lp0
(lp1
I14
aa(lp2
I15
aI14
aa(lp3
I5
aI15
aI14
aa(lp4
I13
aI5
aI15
aI14
aa(lp5
I4
aI13
aI5
aI15
aI14
aa(lp6
I3
aI4
aI13
aI5
aI15
aI14
aa(lp7
I16
aI3
aI4
aI13
aI5
aI15
aI14
aa(lp8
I7
aI16
aI3
aI4
aI13
aI5
aI15
aI14
aa(lp9
I17
aI7
aI16
aI3
aI4
aI13
aI5
aI15
aI14
aa(lp10
I12
aI17
aI7
aI16
aI3
aI4
aI13
aI5
aI15
aI14
aa(lp11
I8
aI12
aI17
aI7
aI16
aI3
aI4
aI13
aI5
aI15
aI14
aa(lp12
I2
aI8
aI12
aI17
aI7
aI16
aI3
aI4
aI13
aI5
aI15
aI14
aa(lp13
I6
aI2
aI8
aI12
aI17
aI7
aI16
aI3
aI4
aI13
aI5
aI15
aI14
aa(lp14
I18
aI6
aI2
aI8
aI12
aI17
aI7
aI16
aI3
aI4
aI13
aI5
aI15
aI14
aa(lp15
I10
aI18
aI6
aI2
aI8
aI12
aI17
aI7
aI16
aI3
aI4
aI13
aI5
aI15
aI14
aa(lp16
I11
aI10
aI18
aI6
aI2
aI8
aI12
aI17
aI7
aI16
aI3
aI4
aI13
aI5
aI15
aI14
aa(lp17
I9
aI11
aI10
aI18
aI6
aI2
aI8
aI12
aI17
aI7
aI16
aI3
aI4
aI13
aI5
aI15
aI14
aa(lp18
I1
aI9
aI11
aI10
aI18
aI6
aI2
aI8
aI12
aI17
aI7
aI16
aI3
aI4
aI13
aI5
aI15
aI14
aa(lp19
I20
aI1
aI9
aI11
aI10
aI18
aI6
aI2
aI8
aI12
aI17
aI7
aI16
aI3
aI4
aI13
aI5
aI15
aI14
aa(lp20
I19
aI20
aI1
aI9
aI11
aI10
aI18
aI6
aI2
aI8
aI12
aI17
aI7
aI16
aI3
aI4
aI13
aI5
aI15
aI14
aa.(lp0
(lp1
I2
aa(lp2
I3
aI2
aa(lp3
I1
aI3
aI2
aa(lp4
I4
aI1
aI3
aI2
aa(lp5
I19
aI4
aI1
aI3
aI2
aa(lp6
I6
aI19
aI4
aI1
aI3
aI2
aa(lp7
I7
aI6
aI19
aI4
aI1
aI3
aI2
aa(lp8
I14
aI7
aI6
aI19
aI4
aI1
aI3
aI2
aa(lp9
I15
aI14
aI7
aI6
aI19
aI4
aI1
aI3
aI2
aa(lp10
I5
aI15
aI14
aI7
aI6
aI19
aI4
aI1
aI3
aI2
aa(lp11
I12
aI5
aI15
aI14
aI7
aI6
aI19
aI4
aI1
aI3
aI2
aa(lp12
I11
aI12
aI5
aI15
aI14
aI7
aI6
aI19
aI4
aI1
aI3
aI2
aa(lp13
I13
aI11
aI12
aI5
aI15
aI14
aI7
aI6
aI19
aI4
aI1
aI3
aI2
aa(lp14
I20
aI13
aI11
aI12
aI5
aI15
aI14
aI7
aI6
aI19
aI4
aI1
aI3
aI2
aa(lp15
I8
aI20
aI13
aI11
aI12
aI5
aI15
aI14
aI7
aI6
aI19
aI4
aI1
aI3
aI2
aa(lp16
I18
aI8
aI20
aI13
aI11
aI12
aI5
aI15
aI14
aI7
aI6
aI19
aI4
aI1
aI3
aI2
aa(lp17
I9
aI18
aI8
aI20
aI13
aI11
aI12
aI5
aI15
aI14
aI7
aI6
aI19
aI4
aI1
aI3
aI2
aa(lp18
I17
aI9
aI18
aI8
aI20
aI13
aI11
aI12
aI5
aI15
aI14
aI7
aI6
aI19
aI4
aI1
aI3
aI2
aa(lp19
I10
aI17
aI9
aI18
aI8
aI20
aI13
aI11
aI12
aI5
aI15
aI14
aI7
aI6
aI19
aI4
aI1
aI3
aI2
aa(lp20
I16
aI10
aI17
aI9
aI18
aI8
aI20
aI13
aI11
aI12
aI5
aI15
aI14
aI7
aI6
aI19
aI4
aI1
aI3
aI2
aa.(lp0
(lp1
I14
aa(lp2
I8
aI14
aa(lp3
I6
aI8
aI14
aa(lp4
I1
aI6
aI8
aI14
aa(lp5
I7
aI1
aI6
aI8
aI14
aa(lp6
I19
aI7
aI1
aI6
aI8
aI14
aa(lp7
I16
aI19
aI7
aI1
aI6
aI8
aI14
aa(lp8
I5
aI16
aI19
aI7
aI1
aI6
aI8
aI14
aa(lp9
I9
aI5
aI16
aI19
aI7
aI1
aI6
aI8
aI14
aa(lp10
I17
aI9
aI5
aI16
aI19
aI7
aI1
aI6
aI8
aI14
aa(lp11
I11
aI17
aI9
aI5
aI16
aI19
aI7
aI1
aI6
aI8
aI14
aa(lp12
I20
aI11
aI17
aI9
aI5
aI16
aI19
aI7
aI1
aI6
aI8
aI14
aa(lp13
I13
aI20
aI11
aI17
aI9
aI5
aI16
aI19
aI7
aI1
aI6
aI8
aI14
aa(lp14
I4
aI13
aI20
aI11
aI17
aI9
aI5
aI16
aI19
aI7
aI1
aI6
aI8
aI14
aa(lp15
I3
aI4
aI13
aI20
aI11
aI17
aI9
aI5
aI16
aI19
aI7
aI1
aI6
aI8
aI14
aa(lp16
I18
aI3
aI4
aI13
aI20
aI11
aI17
aI9
aI5
aI16
aI19
aI7
aI1
aI6
aI8
aI14
aa(lp17
I10
aI18
aI3
aI4
aI13
aI20
aI11
aI17
aI9
aI5
aI16
aI19
aI7
aI1
aI6
aI8
aI14
aa(lp18
I2
aI10
aI18
aI3
aI4
aI13
aI20
aI11
aI17
aI9
aI5
aI16
aI19
aI7
aI1
aI6
aI8
aI14
aa(lp19
I15
aI2
aI10
aI18
aI3
aI4
aI13
aI20
aI11
aI17
aI9
aI5
aI16
aI19
aI7
aI1
aI6
aI8
aI14
aa(lp20
I12
aI15
aI2
aI10
aI18
aI3
aI4
aI13
aI20
aI11
aI17
aI9
aI5
aI16
aI19
aI7
aI1
aI6
aI8
aI14
aa.(lp0
(lp1
I5
aa(lp2
I12
aI5
aa(lp3
I20
aI12
aI5
aa(lp4
I14
aI20
aI12
aI5
aa(lp5
I16
aI14
aI20
aI12
aI5
aa(lp6
I4
aI16
aI14
aI20
aI12
aI5
aa(lp7
I18
aI4
aI16
aI14
aI20
aI12
aI5
aa(lp8
I15
aI18
aI4
aI16
aI14
aI20
aI12
aI5
aa(lp9
I8
aI15
aI18
aI4
aI16
aI14
aI20
aI12
aI5
aa(lp10
I7
aI8
aI15
aI18
aI4
aI16
aI14
aI20
aI12
aI5
aa(lp11
I9
aI7
aI8
aI15
aI18
aI4
aI16
aI14
aI20
aI12
aI5
aa(lp12
I2
aI9
aI7
aI8
aI15
aI18
aI4
aI16
aI14
aI20
aI12
aI5
aa(lp13
I13
aI2
aI9
aI7
aI8
aI15
aI18
aI4
aI16
aI14
aI20
aI12
aI5
aa(lp14
I10
aI13
aI2
aI9
aI7
aI8
aI15
aI18
aI4
aI16
aI14
aI20
aI12
aI5
aa(lp15
I1
aI10
aI13
aI2
aI9
aI7
aI8
aI15
aI18
aI4
aI16
aI14
aI20
aI12
aI5
aa(lp16
I19
aI1
aI10
aI13
aI2
aI9
aI7
aI8
aI15
aI18
aI4
aI16
aI14
aI20
aI12
aI5
aa(lp17
I17
aI19
aI1
aI10
aI13
aI2
aI9
aI7
aI8
aI15
aI18
aI4
aI16
aI14
aI20
aI12
aI5
aa(lp18
I3
aI17
aI19
aI1
aI10
aI13
aI2
aI9
aI7
aI8
aI15
aI18
aI4
aI16
aI14
aI20
aI12
aI5
aa(lp19
I11
aI3
aI17
aI19
aI1
aI10
aI13
aI2
aI9
aI7
aI8
aI15
aI18
aI4
aI16
aI14
aI20
aI12
aI5
aa(lp20
I6
aI11
aI3
aI17
aI19
aI1
aI10
aI13
aI2
aI9
aI7
aI8
aI15
aI18
aI4
aI16
aI14
aI20
aI12
aI5
aa.(lp0
(lp1
I10
aa(lp2
I19
aI10
aa(lp3
I11
aI19
aI10
aa(lp4
I4
aI11
aI19
aI10
aa(lp5
I13
aI4
aI11
aI19
aI10
aa(lp6
I8
aI13
aI4
aI11
aI19
aI10
aa(lp7
I17
aI8
aI13
aI4
aI11
aI19
aI10
aa(lp8
I1
aI17
aI8
aI13
aI4
aI11
aI19
aI10
aa(lp9
I3
aI1
aI17
aI8
aI13
aI4
aI11
aI19
aI10
aa(lp10
I6
aI3
aI1
aI17
aI8
aI13
aI4
aI11
aI19
aI10
aa(lp11
I14
aI6
aI3
aI1
aI17
aI8
aI13
aI4
aI11
aI19
aI10
aa(lp12
I18
aI14
aI6
aI3
aI1
aI17
aI8
aI13
aI4
aI11
aI19
aI10
aa(lp13
I7
aI18
aI14
aI6
aI3
aI1
aI17
aI8
aI13
aI4
aI11
aI19
aI10
aa(lp14
I20
aI7
aI18
aI14
aI6
aI3
aI1
aI17
aI8
aI13
aI4
aI11
aI19
aI10
aa(lp15
I12
aI20
aI7
aI18
aI14
aI6
aI3
aI1
aI17
aI8
aI13
aI4
aI11
aI19
aI10
aa(lp16
I15
aI12
aI20
aI7
aI18
aI14
aI6
aI3
aI1
aI17
aI8
aI13
aI4
aI11
aI19
aI10
aa(lp17
I5
aI15
aI12
aI20
aI7
aI18
aI14
aI6
aI3
aI1
aI17
aI8
aI13
aI4
aI11
aI19
aI10
aa(lp18
I16
aI5
aI15
aI12
aI20
aI7
aI18
aI14
aI6
aI3
aI1
aI17
aI8
aI13
aI4
aI11
aI19
aI10
aa(lp19
I9
aI16
aI5
aI15
aI12
aI20
aI7
aI18
aI14
aI6
aI3
aI1
aI17
aI8
aI13
aI4
aI11
aI19
aI10
aa(lp20
I2
aI9
aI16
aI5
aI15
aI12
aI20
aI7
aI18
aI14
aI6
aI3
aI1
aI17
aI8
aI13
aI4
aI11
aI19
aI10
aa.(lp0
(lp1
I6
aa(lp2
I5
aI6
aa(lp3
I13
aI5
aI6
aa(lp4
I7
aI13
aI5
aI6
aa(lp5
I8
aI7
aI13
aI5
aI6
aa(lp6
I14
aI8
aI7
aI13
aI5
aI6
aa(lp7
I10
aI14
aI8
aI7
aI13
aI5
aI6
aa(lp8
I15
aI10
aI14
aI8
aI7
aI13
aI5
aI6
aa(lp9
I11
aI15
aI10
aI14
aI8
aI7
aI13
aI5
aI6
aa(lp10
I17
aI11
aI15
aI10
aI14
aI8
aI7
aI13
aI5
aI6
aa(lp11
I20
aI17
aI11
aI15
aI10
aI14
aI8
aI7
aI13
aI5
aI6
aa(lp12
I2
aI20
aI17
aI11
aI15
aI10
aI14
aI8
aI7
aI13
aI5
aI6
aa(lp13
I16
aI2
aI20
aI17
aI11
aI15
aI10
aI14
aI8
aI7
aI13
aI5
aI6
aa(lp14
I4
aI16
aI2
aI20
aI17
aI11
aI15
aI10
aI14
aI8
aI7
aI13
aI5
aI6
aa(lp15
I3
aI4
aI16
aI2
aI20
aI17
aI11
aI15
aI10
aI14
aI8
aI7
aI13
aI5
aI6
aa(lp16
I9
aI3
aI4
aI16
aI2
aI20
aI17
aI11
aI15
aI10
aI14
aI8
aI7
aI13
aI5
aI6
aa(lp17
I1
aI9
aI3
aI4
aI16
aI2
aI20
aI17
aI11
aI15
aI10
aI14
aI8
aI7
aI13
aI5
aI6
aa(lp18
I12
aI1
aI9
aI3
aI4
aI16
aI2
aI20
aI17
aI11
aI15
aI10
aI14
aI8
aI7
aI13
aI5
aI6
aa(lp19
I19
aI12
aI1
aI9
aI3
aI4
aI16
aI2
aI20
aI17
aI11
aI15
aI10
aI14
aI8
aI7
aI13
aI5
aI6
aa(lp20
I18
aI19
aI12
aI1
aI9
aI3
aI4
aI16
aI2
aI20
aI17
aI11
aI15
aI10
aI14
aI8
aI7
aI13
aI5
aI6
aa.(lp0
(lp1
I4
aa(lp2
I9
aI4
aa(lp3
I5
aI9
aI4
aa(lp4
I18
aI5
aI9
aI4
aa(lp5
I8
aI18
aI5
aI9
aI4
aa(lp6
I1
aI8
aI18
aI5
aI9
aI4
aa(lp7
I16
aI1
aI8
aI18
aI5
aI9
aI4
aa(lp8
I20
aI16
aI1
aI8
aI18
aI5
aI9
aI4
aa(lp9
I12
aI20
aI16
aI1
aI8
aI18
aI5
aI9
aI4
aa(lp10
I17
aI12
aI20
aI16
aI1
aI8
aI18
aI5
aI9
aI4
aa(lp11
I6
aI17
aI12
aI20
aI16
aI1
aI8
aI18
aI5
aI9
aI4
aa(lp12
I2
aI6
aI17
aI12
aI20
aI16
aI1
aI8
aI18
aI5
aI9
aI4
aa(lp13
I19
aI2
aI6
aI17
aI12
aI20
aI16
aI1
aI8
aI18
aI5
aI9
aI4
aa(lp14
I11
aI19
aI2
aI6
aI17
aI12
aI20
aI16
aI1
aI8
aI18
aI5
aI9
aI4
aa(lp15
I10
aI11
aI19
aI2
aI6
aI17
aI12
aI20
aI16
aI1
aI8
aI18
aI5
aI9
aI4
aa(lp16
I3
aI10
aI11
aI19
aI2
aI6
aI17
aI12
aI20
aI16
aI1
aI8
aI18
aI5
aI9
aI4
aa(lp17
I14
aI3
aI10
aI11
aI19
aI2
aI6
aI17
aI12
aI20
aI16
aI1
aI8
aI18
aI5
aI9
aI4
aa(lp18
I7
aI14
aI3
aI10
aI11
aI19
aI2
aI6
aI17
aI12
aI20
aI16
aI1
aI8
aI18
aI5
aI9
aI4
aa(lp19
I13
aI7
aI14
aI3
aI10
aI11
aI19
aI2
aI6
aI17
aI12
aI20
aI16
aI1
aI8
aI18
aI5
aI9
aI4
aa(lp20
I15
aI13
aI7
aI14
aI3
aI10
aI11
aI19
aI2
aI6
aI17
aI12
aI20
aI16
aI1
aI8
aI18
aI5
aI9
aI4
aa.(lp0
(lp1
I9
aa(lp2
I12
aI9
aa(lp3
I10
aI12
aI9
aa(lp4
I14
aI10
aI12
aI9
aa(lp5
I2
aI14
aI10
aI12
aI9
aa(lp6
I16
aI2
aI14
aI10
aI12
aI9
aa(lp7
I5
aI16
aI2
aI14
aI10
aI12
aI9
aa(lp8
I18
aI5
aI16
aI2
aI14
aI10
aI12
aI9
aa(lp9
I1
aI18
aI5
aI16
aI2
aI14
aI10
aI12
aI9
aa(lp10
I17
aI1
aI18
aI5
aI16
aI2
aI14
aI10
aI12
aI9
aa(lp11
I4
aI17
aI1
aI18
aI5
aI16
aI2
aI14
aI10
aI12
aI9
aa(lp12
I11
aI4
aI17
aI1
aI18
aI5
aI16
aI2
aI14
aI10
aI12
aI9
aa(lp13
I3
aI11
aI4
aI17
aI1
aI18
aI5
aI16
aI2
aI14
aI10
aI12
aI9
aa(lp14
I15
aI3
aI11
aI4
aI17
aI1
aI18
aI5
aI16
aI2
aI14
aI10
aI12
aI9
aa(lp15
I20
aI15
aI3
aI11
aI4
aI17
aI1
aI18
aI5
aI16
aI2
aI14
aI10
aI12
aI9
aa(lp16
I7
aI20
aI15
aI3
aI11
aI4
aI17
aI1
aI18
aI5
aI16
aI2
aI14
aI10
aI12
aI9
aa(lp17
I19
aI7
aI20
aI15
aI3
aI11
aI4
aI17
aI1
aI18
aI5
aI16
aI2
aI14
aI10
aI12
aI9
aa(lp18
I13
aI19
aI7
aI20
aI15
aI3
aI11
aI4
aI17
aI1
aI18
aI5
aI16
aI2
aI14
aI10
aI12
aI9
aa(lp19
I8
aI13
aI19
aI7
aI20
aI15
aI3
aI11
aI4
aI17
aI1
aI18
aI5
aI16
aI2
aI14
aI10
aI12
aI9
aa(lp20
I6
aI8
aI13
aI19
aI7
aI20
aI15
aI3
aI11
aI4
aI17
aI1
aI18
aI5
aI16
aI2
aI14
aI10
aI12
aI9
aa.(lp0
(lp1
I15
aa(lp2
I7
aI15
aa(lp3
I19
aI7
aI15
aa(lp4
I10
aI19
aI7
aI15
aa(lp5
I11
aI10
aI19
aI7
aI15
aa(lp6
I1
aI11
aI10
aI19
aI7
aI15
aa(lp7
I8
aI1
aI11
aI10
aI19
aI7
aI15
aa(lp8
I9
aI8
aI1
aI11
aI10
aI19
aI7
aI15
aa(lp9
I16
aI9
aI8
aI1
aI11
aI10
aI19
aI7
aI15
aa(lp10
I4
aI16
aI9
aI8
aI1
aI11
aI10
aI19
aI7
aI15
aa(lp11
I20
aI4
aI16
aI9
aI8
aI1
aI11
aI10
aI19
aI7
aI15
aa(lp12
I2
aI20
aI4
aI16
aI9
aI8
aI1
aI11
aI10
aI19
aI7
aI15
aa(lp13
I5
aI2
aI20
aI4
aI16
aI9
aI8
aI1
aI11
aI10
aI19
aI7
aI15
aa(lp14
I13
aI5
aI2
aI20
aI4
aI16
aI9
aI8
aI1
aI11
aI10
aI19
aI7
aI15
aa(lp15
I14
aI13
aI5
aI2
aI20
aI4
aI16
aI9
aI8
aI1
aI11
aI10
aI19
aI7
aI15
aa(lp16
I3
aI14
aI13
aI5
aI2
aI20
aI4
aI16
aI9
aI8
aI1
aI11
aI10
aI19
aI7
aI15
aa(lp17
I12
aI3
aI14
aI13
aI5
aI2
aI20
aI4
aI16
aI9
aI8
aI1
aI11
aI10
aI19
aI7
aI15
aa(lp18
I18
aI12
aI3
aI14
aI13
aI5
aI2
aI20
aI4
aI16
aI9
aI8
aI1
aI11
aI10
aI19
aI7
aI15
aa(lp19
I6
aI18
aI12
aI3
aI14
aI13
aI5
aI2
aI20
aI4
aI16
aI9
aI8
aI1
aI11
aI10
aI19
aI7
aI15
aa(lp20
I17
aI6
aI18
aI12
aI3
aI14
aI13
aI5
aI2
aI20
aI4
aI16
aI9
aI8
aI1
aI11
aI10
aI19
aI7
aI15
aa.(lp0
(lp1
I12
aa(lp2
I11
aI12
aa(lp3
I18
aI11
aI12
aa(lp4
I8
aI18
aI11
aI12
aa(lp5
I20
aI8
aI18
aI11
aI12
aa(lp6
I3
aI20
aI8
aI18
aI11
aI12
aa(lp7
I14
aI3
aI20
aI8
aI18
aI11
aI12
aa(lp8
I9
aI14
aI3
aI20
aI8
aI18
aI11
aI12
aa(lp9
I13
aI9
aI14
aI3
aI20
aI8
aI18
aI11
aI12
aa(lp10
I17
aI13
aI9
aI14
aI3
aI20
aI8
aI18
aI11
aI12
aa(lp11
I10
aI17
aI13
aI9
aI14
aI3
aI20
aI8
aI18
aI11
aI12
aa(lp12
I16
aI10
aI17
aI13
aI9
aI14
aI3
aI20
aI8
aI18
aI11
aI12
aa(lp13
I7
aI16
aI10
aI17
aI13
aI9
aI14
aI3
aI20
aI8
aI18
aI11
aI12
aa(lp14
I1
aI7
aI16
aI10
aI17
aI13
aI9
aI14
aI3
aI20
aI8
aI18
aI11
aI12
aa(lp15
I6
aI1
aI7
aI16
aI10
aI17
aI13
aI9
aI14
aI3
aI20
aI8
aI18
aI11
aI12
aa(lp16
I4
aI6
aI1
aI7
aI16
aI10
aI17
aI13
aI9
aI14
aI3
aI20
aI8
aI18
aI11
aI12
aa(lp17
I5
aI4
aI6
aI1
aI7
aI16
aI10
aI17
aI13
aI9
aI14
aI3
aI20
aI8
aI18
aI11
aI12
aa(lp18
I2
aI5
aI4
aI6
aI1
aI7
aI16
aI10
aI17
aI13
aI9
aI14
aI3
aI20
aI8
aI18
aI11
aI12
aa(lp19
I19
aI2
aI5
aI4
aI6
aI1
aI7
aI16
aI10
aI17
aI13
aI9
aI14
aI3
aI20
aI8
aI18
aI11
aI12
aa(lp20
I15
aI19
aI2
aI5
aI4
aI6
aI1
aI7
aI16
aI10
aI17
aI13
aI9
aI14
aI3
aI20
aI8
aI18
aI11
aI12
aa.(lp0
(lp1
I2
aa(lp2
I7
aI2
aa(lp3
I12
aI7
aI2
aa(lp4
I15
aI12
aI7
aI2
aa(lp5
I4
aI15
aI12
aI7
aI2
aa(lp6
I20
aI4
aI15
aI12
aI7
aI2
aa(lp7
I6
aI20
aI4
aI15
aI12
aI7
aI2
aa(lp8
I13
aI6
aI20
aI4
aI15
aI12
aI7
aI2
aa(lp9
I1
aI13
aI6
aI20
aI4
aI15
aI12
aI7
aI2
aa(lp10
I11
aI1
aI13
aI6
aI20
aI4
aI15
aI12
aI7
aI2
aa(lp11
I5
aI11
aI1
aI13
aI6
aI20
aI4
aI15
aI12
aI7
aI2
aa(lp12
I10
aI5
aI11
aI1
aI13
aI6
aI20
aI4
aI15
aI12
aI7
aI2
aa(lp13
I8
aI10
aI5
aI11
aI1
aI13
aI6
aI20
aI4
aI15
aI12
aI7
aI2
aa(lp14
I3
aI8
aI10
aI5
aI11
aI1
aI13
aI6
aI20
aI4
aI15
aI12
aI7
aI2
aa(lp15
I16
aI3
aI8
aI10
aI5
aI11
aI1
aI13
aI6
aI20
aI4
aI15
aI12
aI7
aI2
aa(lp16
I14
aI16
aI3
aI8
aI10
aI5
aI11
aI1
aI13
aI6
aI20
aI4
aI15
aI12
aI7
aI2
aa(lp17
I18
aI14
aI16
aI3
aI8
aI10
aI5
aI11
aI1
aI13
aI6
aI20
aI4
aI15
aI12
aI7
aI2
aa(lp18
I17
aI18
aI14
aI16
aI3
aI8
aI10
aI5
aI11
aI1
aI13
aI6
aI20
aI4
aI15
aI12
aI7
aI2
aa(lp19
I9
aI17
aI18
aI14
aI16
aI3
aI8
aI10
aI5
aI11
aI1
aI13
aI6
aI20
aI4
aI15
aI12
aI7
aI2
aa(lp20
I19
aI9
aI17
aI18
aI14
aI16
aI3
aI8
aI10
aI5
aI11
aI1
aI13
aI6
aI20
aI4
aI15
aI12
aI7
aI2
aa.(lp0
(lp1
I18
aa(lp2
I16
aI18
aa(lp3
I19
aI16
aI18
aa(lp4
I5
aI19
aI16
aI18
aa(lp5
I13
aI5
aI19
aI16
aI18
aa(lp6
I15
aI13
aI5
aI19
aI16
aI18
aa(lp7
I2
aI15
aI13
aI5
aI19
aI16
aI18
aa(lp8
I4
aI2
aI15
aI13
aI5
aI19
aI16
aI18
aa(lp9
I17
aI4
aI2
aI15
aI13
aI5
aI19
aI16
aI18
aa(lp10
I11
aI17
aI4
aI2
aI15
aI13
aI5
aI19
aI16
aI18
aa(lp11
I3
aI11
aI17
aI4
aI2
aI15
aI13
aI5
aI19
aI16
aI18
aa(lp12
I14
aI3
aI11
aI17
aI4
aI2
aI15
aI13
aI5
aI19
aI16
aI18
aa(lp13
I9
aI14
aI3
aI11
aI17
aI4
aI2
aI15
aI13
aI5
aI19
aI16
aI18
aa(lp14
I20
aI9
aI14
aI3
aI11
aI17
aI4
aI2
aI15
aI13
aI5
aI19
aI16
aI18
aa(lp15
I10
aI20
aI9
aI14
aI3
aI11
aI17
aI4
aI2
aI15
aI13
aI5
aI19
aI16
aI18
aa(lp16
I12
aI10
aI20
aI9
aI14
aI3
aI11
aI17
aI4
aI2
aI15
aI13
aI5
aI19
aI16
aI18
aa(lp17
I1
aI12
aI10
aI20
aI9
aI14
aI3
aI11
aI17
aI4
aI2
aI15
aI13
aI5
aI19
aI16
aI18
aa(lp18
I6
aI1
aI12
aI10
aI20
aI9
aI14
aI3
aI11
aI17
aI4
aI2
aI15
aI13
aI5
aI19
aI16
aI18
aa(lp19
I8
aI6
aI1
aI12
aI10
aI20
aI9
aI14
aI3
aI11
aI17
aI4
aI2
aI15
aI13
aI5
aI19
aI16
aI18
aa(lp20
I7
aI8
aI6
aI1
aI12
aI10
aI20
aI9
aI14
aI3
aI11
aI17
aI4
aI2
aI15
aI13
aI5
aI19
aI16
aI18
aa.(lp0
(lp1
I14
aa(lp2
I2
aI14
aa(lp3
I13
aI2
aI14
aa(lp4
I7
aI13
aI2
aI14
aa(lp5
I1
aI7
aI13
aI2
aI14
aa(lp6
I12
aI1
aI7
aI13
aI2
aI14
aa(lp7
I18
aI12
aI1
aI7
aI13
aI2
aI14
aa(lp8
I9
aI18
aI12
aI1
aI7
aI13
aI2
aI14
aa(lp9
I10
aI9
aI18
aI12
aI1
aI7
aI13
aI2
aI14
aa(lp10
I8
aI10
aI9
aI18
aI12
aI1
aI7
aI13
aI2
aI14
aa(lp11
I16
aI8
aI10
aI9
aI18
aI12
aI1
aI7
aI13
aI2
aI14
aa(lp12
I17
aI16
aI8
aI10
aI9
aI18
aI12
aI1
aI7
aI13
aI2
aI14
aa(lp13
I4
aI17
aI16
aI8
aI10
aI9
aI18
aI12
aI1
aI7
aI13
aI2
aI14
aa(lp14
I6
aI4
aI17
aI16
aI8
aI10
aI9
aI18
aI12
aI1
aI7
aI13
aI2
aI14
aa(lp15
I11
aI6
aI4
aI17
aI16
aI8
aI10
aI9
aI18
aI12
aI1
aI7
aI13
aI2
aI14
aa(lp16
I5
aI11
aI6
aI4
aI17
aI16
aI8
aI10
aI9
aI18
aI12
aI1
aI7
aI13
aI2
aI14
aa(lp17
I3
aI5
aI11
aI6
aI4
aI17
aI16
aI8
aI10
aI9
aI18
aI12
aI1
aI7
aI13
aI2
aI14
aa(lp18
I19
aI3
aI5
aI11
aI6
aI4
aI17
aI16
aI8
aI10
aI9
aI18
aI12
aI1
aI7
aI13
aI2
aI14
aa(lp19
I15
aI19
aI3
aI5
aI11
aI6
aI4
aI17
aI16
aI8
aI10
aI9
aI18
aI12
aI1
aI7
aI13
aI2
aI14
aa(lp20
I20
aI15
aI19
aI3
aI5
aI11
aI6
aI4
aI17
aI16
aI8
aI10
aI9
aI18
aI12
aI1
aI7
aI13
aI2
aI14
aa.(lp0
(lp1
I8
aa(lp2
I13
aI8
aa(lp3
I17
aI13
aI8
aa(lp4
I7
aI17
aI13
aI8
aa(lp5
I15
aI7
aI17
aI13
aI8
aa(lp6
I12
aI15
aI7
aI17
aI13
aI8
aa(lp7
I9
aI12
aI15
aI7
aI17
aI13
aI8
aa(lp8
I16
aI9
aI12
aI15
aI7
aI17
aI13
aI8
aa(lp9
I18
aI16
aI9
aI12
aI15
aI7
aI17
aI13
aI8
aa(lp10
I1
aI18
aI16
aI9
aI12
aI15
aI7
aI17
aI13
aI8
aa(lp11
I2
aI1
aI18
aI16
aI9
aI12
aI15
aI7
aI17
aI13
aI8
aa(lp12
I5
aI2
aI1
aI18
aI16
aI9
aI12
aI15
aI7
aI17
aI13
aI8
aa(lp13
I6
aI5
aI2
aI1
aI18
aI16
aI9
aI12
aI15
aI7
aI17
aI13
aI8
aa(lp14
I19
aI6
aI5
aI2
aI1
aI18
aI16
aI9
aI12
aI15
aI7
aI17
aI13
aI8
aa(lp15
I14
aI19
aI6
aI5
aI2
aI1
aI18
aI16
aI9
aI12
aI15
aI7
aI17
aI13
aI8
aa(lp16
I20
aI14
aI19
aI6
aI5
aI2
aI1
aI18
aI16
aI9
aI12
aI15
aI7
aI17
aI13
aI8
aa(lp17
I3
aI20
aI14
aI19
aI6
aI5
aI2
aI1
aI18
aI16
aI9
aI12
aI15
aI7
aI17
aI13
aI8
aa(lp18
I11
aI3
aI20
aI14
aI19
aI6
aI5
aI2
aI1
aI18
aI16
aI9
aI12
aI15
aI7
aI17
aI13
aI8
aa(lp19
I4
aI11
aI3
aI20
aI14
aI19
aI6
aI5
aI2
aI1
aI18
aI16
aI9
aI12
aI15
aI7
aI17
aI13
aI8
aa(lp20
I10
aI4
aI11
aI3
aI20
aI14
aI19
aI6
aI5
aI2
aI1
aI18
aI16
aI9
aI12
aI15
aI7
aI17
aI13
aI8
aa.(lp0
(lp1
I1
aa(lp2
I1
aI3
aa(lp3
I1
aI3
aI0
aa(lp4
I1
aI3
aI0
aI4
aa(lp5
I1
aI3
aI0
aI4
aI15
aa(lp6
I1
aI3
aI0
aI4
aI15
aI2
aa(lp7
I1
aI3
aI0
aI4
aI15
aI2
aI17
aa(lp8
I1
aI3
aI0
aI4
aI15
aI2
aI17
aI7
aa(lp9
I1
aI3
aI0
aI4
aI15
aI2
aI17
aI7
aI46
aa(lp10
I1
aI3
aI0
aI4
aI15
aI2
aI17
aI7
aI46
aI6
aa(lp11
I1
aI3
aI0
aI4
aI15
aI2
aI17
aI7
aI46
aI6
aI10
aa(lp12
I1
aI3
aI0
aI4
aI15
aI2
aI17
aI7
aI46
aI6
aI10
aI40
aa(lp13
I1
aI3
aI0
aI4
aI15
aI2
aI17
aI7
aI46
aI6
aI10
aI40
aI13
aa(lp14
I1
aI3
aI0
aI4
aI15
aI2
aI17
aI7
aI46
aI6
aI10
aI40
aI13
aI16
aa(lp15
I1
aI3
aI0
aI4
aI15
aI2
aI17
aI7
aI46
aI6
aI10
aI40
aI13
aI16
aI30
aa(lp16
I1
aI3
aI0
aI4
aI15
aI2
aI17
aI7
aI46
aI6
aI10
aI40
aI13
aI16
aI30
aI5
aa(lp17
I1
aI3
aI0
aI4
aI15
aI2
aI17
aI7
aI46
aI6
aI10
aI40
aI13
aI16
aI30
aI5
aI18
aa(lp18
I1
aI3
aI0
aI4
aI15
aI2
aI17
aI7
aI46
aI6
aI10
aI40
aI13
aI16
aI30
aI5
aI18
aI19
aa(lp19
I1
aI3
aI0
aI4
aI15
aI2
aI17
aI7
aI46
aI6
aI10
aI40
aI13
aI16
aI30
aI5
aI18
aI19
aI26
aa(lp20
I1
aI3
aI0
aI4
aI15
aI2
aI17
aI7
aI46
aI6
aI10
aI40
aI13
aI16
aI30
aI5
aI18
aI19
aI26
aI41
aa.