(lp0
(lp1
I7
aa(lp2
I3
aI7
aa(lp3
I6
aI3
aI7
aa(lp4
I4
aI6
aI3
aI7
aa(lp5
I9
aI4
aI6
aI3
aI7
aa(lp6
I5
aI9
aI4
aI6
aI3
aI7
aa(lp7
I1
aI5
aI9
aI4
aI6
aI3
aI7
aa(lp8
I10
aI1
aI5
aI9
aI4
aI6
aI3
aI7
aa(lp9
I8
aI10
aI1
aI5
aI9
aI4
aI6
aI3
aI7
aa(lp10
I2
aI8
aI10
aI1
aI5
aI9
aI4
aI6
aI3
aI7
aa.(lp0
(lp1
I10
aa(lp2
I8
aI10
aa(lp3
I3
aI8
aI10
aa(lp4
I4
aI3
aI8
aI10
aa(lp5
I7
aI4
aI3
aI8
aI10
aa(lp6
I1
aI7
aI4
aI3
aI8
aI10
aa(lp7
I2
aI1
aI7
aI4
aI3
aI8
aI10
aa(lp8
I5
aI2
aI1
aI7
aI4
aI3
aI8
aI10
aa(lp9
I9
aI5
aI2
aI1
aI7
aI4
aI3
aI8
aI10
aa(lp10
I6
aI9
aI5
aI2
aI1
aI7
aI4
aI3
aI8
aI10
aa.(lp0
(lp1
I1
aa(lp2
I6
aI1
aa(lp3
I2
aI6
aI1
aa(lp4
I3
aI2
aI6
aI1
aa(lp5
I5
aI3
aI2
aI6
aI1
aa(lp6
I4
aI5
aI3
aI2
aI6
aI1
aa(lp7
I9
aI4
aI5
aI3
aI2
aI6
aI1
aa(lp8
I7
aI9
aI4
aI5
aI3
aI2
aI6
aI1
aa(lp9
I10
aI7
aI9
aI4
aI5
aI3
aI2
aI6
aI1
aa(lp10
I8
aI10
aI7
aI9
aI4
aI5
aI3
aI2
aI6
aI1
aa.(lp0
(lp1
I7
aa(lp2
I10
aI7
aa(lp3
I3
aI10
aI7
aa(lp4
I9
aI3
aI10
aI7
aa(lp5
I2
aI9
aI3
aI10
aI7
aa(lp6
I5
aI2
aI9
aI3
aI10
aI7
aa(lp7
I1
aI5
aI2
aI9
aI3
aI10
aI7
aa(lp8
I4
aI1
aI5
aI2
aI9
aI3
aI10
aI7
aa(lp9
I8
aI4
aI1
aI5
aI2
aI9
aI3
aI10
aI7
aa(lp10
I6
aI8
aI4
aI1
aI5
aI2
aI9
aI3
aI10
aI7
aa.(lp0
(lp1
I7
aa(lp2
I4
aI7
aa(lp3
I2
aI4
aI7
aa(lp4
I9
aI2
aI4
aI7
aa(lp5
I10
aI9
aI2
aI4
aI7
aa(lp6
I6
aI10
aI9
aI2
aI4
aI7
aa(lp7
I5
aI6
aI10
aI9
aI2
aI4
aI7
aa(lp8
I3
aI5
aI6
aI10
aI9
aI2
aI4
aI7
aa(lp9
I8
aI3
aI5
aI6
aI10
aI9
aI2
aI4
aI7
aa(lp10
I1
aI8
aI3
aI5
aI6
aI10
aI9
aI2
aI4
aI7
aa.(lp0
(lp1
I1
aa(lp2
I4
aI1
aa(lp3
I10
aI4
aI1
aa(lp4
I7
aI10
aI4
aI1
aa(lp5
I2
aI7
aI10
aI4
aI1
aa(lp6
I3
aI2
aI7
aI10
aI4
aI1
aa(lp7
I9
aI3
aI2
aI7
aI10
aI4
aI1
aa(lp8
I5
aI9
aI3
aI2
aI7
aI10
aI4
aI1
aa(lp9
I8
aI5
aI9
aI3
aI2
aI7
aI10
aI4
aI1
aa(lp10
I6
aI8
aI5
aI9
aI3
aI2
aI7
aI10
aI4
aI1
aa.(lp0
(lp1
I9
aa(lp2
I10
aI9
aa(lp3
I6
aI10
aI9
aa(lp4
I3
aI6
aI10
aI9
aa(lp5
I8
aI3
aI6
aI10
aI9
aa(lp6
I7
aI8
aI3
aI6
aI10
aI9
aa(lp7
I5
aI7
aI8
aI3
aI6
aI10
aI9
aa(lp8
I2
aI5
aI7
aI8
aI3
aI6
aI10
aI9
aa(lp9
I4
aI2
aI5
aI7
aI8
aI3
aI6
aI10
aI9
aa(lp10
I1
aI4
aI2
aI5
aI7
aI8
aI3
aI6
aI10
aI9
aa.(lp0
(lp1
I7
aa(lp2
I10
aI7
aa(lp3
I1
aI10
aI7
aa(lp4
I5
aI1
aI10
aI7
aa(lp5
I6
aI5
aI1
aI10
aI7
aa(lp6
I3
aI6
aI5
aI1
aI10
aI7
aa(lp7
I9
aI3
aI6
aI5
aI1
aI10
aI7
aa(lp8
I2
aI9
aI3
aI6
aI5
aI1
aI10
aI7
aa(lp9
I4
aI2
aI9
aI3
aI6
aI5
aI1
aI10
aI7
aa(lp10
I8
aI4
aI2
aI9
aI3
aI6
aI5
aI1
aI10
aI7
aa.(lp0
(lp1
I1
aa(lp2
I7
aI1
aa(lp3
I6
aI7
aI1
aa(lp4
I5
aI6
aI7
aI1
aa(lp5
I10
aI5
aI6
aI7
aI1
aa(lp6
I3
aI10
aI5
aI6
aI7
aI1
aa(lp7
I8
aI3
aI10
aI5
aI6
aI7
aI1
aa(lp8
I2
aI8
aI3
aI10
aI5
aI6
aI7
aI1
aa(lp9
I4
aI2
aI8
aI3
aI10
aI5
aI6
aI7
aI1
aa(lp10
I9
aI4
aI2
aI8
aI3
aI10
aI5
aI6
aI7
aI1
aa.(lp0
(lp1
I10
aa(lp2
I2
aI10
aa(lp3
I6
aI2
aI10
aa(lp4
I1
aI6
aI2
aI10
aa(lp5
I3
aI1
aI6
aI2
aI10
aa(lp6
I8
aI3
aI1
aI6
aI2
aI10
aa(lp7
I9
aI8
aI3
aI1
aI6
aI2
aI10
aa(lp8
I4
aI9
aI8
aI3
aI1
aI6
aI2
aI10
aa(lp9
I7
aI4
aI9
aI8
aI3
aI1
aI6
aI2
aI10
aa(lp10
I5
aI7
aI4
aI9
aI8
aI3
aI1
aI6
aI2
aI10
aa.(lp0
(lp1
I3
aa(lp2
I8
aI3
aa(lp3
I5
aI8
aI3
aa(lp4
I1
aI5
aI8
aI3
aa(lp5
I9
aI1
aI5
aI8
aI3
aa(lp6
I4
aI9
aI1
aI5
aI8
aI3
aa(lp7
I7
aI4
aI9
aI1
aI5
aI8
aI3
aa(lp8
I10
aI7
aI4
aI9
aI1
aI5
aI8
aI3
aa(lp9
I2
aI10
aI7
aI4
aI9
aI1
aI5
aI8
aI3
aa(lp10
I6
aI2
aI10
aI7
aI4
aI9
aI1
aI5
aI8
aI3
aa.(lp0
(lp1
I6
aa(lp2
I5
aI6
aa(lp3
I10
aI5
aI6
aa(lp4
I9
aI10
aI5
aI6
aa(lp5
I4
aI9
aI10
aI5
aI6
aa(lp6
I3
aI4
aI9
aI10
aI5
aI6
aa(lp7
I2
aI3
aI4
aI9
aI10
aI5
aI6
aa(lp8
I7
aI2
aI3
aI4
aI9
aI10
aI5
aI6
aa(lp9
I1
aI7
aI2
aI3
aI4
aI9
aI10
aI5
aI6
aa(lp10
I8
aI1
aI7
aI2
aI3
aI4
aI9
aI10
aI5
aI6
aa.(lp0
(lp1
I1
aa(lp2
I1
aI7
aa(lp3
I1
aI7
aI3
aa(lp4
I1
aI7
aI3
aI4
aa(lp5
I1
aI7
aI3
aI4
aI19
aa(lp6
I1
aI7
aI3
aI4
aI19
aI5
aa(lp7
I1
aI7
aI3
aI4
aI19
aI5
aI25
aa(lp8
I1
aI7
aI3
aI4
aI19
aI5
aI25
aI6
aa(lp9
I1
aI7
aI3
aI4
aI19
aI5
aI25
aI6
aI8
aa(lp10
I1
aI7
aI3
aI4
aI19
aI5
aI25
aI6
aI8
aI21
aa.