(lp0
ccopy_reg
_reconstructor
p1
(cnetworkx.classes.multidigraph
MultiDiGraph
p2
c__builtin__
object
p3
Ntp4
Rp5
(dp6
S'node'
p7
(dp8
I0
(dp9
sI1
(dp10
sI2
(dp11
sI3
(dp12
sI4
(dp13
sI5
(dp14
sI6
(dp15
sI7
(dp16
sI8
(dp17
sI9
(dp18
sI10
(dp19
sI11
(dp20
sI12
(dp21
sI13
(dp22
sI14
(dp23
sI15
(dp24
sI16
(dp25
sI17
(dp26
sI18
(dp27
sI19
(dp28
sI20
(dp29
sI21
(dp30
sI22
(dp31
sI23
(dp32
sI24
(dp33
sI25
(dp34
sI26
(dp35
sI27
(dp36
sI28
(dp37
sI29
(dp38
ssS'graph'
p39
(dp40
S'name'
p41
S'my BA graph, directed and muliple(30,1)'
p42
ssS'succ'
p43
(dp44
I0
(dp45
I11
(dp46
I0
(dp47
ssI5
(dp48
I0
(dp49
sssI1
(dp50
I0
(dp51
I0
(dp52
ssI8
(dp53
I0
(dp54
ssI2
(dp55
I0
(dp56
ssI6
(dp57
I0
(dp58
sssI2
(dp59
I3
(dp60
I0
(dp61
ssI9
(dp62
I0
(dp63
ssI12
(dp64
I0
(dp65
ssI14
(dp66
I0
(dp67
ssI18
(dp68
I0
(dp69
ssI23
(dp70
I0
(dp71
ssI29
(dp72
I0
(dp73
sssI3
(dp74
I2
(dp75
I0
(dp76
ssI26
(dp77
I0
(dp78
sssI4
(dp79
I0
(dp80
I0
(dp81
ssI27
(dp82
I0
(dp83
sssI5
(dp84
I15
(dp85
I0
(dp86
sssI6
(dp87
I1
(dp88
I0
(dp89
sssI7
(dp90
I0
(dp91
I0
(dp92
sssI8
(dp93
sI9
(dp94
I2
(dp95
I0
(dp96
ssI20
(dp97
I0
(dp98
sssI10
(dp99
I2
(dp100
I0
(dp101
sssI11
(dp102
I17
(dp103
I0
(dp104
sssI12
(dp105
I2
(dp106
I0
(dp107
sssI13
(dp108
I0
(dp109
I0
(dp110
sssI14
(dp111
I21
(dp112
I0
(dp113
sssI15
(dp114
I5
(dp115
I0
(dp116
sssI16
(dp117
I1
(dp118
I0
(dp119
sssI17
(dp120
sI18
(dp121
I2
(dp122
I0
(dp123
sssI19
(dp124
I18
(dp125
I0
(dp126
sssI20
(dp127
sI21
(dp128
I14
(dp129
I0
(dp130
sssI22
(dp131
I24
(dp132
I0
(dp133
ssI19
(dp134
I0
(dp135
sssI23
(dp136
sI24
(dp137
I22
(dp138
I0
(dp139
sssI25
(dp140
I13
(dp141
I0
(dp142
sssI26
(dp143
sI27
(dp144
I4
(dp145
I0
(dp146
sssI28
(dp147
I5
(dp148
I0
(dp149
sssI29
(dp150
ssS'edge'
p151
g44
sS'pred'
p152
(dp153
I0
(dp154
I1
g51
sI4
g80
sI13
g109
sI7
g91
ssI1
(dp155
I16
g118
sI6
g88
ssI2
(dp156
I1
g55
sI3
g75
sI9
g95
sI10
g100
sI12
g106
sI18
g122
ssI3
(dp157
I2
g60
ssI4
(dp158
I27
g145
ssI5
(dp159
I0
g48
sI28
g148
sI15
g115
ssI6
(dp160
I1
g57
ssI7
(dp161
sI8
(dp162
I1
g53
ssI9
(dp163
I2
g62
ssI10
(dp164
sI11
(dp165
I0
g46
ssI12
(dp166
I2
g64
ssI13
(dp167
I25
g141
ssI14
(dp168
I2
g66
sI21
g129
ssI15
(dp169
I5
g85
ssI16
(dp170
sI17
(dp171
I11
g103
ssI18
(dp172
I2
g68
sI19
g125
ssI19
(dp173
I22
g134
ssI20
(dp174
I9
g97
ssI21
(dp175
I14
g112
ssI22
(dp176
I24
g138
ssI23
(dp177
I2
g70
ssI24
(dp178
I22
g132
ssI25
(dp179
sI26
(dp180
I3
g77
ssI27
(dp181
I4
g82
ssI28
(dp182
sI29
(dp183
I2
g72
sssS'adj'
p184
g44
sbag1
(g2
g3
Ntp185
Rp186
(dp187
g7
(dp188
I0
(dp189
sI1
(dp190
sI2
(dp191
sI3
(dp192
sI4
(dp193
sI5
(dp194
sI6
(dp195
sI7
(dp196
sI8
(dp197
sI9
(dp198
sI10
(dp199
sI11
(dp200
sI12
(dp201
sI13
(dp202
sI14
(dp203
sI15
(dp204
sI16
(dp205
sI17
(dp206
sI18
(dp207
sI19
(dp208
sI20
(dp209
sI21
(dp210
sI22
(dp211
sI23
(dp212
sI24
(dp213
sI25
(dp214
sI26
(dp215
sI27
(dp216
sI28
(dp217
sI29
(dp218
ssg39
(dp219
g41
S'complete_graph(30)'
p220
ssg43
(dp221
I0
(dp222
I1
(dp223
I0
(dp224
ssI2
(dp225
I0
(dp226
ssI3
(dp227
I0
(dp228
ssI4
(dp229
I0
(dp230
ssI5
(dp231
I0
(dp232
ssI6
(dp233
I0
(dp234
ssI7
(dp235
I0
(dp236
ssI8
(dp237
I0
(dp238
ssI9
(dp239
I0
(dp240
ssI10
(dp241
I0
(dp242
ssI11
(dp243
I0
(dp244
ssI12
(dp245
I0
(dp246
ssI13
(dp247
I0
(dp248
ssI14
(dp249
I0
(dp250
ssI15
(dp251
I0
(dp252
ssI16
(dp253
I0
(dp254
ssI17
(dp255
I0
(dp256
ssI18
(dp257
I0
(dp258
ssI19
(dp259
I0
(dp260
ssI20
(dp261
I0
(dp262
ssI21
(dp263
I0
(dp264
ssI22
(dp265
I0
(dp266
ssI23
(dp267
I0
(dp268
ssI24
(dp269
I0
(dp270
ssI25
(dp271
I0
(dp272
ssI26
(dp273
I0
(dp274
ssI27
(dp275
I0
(dp276
ssI28
(dp277
I0
(dp278
ssI29
(dp279
I0
(dp280
sssI1
(dp281
I0
(dp282
I0
(dp283
ssI2
(dp284
I0
(dp285
ssI3
(dp286
I0
(dp287
ssI4
(dp288
I0
(dp289
ssI5
(dp290
I0
(dp291
ssI6
(dp292
I0
(dp293
ssI7
(dp294
I0
(dp295
ssI8
(dp296
I0
(dp297
ssI9
(dp298
I0
(dp299
ssI10
(dp300
I0
(dp301
ssI11
(dp302
I0
(dp303
ssI12
(dp304
I0
(dp305
ssI13
(dp306
I0
(dp307
ssI14
(dp308
I0
(dp309
ssI15
(dp310
I0
(dp311
ssI16
(dp312
I0
(dp313
ssI17
(dp314
I0
(dp315
ssI18
(dp316
I0
(dp317
ssI19
(dp318
I0
(dp319
ssI20
(dp320
I0
(dp321
ssI21
(dp322
I0
(dp323
ssI22
(dp324
I0
(dp325
ssI23
(dp326
I0
(dp327
ssI24
(dp328
I0
(dp329
ssI25
(dp330
I0
(dp331
ssI26
(dp332
I0
(dp333
ssI27
(dp334
I0
(dp335
ssI28
(dp336
I0
(dp337
ssI29
(dp338
I0
(dp339
sssI2
(dp340
I0
(dp341
I0
(dp342
ssI1
(dp343
I0
(dp344
ssI3
(dp345
I0
(dp346
ssI4
(dp347
I0
(dp348
ssI5
(dp349
I0
(dp350
ssI6
(dp351
I0
(dp352
ssI7
(dp353
I0
(dp354
ssI8
(dp355
I0
(dp356
ssI9
(dp357
I0
(dp358
ssI10
(dp359
I0
(dp360
ssI11
(dp361
I0
(dp362
ssI12
(dp363
I0
(dp364
ssI13
(dp365
I0
(dp366
ssI14
(dp367
I0
(dp368
ssI15
(dp369
I0
(dp370
ssI16
(dp371
I0
(dp372
ssI17
(dp373
I0
(dp374
ssI18
(dp375
I0
(dp376
ssI19
(dp377
I0
(dp378
ssI20
(dp379
I0
(dp380
ssI21
(dp381
I0
(dp382
ssI22
(dp383
I0
(dp384
ssI23
(dp385
I0
(dp386
ssI24
(dp387
I0
(dp388
ssI25
(dp389
I0
(dp390
ssI26
(dp391
I0
(dp392
ssI27
(dp393
I0
(dp394
ssI28
(dp395
I0
(dp396
ssI29
(dp397
I0
(dp398
sssI3
(dp399
I0
(dp400
I0
(dp401
ssI1
(dp402
I0
(dp403
ssI2
(dp404
I0
(dp405
ssI4
(dp406
I0
(dp407
ssI5
(dp408
I0
(dp409
ssI6
(dp410
I0
(dp411
ssI7
(dp412
I0
(dp413
ssI8
(dp414
I0
(dp415
ssI9
(dp416
I0
(dp417
ssI10
(dp418
I0
(dp419
ssI11
(dp420
I0
(dp421
ssI12
(dp422
I0
(dp423
ssI13
(dp424
I0
(dp425
ssI14
(dp426
I0
(dp427
ssI15
(dp428
I0
(dp429
ssI16
(dp430
I0
(dp431
ssI17
(dp432
I0
(dp433
ssI18
(dp434
I0
(dp435
ssI19
(dp436
I0
(dp437
ssI20
(dp438
I0
(dp439
ssI21
(dp440
I0
(dp441
ssI22
(dp442
I0
(dp443
ssI23
(dp444
I0
(dp445
ssI24
(dp446
I0
(dp447
ssI25
(dp448
I0
(dp449
ssI26
(dp450
I0
(dp451
ssI27
(dp452
I0
(dp453
ssI28
(dp454
I0
(dp455
ssI29
(dp456
I0
(dp457
sssI4
(dp458
I0
(dp459
I0
(dp460
ssI1
(dp461
I0
(dp462
ssI2
(dp463
I0
(dp464
ssI3
(dp465
I0
(dp466
ssI5
(dp467
I0
(dp468
ssI6
(dp469
I0
(dp470
ssI7
(dp471
I0
(dp472
ssI8
(dp473
I0
(dp474
ssI9
(dp475
I0
(dp476
ssI10
(dp477
I0
(dp478
ssI11
(dp479
I0
(dp480
ssI12
(dp481
I0
(dp482
ssI13
(dp483
I0
(dp484
ssI14
(dp485
I0
(dp486
ssI15
(dp487
I0
(dp488
ssI16
(dp489
I0
(dp490
ssI17
(dp491
I0
(dp492
ssI18
(dp493
I0
(dp494
ssI19
(dp495
I0
(dp496
ssI20
(dp497
I0
(dp498
ssI21
(dp499
I0
(dp500
ssI22
(dp501
I0
(dp502
ssI23
(dp503
I0
(dp504
ssI24
(dp505
I0
(dp506
ssI25
(dp507
I0
(dp508
ssI26
(dp509
I0
(dp510
ssI27
(dp511
I0
(dp512
ssI28
(dp513
I0
(dp514
ssI29
(dp515
I0
(dp516
sssI5
(dp517
I0
(dp518
I0
(dp519
ssI1
(dp520
I0
(dp521
ssI2
(dp522
I0
(dp523
ssI3
(dp524
I0
(dp525
ssI4
(dp526
I0
(dp527
ssI6
(dp528
I0
(dp529
ssI7
(dp530
I0
(dp531
ssI8
(dp532
I0
(dp533
ssI9
(dp534
I0
(dp535
ssI10
(dp536
I0
(dp537
ssI11
(dp538
I0
(dp539
ssI12
(dp540
I0
(dp541
ssI13
(dp542
I0
(dp543
ssI14
(dp544
I0
(dp545
ssI15
(dp546
I0
(dp547
ssI16
(dp548
I0
(dp549
ssI17
(dp550
I0
(dp551
ssI18
(dp552
I0
(dp553
ssI19
(dp554
I0
(dp555
ssI20
(dp556
I0
(dp557
ssI21
(dp558
I0
(dp559
ssI22
(dp560
I0
(dp561
ssI23
(dp562
I0
(dp563
ssI24
(dp564
I0
(dp565
ssI25
(dp566
I0
(dp567
ssI26
(dp568
I0
(dp569
ssI27
(dp570
I0
(dp571
ssI28
(dp572
I0
(dp573
ssI29
(dp574
I0
(dp575
sssI6
(dp576
I0
(dp577
I0
(dp578
ssI1
(dp579
I0
(dp580
ssI2
(dp581
I0
(dp582
ssI3
(dp583
I0
(dp584
ssI4
(dp585
I0
(dp586
ssI5
(dp587
I0
(dp588
ssI7
(dp589
I0
(dp590
ssI8
(dp591
I0
(dp592
ssI9
(dp593
I0
(dp594
ssI10
(dp595
I0
(dp596
ssI11
(dp597
I0
(dp598
ssI12
(dp599
I0
(dp600
ssI13
(dp601
I0
(dp602
ssI14
(dp603
I0
(dp604
ssI15
(dp605
I0
(dp606
ssI16
(dp607
I0
(dp608
ssI17
(dp609
I0
(dp610
ssI18
(dp611
I0
(dp612
ssI19
(dp613
I0
(dp614
ssI20
(dp615
I0
(dp616
ssI21
(dp617
I0
(dp618
ssI22
(dp619
I0
(dp620
ssI23
(dp621
I0
(dp622
ssI24
(dp623
I0
(dp624
ssI25
(dp625
I0
(dp626
ssI26
(dp627
I0
(dp628
ssI27
(dp629
I0
(dp630
ssI28
(dp631
I0
(dp632
ssI29
(dp633
I0
(dp634
sssI7
(dp635
I0
(dp636
I0
(dp637
ssI1
(dp638
I0
(dp639
ssI2
(dp640
I0
(dp641
ssI3
(dp642
I0
(dp643
ssI4
(dp644
I0
(dp645
ssI5
(dp646
I0
(dp647
ssI6
(dp648
I0
(dp649
ssI8
(dp650
I0
(dp651
ssI9
(dp652
I0
(dp653
ssI10
(dp654
I0
(dp655
ssI11
(dp656
I0
(dp657
ssI12
(dp658
I0
(dp659
ssI13
(dp660
I0
(dp661
ssI14
(dp662
I0
(dp663
ssI15
(dp664
I0
(dp665
ssI16
(dp666
I0
(dp667
ssI17
(dp668
I0
(dp669
ssI18
(dp670
I0
(dp671
ssI19
(dp672
I0
(dp673
ssI20
(dp674
I0
(dp675
ssI21
(dp676
I0
(dp677
ssI22
(dp678
I0
(dp679
ssI23
(dp680
I0
(dp681
ssI24
(dp682
I0
(dp683
ssI25
(dp684
I0
(dp685
ssI26
(dp686
I0
(dp687
ssI27
(dp688
I0
(dp689
ssI28
(dp690
I0
(dp691
ssI29
(dp692
I0
(dp693
sssI8
(dp694
I0
(dp695
I0
(dp696
ssI1
(dp697
I0
(dp698
ssI2
(dp699
I0
(dp700
ssI3
(dp701
I0
(dp702
ssI4
(dp703
I0
(dp704
ssI5
(dp705
I0
(dp706
ssI6
(dp707
I0
(dp708
ssI7
(dp709
I0
(dp710
ssI9
(dp711
I0
(dp712
ssI10
(dp713
I0
(dp714
ssI11
(dp715
I0
(dp716
ssI12
(dp717
I0
(dp718
ssI13
(dp719
I0
(dp720
ssI14
(dp721
I0
(dp722
ssI15
(dp723
I0
(dp724
ssI16
(dp725
I0
(dp726
ssI17
(dp727
I0
(dp728
ssI18
(dp729
I0
(dp730
ssI19
(dp731
I0
(dp732
ssI20
(dp733
I0
(dp734
ssI21
(dp735
I0
(dp736
ssI22
(dp737
I0
(dp738
ssI23
(dp739
I0
(dp740
ssI24
(dp741
I0
(dp742
ssI25
(dp743
I0
(dp744
ssI26
(dp745
I0
(dp746
ssI27
(dp747
I0
(dp748
ssI28
(dp749
I0
(dp750
ssI29
(dp751
I0
(dp752
sssI9
(dp753
I0
(dp754
I0
(dp755
ssI1
(dp756
I0
(dp757
ssI2
(dp758
I0
(dp759
ssI3
(dp760
I0
(dp761
ssI4
(dp762
I0
(dp763
ssI5
(dp764
I0
(dp765
ssI6
(dp766
I0
(dp767
ssI7
(dp768
I0
(dp769
ssI8
(dp770
I0
(dp771
ssI10
(dp772
I0
(dp773
ssI11
(dp774
I0
(dp775
ssI12
(dp776
I0
(dp777
ssI13
(dp778
I0
(dp779
ssI14
(dp780
I0
(dp781
ssI15
(dp782
I0
(dp783
ssI16
(dp784
I0
(dp785
ssI17
(dp786
I0
(dp787
ssI18
(dp788
I0
(dp789
ssI19
(dp790
I0
(dp791
ssI20
(dp792
I0
(dp793
ssI21
(dp794
I0
(dp795
ssI22
(dp796
I0
(dp797
ssI23
(dp798
I0
(dp799
ssI24
(dp800
I0
(dp801
ssI25
(dp802
I0
(dp803
ssI26
(dp804
I0
(dp805
ssI27
(dp806
I0
(dp807
ssI28
(dp808
I0
(dp809
ssI29
(dp810
I0
(dp811
sssI10
(dp812
I0
(dp813
I0
(dp814
ssI1
(dp815
I0
(dp816
ssI2
(dp817
I0
(dp818
ssI3
(dp819
I0
(dp820
ssI4
(dp821
I0
(dp822
ssI5
(dp823
I0
(dp824
ssI6
(dp825
I0
(dp826
ssI7
(dp827
I0
(dp828
ssI8
(dp829
I0
(dp830
ssI9
(dp831
I0
(dp832
ssI11
(dp833
I0
(dp834
ssI12
(dp835
I0
(dp836
ssI13
(dp837
I0
(dp838
ssI14
(dp839
I0
(dp840
ssI15
(dp841
I0
(dp842
ssI16
(dp843
I0
(dp844
ssI17
(dp845
I0
(dp846
ssI18
(dp847
I0
(dp848
ssI19
(dp849
I0
(dp850
ssI20
(dp851
I0
(dp852
ssI21
(dp853
I0
(dp854
ssI22
(dp855
I0
(dp856
ssI23
(dp857
I0
(dp858
ssI24
(dp859
I0
(dp860
ssI25
(dp861
I0
(dp862
ssI26
(dp863
I0
(dp864
ssI27
(dp865
I0
(dp866
ssI28
(dp867
I0
(dp868
ssI29
(dp869
I0
(dp870
sssI11
(dp871
I0
(dp872
I0
(dp873
ssI1
(dp874
I0
(dp875
ssI2
(dp876
I0
(dp877
ssI3
(dp878
I0
(dp879
ssI4
(dp880
I0
(dp881
ssI5
(dp882
I0
(dp883
ssI6
(dp884
I0
(dp885
ssI7
(dp886
I0
(dp887
ssI8
(dp888
I0
(dp889
ssI9
(dp890
I0
(dp891
ssI10
(dp892
I0
(dp893
ssI12
(dp894
I0
(dp895
ssI13
(dp896
I0
(dp897
ssI14
(dp898
I0
(dp899
ssI15
(dp900
I0
(dp901
ssI16
(dp902
I0
(dp903
ssI17
(dp904
I0
(dp905
ssI18
(dp906
I0
(dp907
ssI19
(dp908
I0
(dp909
ssI20
(dp910
I0
(dp911
ssI21
(dp912
I0
(dp913
ssI22
(dp914
I0
(dp915
ssI23
(dp916
I0
(dp917
ssI24
(dp918
I0
(dp919
ssI25
(dp920
I0
(dp921
ssI26
(dp922
I0
(dp923
ssI27
(dp924
I0
(dp925
ssI28
(dp926
I0
(dp927
ssI29
(dp928
I0
(dp929
sssI12
(dp930
I0
(dp931
I0
(dp932
ssI1
(dp933
I0
(dp934
ssI2
(dp935
I0
(dp936
ssI3
(dp937
I0
(dp938
ssI4
(dp939
I0
(dp940
ssI5
(dp941
I0
(dp942
ssI6
(dp943
I0
(dp944
ssI7
(dp945
I0
(dp946
ssI8
(dp947
I0
(dp948
ssI9
(dp949
I0
(dp950
ssI10
(dp951
I0
(dp952
ssI11
(dp953
I0
(dp954
ssI13
(dp955
I0
(dp956
ssI14
(dp957
I0
(dp958
ssI15
(dp959
I0
(dp960
ssI16
(dp961
I0
(dp962
ssI17
(dp963
I0
(dp964
ssI18
(dp965
I0
(dp966
ssI19
(dp967
I0
(dp968
ssI20
(dp969
I0
(dp970
ssI21
(dp971
I0
(dp972
ssI22
(dp973
I0
(dp974
ssI23
(dp975
I0
(dp976
ssI24
(dp977
I0
(dp978
ssI25
(dp979
I0
(dp980
ssI26
(dp981
I0
(dp982
ssI27
(dp983
I0
(dp984
ssI28
(dp985
I0
(dp986
ssI29
(dp987
I0
(dp988
sssI13
(dp989
I0
(dp990
I0
(dp991
ssI1
(dp992
I0
(dp993
ssI2
(dp994
I0
(dp995
ssI3
(dp996
I0
(dp997
ssI4
(dp998
I0
(dp999
ssI5
(dp1000
I0
(dp1001
ssI6
(dp1002
I0
(dp1003
ssI7
(dp1004
I0
(dp1005
ssI8
(dp1006
I0
(dp1007
ssI9
(dp1008
I0
(dp1009
ssI10
(dp1010
I0
(dp1011
ssI11
(dp1012
I0
(dp1013
ssI12
(dp1014
I0
(dp1015
ssI14
(dp1016
I0
(dp1017
ssI15
(dp1018
I0
(dp1019
ssI16
(dp1020
I0
(dp1021
ssI17
(dp1022
I0
(dp1023
ssI18
(dp1024
I0
(dp1025
ssI19
(dp1026
I0
(dp1027
ssI20
(dp1028
I0
(dp1029
ssI21
(dp1030
I0
(dp1031
ssI22
(dp1032
I0
(dp1033
ssI23
(dp1034
I0
(dp1035
ssI24
(dp1036
I0
(dp1037
ssI25
(dp1038
I0
(dp1039
ssI26
(dp1040
I0
(dp1041
ssI27
(dp1042
I0
(dp1043
ssI28
(dp1044
I0
(dp1045
ssI29
(dp1046
I0
(dp1047
sssI14
(dp1048
I0
(dp1049
I0
(dp1050
ssI1
(dp1051
I0
(dp1052
ssI2
(dp1053
I0
(dp1054
ssI3
(dp1055
I0
(dp1056
ssI4
(dp1057
I0
(dp1058
ssI5
(dp1059
I0
(dp1060
ssI6
(dp1061
I0
(dp1062
ssI7
(dp1063
I0
(dp1064
ssI8
(dp1065
I0
(dp1066
ssI9
(dp1067
I0
(dp1068
ssI10
(dp1069
I0
(dp1070
ssI11
(dp1071
I0
(dp1072
ssI12
(dp1073
I0
(dp1074
ssI13
(dp1075
I0
(dp1076
ssI15
(dp1077
I0
(dp1078
ssI16
(dp1079
I0
(dp1080
ssI17
(dp1081
I0
(dp1082
ssI18
(dp1083
I0
(dp1084
ssI19
(dp1085
I0
(dp1086
ssI20
(dp1087
I0
(dp1088
ssI21
(dp1089
I0
(dp1090
ssI22
(dp1091
I0
(dp1092
ssI23
(dp1093
I0
(dp1094
ssI24
(dp1095
I0
(dp1096
ssI25
(dp1097
I0
(dp1098
ssI26
(dp1099
I0
(dp1100
ssI27
(dp1101
I0
(dp1102
ssI28
(dp1103
I0
(dp1104
ssI29
(dp1105
I0
(dp1106
sssI15
(dp1107
I0
(dp1108
I0
(dp1109
ssI1
(dp1110
I0
(dp1111
ssI2
(dp1112
I0
(dp1113
ssI3
(dp1114
I0
(dp1115
ssI4
(dp1116
I0
(dp1117
ssI5
(dp1118
I0
(dp1119
ssI6
(dp1120
I0
(dp1121
ssI7
(dp1122
I0
(dp1123
ssI8
(dp1124
I0
(dp1125
ssI9
(dp1126
I0
(dp1127
ssI10
(dp1128
I0
(dp1129
ssI11
(dp1130
I0
(dp1131
ssI12
(dp1132
I0
(dp1133
ssI13
(dp1134
I0
(dp1135
ssI14
(dp1136
I0
(dp1137
ssI16
(dp1138
I0
(dp1139
ssI17
(dp1140
I0
(dp1141
ssI18
(dp1142
I0
(dp1143
ssI19
(dp1144
I0
(dp1145
ssI20
(dp1146
I0
(dp1147
ssI21
(dp1148
I0
(dp1149
ssI22
(dp1150
I0
(dp1151
ssI23
(dp1152
I0
(dp1153
ssI24
(dp1154
I0
(dp1155
ssI25
(dp1156
I0
(dp1157
ssI26
(dp1158
I0
(dp1159
ssI27
(dp1160
I0
(dp1161
ssI28
(dp1162
I0
(dp1163
ssI29
(dp1164
I0
(dp1165
sssI16
(dp1166
I0
(dp1167
I0
(dp1168
ssI1
(dp1169
I0
(dp1170
ssI2
(dp1171
I0
(dp1172
ssI3
(dp1173
I0
(dp1174
ssI4
(dp1175
I0
(dp1176
ssI5
(dp1177
I0
(dp1178
ssI6
(dp1179
I0
(dp1180
ssI7
(dp1181
I0
(dp1182
ssI8
(dp1183
I0
(dp1184
ssI9
(dp1185
I0
(dp1186
ssI10
(dp1187
I0
(dp1188
ssI11
(dp1189
I0
(dp1190
ssI12
(dp1191
I0
(dp1192
ssI13
(dp1193
I0
(dp1194
ssI14
(dp1195
I0
(dp1196
ssI15
(dp1197
I0
(dp1198
ssI17
(dp1199
I0
(dp1200
ssI18
(dp1201
I0
(dp1202
ssI19
(dp1203
I0
(dp1204
ssI20
(dp1205
I0
(dp1206
ssI21
(dp1207
I0
(dp1208
ssI22
(dp1209
I0
(dp1210
ssI23
(dp1211
I0
(dp1212
ssI24
(dp1213
I0
(dp1214
ssI25
(dp1215
I0
(dp1216
ssI26
(dp1217
I0
(dp1218
ssI27
(dp1219
I0
(dp1220
ssI28
(dp1221
I0
(dp1222
ssI29
(dp1223
I0
(dp1224
sssI17
(dp1225
I0
(dp1226
I0
(dp1227
ssI1
(dp1228
I0
(dp1229
ssI2
(dp1230
I0
(dp1231
ssI3
(dp1232
I0
(dp1233
ssI4
(dp1234
I0
(dp1235
ssI5
(dp1236
I0
(dp1237
ssI6
(dp1238
I0
(dp1239
ssI7
(dp1240
I0
(dp1241
ssI8
(dp1242
I0
(dp1243
ssI9
(dp1244
I0
(dp1245
ssI10
(dp1246
I0
(dp1247
ssI11
(dp1248
I0
(dp1249
ssI12
(dp1250
I0
(dp1251
ssI13
(dp1252
I0
(dp1253
ssI14
(dp1254
I0
(dp1255
ssI15
(dp1256
I0
(dp1257
ssI16
(dp1258
I0
(dp1259
ssI18
(dp1260
I0
(dp1261
ssI19
(dp1262
I0
(dp1263
ssI20
(dp1264
I0
(dp1265
ssI21
(dp1266
I0
(dp1267
ssI22
(dp1268
I0
(dp1269
ssI23
(dp1270
I0
(dp1271
ssI24
(dp1272
I0
(dp1273
ssI25
(dp1274
I0
(dp1275
ssI26
(dp1276
I0
(dp1277
ssI27
(dp1278
I0
(dp1279
ssI28
(dp1280
I0
(dp1281
ssI29
(dp1282
I0
(dp1283
sssI18
(dp1284
I0
(dp1285
I0
(dp1286
ssI1
(dp1287
I0
(dp1288
ssI2
(dp1289
I0
(dp1290
ssI3
(dp1291
I0
(dp1292
ssI4
(dp1293
I0
(dp1294
ssI5
(dp1295
I0
(dp1296
ssI6
(dp1297
I0
(dp1298
ssI7
(dp1299
I0
(dp1300
ssI8
(dp1301
I0
(dp1302
ssI9
(dp1303
I0
(dp1304
ssI10
(dp1305
I0
(dp1306
ssI11
(dp1307
I0
(dp1308
ssI12
(dp1309
I0
(dp1310
ssI13
(dp1311
I0
(dp1312
ssI14
(dp1313
I0
(dp1314
ssI15
(dp1315
I0
(dp1316
ssI16
(dp1317
I0
(dp1318
ssI17
(dp1319
I0
(dp1320
ssI19
(dp1321
I0
(dp1322
ssI20
(dp1323
I0
(dp1324
ssI21
(dp1325
I0
(dp1326
ssI22
(dp1327
I0
(dp1328
ssI23
(dp1329
I0
(dp1330
ssI24
(dp1331
I0
(dp1332
ssI25
(dp1333
I0
(dp1334
ssI26
(dp1335
I0
(dp1336
ssI27
(dp1337
I0
(dp1338
ssI28
(dp1339
I0
(dp1340
ssI29
(dp1341
I0
(dp1342
sssI19
(dp1343
I0
(dp1344
I0
(dp1345
ssI1
(dp1346
I0
(dp1347
ssI2
(dp1348
I0
(dp1349
ssI3
(dp1350
I0
(dp1351
ssI4
(dp1352
I0
(dp1353
ssI5
(dp1354
I0
(dp1355
ssI6
(dp1356
I0
(dp1357
ssI7
(dp1358
I0
(dp1359
ssI8
(dp1360
I0
(dp1361
ssI9
(dp1362
I0
(dp1363
ssI10
(dp1364
I0
(dp1365
ssI11
(dp1366
I0
(dp1367
ssI12
(dp1368
I0
(dp1369
ssI13
(dp1370
I0
(dp1371
ssI14
(dp1372
I0
(dp1373
ssI15
(dp1374
I0
(dp1375
ssI16
(dp1376
I0
(dp1377
ssI17
(dp1378
I0
(dp1379
ssI18
(dp1380
I0
(dp1381
ssI20
(dp1382
I0
(dp1383
ssI21
(dp1384
I0
(dp1385
ssI22
(dp1386
I0
(dp1387
ssI23
(dp1388
I0
(dp1389
ssI24
(dp1390
I0
(dp1391
ssI25
(dp1392
I0
(dp1393
ssI26
(dp1394
I0
(dp1395
ssI27
(dp1396
I0
(dp1397
ssI28
(dp1398
I0
(dp1399
ssI29
(dp1400
I0
(dp1401
sssI20
(dp1402
I0
(dp1403
I0
(dp1404
ssI1
(dp1405
I0
(dp1406
ssI2
(dp1407
I0
(dp1408
ssI3
(dp1409
I0
(dp1410
ssI4
(dp1411
I0
(dp1412
ssI5
(dp1413
I0
(dp1414
ssI6
(dp1415
I0
(dp1416
ssI7
(dp1417
I0
(dp1418
ssI8
(dp1419
I0
(dp1420
ssI9
(dp1421
I0
(dp1422
ssI10
(dp1423
I0
(dp1424
ssI11
(dp1425
I0
(dp1426
ssI12
(dp1427
I0
(dp1428
ssI13
(dp1429
I0
(dp1430
ssI14
(dp1431
I0
(dp1432
ssI15
(dp1433
I0
(dp1434
ssI16
(dp1435
I0
(dp1436
ssI17
(dp1437
I0
(dp1438
ssI18
(dp1439
I0
(dp1440
ssI19
(dp1441
I0
(dp1442
ssI21
(dp1443
I0
(dp1444
ssI22
(dp1445
I0
(dp1446
ssI23
(dp1447
I0
(dp1448
ssI24
(dp1449
I0
(dp1450
ssI25
(dp1451
I0
(dp1452
ssI26
(dp1453
I0
(dp1454
ssI27
(dp1455
I0
(dp1456
ssI28
(dp1457
I0
(dp1458
ssI29
(dp1459
I0
(dp1460
sssI21
(dp1461
I0
(dp1462
I0
(dp1463
ssI1
(dp1464
I0
(dp1465
ssI2
(dp1466
I0
(dp1467
ssI3
(dp1468
I0
(dp1469
ssI4
(dp1470
I0
(dp1471
ssI5
(dp1472
I0
(dp1473
ssI6
(dp1474
I0
(dp1475
ssI7
(dp1476
I0
(dp1477
ssI8
(dp1478
I0
(dp1479
ssI9
(dp1480
I0
(dp1481
ssI10
(dp1482
I0
(dp1483
ssI11
(dp1484
I0
(dp1485
ssI12
(dp1486
I0
(dp1487
ssI13
(dp1488
I0
(dp1489
ssI14
(dp1490
I0
(dp1491
ssI15
(dp1492
I0
(dp1493
ssI16
(dp1494
I0
(dp1495
ssI17
(dp1496
I0
(dp1497
ssI18
(dp1498
I0
(dp1499
ssI19
(dp1500
I0
(dp1501
ssI20
(dp1502
I0
(dp1503
ssI22
(dp1504
I0
(dp1505
ssI23
(dp1506
I0
(dp1507
ssI24
(dp1508
I0
(dp1509
ssI25
(dp1510
I0
(dp1511
ssI26
(dp1512
I0
(dp1513
ssI27
(dp1514
I0
(dp1515
ssI28
(dp1516
I0
(dp1517
ssI29
(dp1518
I0
(dp1519
sssI22
(dp1520
I0
(dp1521
I0
(dp1522
ssI1
(dp1523
I0
(dp1524
ssI2
(dp1525
I0
(dp1526
ssI3
(dp1527
I0
(dp1528
ssI4
(dp1529
I0
(dp1530
ssI5
(dp1531
I0
(dp1532
ssI6
(dp1533
I0
(dp1534
ssI7
(dp1535
I0
(dp1536
ssI8
(dp1537
I0
(dp1538
ssI9
(dp1539
I0
(dp1540
ssI10
(dp1541
I0
(dp1542
ssI11
(dp1543
I0
(dp1544
ssI12
(dp1545
I0
(dp1546
ssI13
(dp1547
I0
(dp1548
ssI14
(dp1549
I0
(dp1550
ssI15
(dp1551
I0
(dp1552
ssI16
(dp1553
I0
(dp1554
ssI17
(dp1555
I0
(dp1556
ssI18
(dp1557
I0
(dp1558
ssI19
(dp1559
I0
(dp1560
ssI20
(dp1561
I0
(dp1562
ssI21
(dp1563
I0
(dp1564
ssI23
(dp1565
I0
(dp1566
ssI24
(dp1567
I0
(dp1568
ssI25
(dp1569
I0
(dp1570
ssI26
(dp1571
I0
(dp1572
ssI27
(dp1573
I0
(dp1574
ssI28
(dp1575
I0
(dp1576
ssI29
(dp1577
I0
(dp1578
sssI23
(dp1579
I0
(dp1580
I0
(dp1581
ssI1
(dp1582
I0
(dp1583
ssI2
(dp1584
I0
(dp1585
ssI3
(dp1586
I0
(dp1587
ssI4
(dp1588
I0
(dp1589
ssI5
(dp1590
I0
(dp1591
ssI6
(dp1592
I0
(dp1593
ssI7
(dp1594
I0
(dp1595
ssI8
(dp1596
I0
(dp1597
ssI9
(dp1598
I0
(dp1599
ssI10
(dp1600
I0
(dp1601
ssI11
(dp1602
I0
(dp1603
ssI12
(dp1604
I0
(dp1605
ssI13
(dp1606
I0
(dp1607
ssI14
(dp1608
I0
(dp1609
ssI15
(dp1610
I0
(dp1611
ssI16
(dp1612
I0
(dp1613
ssI17
(dp1614
I0
(dp1615
ssI18
(dp1616
I0
(dp1617
ssI19
(dp1618
I0
(dp1619
ssI20
(dp1620
I0
(dp1621
ssI21
(dp1622
I0
(dp1623
ssI22
(dp1624
I0
(dp1625
ssI24
(dp1626
I0
(dp1627
ssI25
(dp1628
I0
(dp1629
ssI26
(dp1630
I0
(dp1631
ssI27
(dp1632
I0
(dp1633
ssI28
(dp1634
I0
(dp1635
ssI29
(dp1636
I0
(dp1637
sssI24
(dp1638
I0
(dp1639
I0
(dp1640
ssI1
(dp1641
I0
(dp1642
ssI2
(dp1643
I0
(dp1644
ssI3
(dp1645
I0
(dp1646
ssI4
(dp1647
I0
(dp1648
ssI5
(dp1649
I0
(dp1650
ssI6
(dp1651
I0
(dp1652
ssI7
(dp1653
I0
(dp1654
ssI8
(dp1655
I0
(dp1656
ssI9
(dp1657
I0
(dp1658
ssI10
(dp1659
I0
(dp1660
ssI11
(dp1661
I0
(dp1662
ssI12
(dp1663
I0
(dp1664
ssI13
(dp1665
I0
(dp1666
ssI14
(dp1667
I0
(dp1668
ssI15
(dp1669
I0
(dp1670
ssI16
(dp1671
I0
(dp1672
ssI17
(dp1673
I0
(dp1674
ssI18
(dp1675
I0
(dp1676
ssI19
(dp1677
I0
(dp1678
ssI20
(dp1679
I0
(dp1680
ssI21
(dp1681
I0
(dp1682
ssI22
(dp1683
I0
(dp1684
ssI23
(dp1685
I0
(dp1686
ssI25
(dp1687
I0
(dp1688
ssI26
(dp1689
I0
(dp1690
ssI27
(dp1691
I0
(dp1692
ssI28
(dp1693
I0
(dp1694
ssI29
(dp1695
I0
(dp1696
sssI25
(dp1697
I0
(dp1698
I0
(dp1699
ssI1
(dp1700
I0
(dp1701
ssI2
(dp1702
I0
(dp1703
ssI3
(dp1704
I0
(dp1705
ssI4
(dp1706
I0
(dp1707
ssI5
(dp1708
I0
(dp1709
ssI6
(dp1710
I0
(dp1711
ssI7
(dp1712
I0
(dp1713
ssI8
(dp1714
I0
(dp1715
ssI9
(dp1716
I0
(dp1717
ssI10
(dp1718
I0
(dp1719
ssI11
(dp1720
I0
(dp1721
ssI12
(dp1722
I0
(dp1723
ssI13
(dp1724
I0
(dp1725
ssI14
(dp1726
I0
(dp1727
ssI15
(dp1728
I0
(dp1729
ssI16
(dp1730
I0
(dp1731
ssI17
(dp1732
I0
(dp1733
ssI18
(dp1734
I0
(dp1735
ssI19
(dp1736
I0
(dp1737
ssI20
(dp1738
I0
(dp1739
ssI21
(dp1740
I0
(dp1741
ssI22
(dp1742
I0
(dp1743
ssI23
(dp1744
I0
(dp1745
ssI24
(dp1746
I0
(dp1747
ssI26
(dp1748
I0
(dp1749
ssI27
(dp1750
I0
(dp1751
ssI28
(dp1752
I0
(dp1753
ssI29
(dp1754
I0
(dp1755
sssI26
(dp1756
I0
(dp1757
I0
(dp1758
ssI1
(dp1759
I0
(dp1760
ssI2
(dp1761
I0
(dp1762
ssI3
(dp1763
I0
(dp1764
ssI4
(dp1765
I0
(dp1766
ssI5
(dp1767
I0
(dp1768
ssI6
(dp1769
I0
(dp1770
ssI7
(dp1771
I0
(dp1772
ssI8
(dp1773
I0
(dp1774
ssI9
(dp1775
I0
(dp1776
ssI10
(dp1777
I0
(dp1778
ssI11
(dp1779
I0
(dp1780
ssI12
(dp1781
I0
(dp1782
ssI13
(dp1783
I0
(dp1784
ssI14
(dp1785
I0
(dp1786
ssI15
(dp1787
I0
(dp1788
ssI16
(dp1789
I0
(dp1790
ssI17
(dp1791
I0
(dp1792
ssI18
(dp1793
I0
(dp1794
ssI19
(dp1795
I0
(dp1796
ssI20
(dp1797
I0
(dp1798
ssI21
(dp1799
I0
(dp1800
ssI22
(dp1801
I0
(dp1802
ssI23
(dp1803
I0
(dp1804
ssI24
(dp1805
I0
(dp1806
ssI25
(dp1807
I0
(dp1808
ssI27
(dp1809
I0
(dp1810
ssI28
(dp1811
I0
(dp1812
ssI29
(dp1813
I0
(dp1814
sssI27
(dp1815
I0
(dp1816
I0
(dp1817
ssI1
(dp1818
I0
(dp1819
ssI2
(dp1820
I0
(dp1821
ssI3
(dp1822
I0
(dp1823
ssI4
(dp1824
I0
(dp1825
ssI5
(dp1826
I0
(dp1827
ssI6
(dp1828
I0
(dp1829
ssI7
(dp1830
I0
(dp1831
ssI8
(dp1832
I0
(dp1833
ssI9
(dp1834
I0
(dp1835
ssI10
(dp1836
I0
(dp1837
ssI11
(dp1838
I0
(dp1839
ssI12
(dp1840
I0
(dp1841
ssI13
(dp1842
I0
(dp1843
ssI14
(dp1844
I0
(dp1845
ssI15
(dp1846
I0
(dp1847
ssI16
(dp1848
I0
(dp1849
ssI17
(dp1850
I0
(dp1851
ssI18
(dp1852
I0
(dp1853
ssI19
(dp1854
I0
(dp1855
ssI20
(dp1856
I0
(dp1857
ssI21
(dp1858
I0
(dp1859
ssI22
(dp1860
I0
(dp1861
ssI23
(dp1862
I0
(dp1863
ssI24
(dp1864
I0
(dp1865
ssI25
(dp1866
I0
(dp1867
ssI26
(dp1868
I0
(dp1869
ssI28
(dp1870
I0
(dp1871
ssI29
(dp1872
I0
(dp1873
sssI28
(dp1874
I0
(dp1875
I0
(dp1876
ssI1
(dp1877
I0
(dp1878
ssI2
(dp1879
I0
(dp1880
ssI3
(dp1881
I0
(dp1882
ssI4
(dp1883
I0
(dp1884
ssI5
(dp1885
I0
(dp1886
ssI6
(dp1887
I0
(dp1888
ssI7
(dp1889
I0
(dp1890
ssI8
(dp1891
I0
(dp1892
ssI9
(dp1893
I0
(dp1894
ssI10
(dp1895
I0
(dp1896
ssI11
(dp1897
I0
(dp1898
ssI12
(dp1899
I0
(dp1900
ssI13
(dp1901
I0
(dp1902
ssI14
(dp1903
I0
(dp1904
ssI15
(dp1905
I0
(dp1906
ssI16
(dp1907
I0
(dp1908
ssI17
(dp1909
I0
(dp1910
ssI18
(dp1911
I0
(dp1912
ssI19
(dp1913
I0
(dp1914
ssI20
(dp1915
I0
(dp1916
ssI21
(dp1917
I0
(dp1918
ssI22
(dp1919
I0
(dp1920
ssI23
(dp1921
I0
(dp1922
ssI24
(dp1923
I0
(dp1924
ssI25
(dp1925
I0
(dp1926
ssI26
(dp1927
I0
(dp1928
ssI27
(dp1929
I0
(dp1930
ssI29
(dp1931
I0
(dp1932
sssI29
(dp1933
I0
(dp1934
I0
(dp1935
ssI1
(dp1936
I0
(dp1937
ssI2
(dp1938
I0
(dp1939
ssI3
(dp1940
I0
(dp1941
ssI4
(dp1942
I0
(dp1943
ssI5
(dp1944
I0
(dp1945
ssI6
(dp1946
I0
(dp1947
ssI7
(dp1948
I0
(dp1949
ssI8
(dp1950
I0
(dp1951
ssI9
(dp1952
I0
(dp1953
ssI10
(dp1954
I0
(dp1955
ssI11
(dp1956
I0
(dp1957
ssI12
(dp1958
I0
(dp1959
ssI13
(dp1960
I0
(dp1961
ssI14
(dp1962
I0
(dp1963
ssI15
(dp1964
I0
(dp1965
ssI16
(dp1966
I0
(dp1967
ssI17
(dp1968
I0
(dp1969
ssI18
(dp1970
I0
(dp1971
ssI19
(dp1972
I0
(dp1973
ssI20
(dp1974
I0
(dp1975
ssI21
(dp1976
I0
(dp1977
ssI22
(dp1978
I0
(dp1979
ssI23
(dp1980
I0
(dp1981
ssI24
(dp1982
I0
(dp1983
ssI25
(dp1984
I0
(dp1985
ssI26
(dp1986
I0
(dp1987
ssI27
(dp1988
I0
(dp1989
ssI28
(dp1990
I0
(dp1991
ssssg151
g221
sg152
(dp1992
I0
(dp1993
I1
g282
sI2
g341
sI3
g400
sI4
g459
sI5
g518
sI6
g577
sI7
g636
sI8
g695
sI9
g754
sI10
g813
sI11
g872
sI12
g931
sI13
g990
sI14
g1049
sI15
g1108
sI16
g1167
sI17
g1226
sI18
g1285
sI19
g1344
sI20
g1403
sI21
g1462
sI22
g1521
sI23
g1580
sI24
g1639
sI25
g1698
sI26
g1757
sI27
g1816
sI28
g1875
sI29
g1934
ssI1
(dp1994
I0
g223
sI2
g343
sI3
g402
sI4
g461
sI5
g520
sI6
g579
sI7
g638
sI8
g697
sI9
g756
sI10
g815
sI11
g874
sI12
g933
sI13
g992
sI14
g1051
sI15
g1110
sI16
g1169
sI17
g1228
sI18
g1287
sI19
g1346
sI20
g1405
sI21
g1464
sI22
g1523
sI23
g1582
sI24
g1641
sI25
g1700
sI26
g1759
sI27
g1818
sI28
g1877
sI29
g1936
ssI2
(dp1995
I0
g225
sI1
g284
sI3
g404
sI4
g463
sI5
g522
sI6
g581
sI7
g640
sI8
g699
sI9
g758
sI10
g817
sI11
g876
sI12
g935
sI13
g994
sI14
g1053
sI15
g1112
sI16
g1171
sI17
g1230
sI18
g1289
sI19
g1348
sI20
g1407
sI21
g1466
sI22
g1525
sI23
g1584
sI24
g1643
sI25
g1702
sI26
g1761
sI27
g1820
sI28
g1879
sI29
g1938
ssI3
(dp1996
I0
g227
sI1
g286
sI2
g345
sI4
g465
sI5
g524
sI6
g583
sI7
g642
sI8
g701
sI9
g760
sI10
g819
sI11
g878
sI12
g937
sI13
g996
sI14
g1055
sI15
g1114
sI16
g1173
sI17
g1232
sI18
g1291
sI19
g1350
sI20
g1409
sI21
g1468
sI22
g1527
sI23
g1586
sI24
g1645
sI25
g1704
sI26
g1763
sI27
g1822
sI28
g1881
sI29
g1940
ssI4
(dp1997
I0
g229
sI1
g288
sI2
g347
sI3
g406
sI5
g526
sI6
g585
sI7
g644
sI8
g703
sI9
g762
sI10
g821
sI11
g880
sI12
g939
sI13
g998
sI14
g1057
sI15
g1116
sI16
g1175
sI17
g1234
sI18
g1293
sI19
g1352
sI20
g1411
sI21
g1470
sI22
g1529
sI23
g1588
sI24
g1647
sI25
g1706
sI26
g1765
sI27
g1824
sI28
g1883
sI29
g1942
ssI5
(dp1998
I0
g231
sI1
g290
sI2
g349
sI3
g408
sI4
g467
sI6
g587
sI7
g646
sI8
g705
sI9
g764
sI10
g823
sI11
g882
sI12
g941
sI13
g1000
sI14
g1059
sI15
g1118
sI16
g1177
sI17
g1236
sI18
g1295
sI19
g1354
sI20
g1413
sI21
g1472
sI22
g1531
sI23
g1590
sI24
g1649
sI25
g1708
sI26
g1767
sI27
g1826
sI28
g1885
sI29
g1944
ssI6
(dp1999
I0
g233
sI1
g292
sI2
g351
sI3
g410
sI4
g469
sI5
g528
sI7
g648
sI8
g707
sI9
g766
sI10
g825
sI11
g884
sI12
g943
sI13
g1002
sI14
g1061
sI15
g1120
sI16
g1179
sI17
g1238
sI18
g1297
sI19
g1356
sI20
g1415
sI21
g1474
sI22
g1533
sI23
g1592
sI24
g1651
sI25
g1710
sI26
g1769
sI27
g1828
sI28
g1887
sI29
g1946
ssI7
(dp2000
I0
g235
sI1
g294
sI2
g353
sI3
g412
sI4
g471
sI5
g530
sI6
g589
sI8
g709
sI9
g768
sI10
g827
sI11
g886
sI12
g945
sI13
g1004
sI14
g1063
sI15
g1122
sI16
g1181
sI17
g1240
sI18
g1299
sI19
g1358
sI20
g1417
sI21
g1476
sI22
g1535
sI23
g1594
sI24
g1653
sI25
g1712
sI26
g1771
sI27
g1830
sI28
g1889
sI29
g1948
ssI8
(dp2001
I0
g237
sI1
g296
sI2
g355
sI3
g414
sI4
g473
sI5
g532
sI6
g591
sI7
g650
sI9
g770
sI10
g829
sI11
g888
sI12
g947
sI13
g1006
sI14
g1065
sI15
g1124
sI16
g1183
sI17
g1242
sI18
g1301
sI19
g1360
sI20
g1419
sI21
g1478
sI22
g1537
sI23
g1596
sI24
g1655
sI25
g1714
sI26
g1773
sI27
g1832
sI28
g1891
sI29
g1950
ssI9
(dp2002
I0
g239
sI1
g298
sI2
g357
sI3
g416
sI4
g475
sI5
g534
sI6
g593
sI7
g652
sI8
g711
sI10
g831
sI11
g890
sI12
g949
sI13
g1008
sI14
g1067
sI15
g1126
sI16
g1185
sI17
g1244
sI18
g1303
sI19
g1362
sI20
g1421
sI21
g1480
sI22
g1539
sI23
g1598
sI24
g1657
sI25
g1716
sI26
g1775
sI27
g1834
sI28
g1893
sI29
g1952
ssI10
(dp2003
I0
g241
sI1
g300
sI2
g359
sI3
g418
sI4
g477
sI5
g536
sI6
g595
sI7
g654
sI8
g713
sI9
g772
sI11
g892
sI12
g951
sI13
g1010
sI14
g1069
sI15
g1128
sI16
g1187
sI17
g1246
sI18
g1305
sI19
g1364
sI20
g1423
sI21
g1482
sI22
g1541
sI23
g1600
sI24
g1659
sI25
g1718
sI26
g1777
sI27
g1836
sI28
g1895
sI29
g1954
ssI11
(dp2004
I0
g243
sI1
g302
sI2
g361
sI3
g420
sI4
g479
sI5
g538
sI6
g597
sI7
g656
sI8
g715
sI9
g774
sI10
g833
sI12
g953
sI13
g1012
sI14
g1071
sI15
g1130
sI16
g1189
sI17
g1248
sI18
g1307
sI19
g1366
sI20
g1425
sI21
g1484
sI22
g1543
sI23
g1602
sI24
g1661
sI25
g1720
sI26
g1779
sI27
g1838
sI28
g1897
sI29
g1956
ssI12
(dp2005
I0
g245
sI1
g304
sI2
g363
sI3
g422
sI4
g481
sI5
g540
sI6
g599
sI7
g658
sI8
g717
sI9
g776
sI10
g835
sI11
g894
sI13
g1014
sI14
g1073
sI15
g1132
sI16
g1191
sI17
g1250
sI18
g1309
sI19
g1368
sI20
g1427
sI21
g1486
sI22
g1545
sI23
g1604
sI24
g1663
sI25
g1722
sI26
g1781
sI27
g1840
sI28
g1899
sI29
g1958
ssI13
(dp2006
I0
g247
sI1
g306
sI2
g365
sI3
g424
sI4
g483
sI5
g542
sI6
g601
sI7
g660
sI8
g719
sI9
g778
sI10
g837
sI11
g896
sI12
g955
sI14
g1075
sI15
g1134
sI16
g1193
sI17
g1252
sI18
g1311
sI19
g1370
sI20
g1429
sI21
g1488
sI22
g1547
sI23
g1606
sI24
g1665
sI25
g1724
sI26
g1783
sI27
g1842
sI28
g1901
sI29
g1960
ssI14
(dp2007
I0
g249
sI1
g308
sI2
g367
sI3
g426
sI4
g485
sI5
g544
sI6
g603
sI7
g662
sI8
g721
sI9
g780
sI10
g839
sI11
g898
sI12
g957
sI13
g1016
sI15
g1136
sI16
g1195
sI17
g1254
sI18
g1313
sI19
g1372
sI20
g1431
sI21
g1490
sI22
g1549
sI23
g1608
sI24
g1667
sI25
g1726
sI26
g1785
sI27
g1844
sI28
g1903
sI29
g1962
ssI15
(dp2008
I0
g251
sI1
g310
sI2
g369
sI3
g428
sI4
g487
sI5
g546
sI6
g605
sI7
g664
sI8
g723
sI9
g782
sI10
g841
sI11
g900
sI12
g959
sI13
g1018
sI14
g1077
sI16
g1197
sI17
g1256
sI18
g1315
sI19
g1374
sI20
g1433
sI21
g1492
sI22
g1551
sI23
g1610
sI24
g1669
sI25
g1728
sI26
g1787
sI27
g1846
sI28
g1905
sI29
g1964
ssI16
(dp2009
I0
g253
sI1
g312
sI2
g371
sI3
g430
sI4
g489
sI5
g548
sI6
g607
sI7
g666
sI8
g725
sI9
g784
sI10
g843
sI11
g902
sI12
g961
sI13
g1020
sI14
g1079
sI15
g1138
sI17
g1258
sI18
g1317
sI19
g1376
sI20
g1435
sI21
g1494
sI22
g1553
sI23
g1612
sI24
g1671
sI25
g1730
sI26
g1789
sI27
g1848
sI28
g1907
sI29
g1966
ssI17
(dp2010
I0
g255
sI1
g314
sI2
g373
sI3
g432
sI4
g491
sI5
g550
sI6
g609
sI7
g668
sI8
g727
sI9
g786
sI10
g845
sI11
g904
sI12
g963
sI13
g1022
sI14
g1081
sI15
g1140
sI16
g1199
sI18
g1319
sI19
g1378
sI20
g1437
sI21
g1496
sI22
g1555
sI23
g1614
sI24
g1673
sI25
g1732
sI26
g1791
sI27
g1850
sI28
g1909
sI29
g1968
ssI18
(dp2011
I0
g257
sI1
g316
sI2
g375
sI3
g434
sI4
g493
sI5
g552
sI6
g611
sI7
g670
sI8
g729
sI9
g788
sI10
g847
sI11
g906
sI12
g965
sI13
g1024
sI14
g1083
sI15
g1142
sI16
g1201
sI17
g1260
sI19
g1380
sI20
g1439
sI21
g1498
sI22
g1557
sI23
g1616
sI24
g1675
sI25
g1734
sI26
g1793
sI27
g1852
sI28
g1911
sI29
g1970
ssI19
(dp2012
I0
g259
sI1
g318
sI2
g377
sI3
g436
sI4
g495
sI5
g554
sI6
g613
sI7
g672
sI8
g731
sI9
g790
sI10
g849
sI11
g908
sI12
g967
sI13
g1026
sI14
g1085
sI15
g1144
sI16
g1203
sI17
g1262
sI18
g1321
sI20
g1441
sI21
g1500
sI22
g1559
sI23
g1618
sI24
g1677
sI25
g1736
sI26
g1795
sI27
g1854
sI28
g1913
sI29
g1972
ssI20
(dp2013
I0
g261
sI1
g320
sI2
g379
sI3
g438
sI4
g497
sI5
g556
sI6
g615
sI7
g674
sI8
g733
sI9
g792
sI10
g851
sI11
g910
sI12
g969
sI13
g1028
sI14
g1087
sI15
g1146
sI16
g1205
sI17
g1264
sI18
g1323
sI19
g1382
sI21
g1502
sI22
g1561
sI23
g1620
sI24
g1679
sI25
g1738
sI26
g1797
sI27
g1856
sI28
g1915
sI29
g1974
ssI21
(dp2014
I0
g263
sI1
g322
sI2
g381
sI3
g440
sI4
g499
sI5
g558
sI6
g617
sI7
g676
sI8
g735
sI9
g794
sI10
g853
sI11
g912
sI12
g971
sI13
g1030
sI14
g1089
sI15
g1148
sI16
g1207
sI17
g1266
sI18
g1325
sI19
g1384
sI20
g1443
sI22
g1563
sI23
g1622
sI24
g1681
sI25
g1740
sI26
g1799
sI27
g1858
sI28
g1917
sI29
g1976
ssI22
(dp2015
I0
g265
sI1
g324
sI2
g383
sI3
g442
sI4
g501
sI5
g560
sI6
g619
sI7
g678
sI8
g737
sI9
g796
sI10
g855
sI11
g914
sI12
g973
sI13
g1032
sI14
g1091
sI15
g1150
sI16
g1209
sI17
g1268
sI18
g1327
sI19
g1386
sI20
g1445
sI21
g1504
sI23
g1624
sI24
g1683
sI25
g1742
sI26
g1801
sI27
g1860
sI28
g1919
sI29
g1978
ssI23
(dp2016
I0
g267
sI1
g326
sI2
g385
sI3
g444
sI4
g503
sI5
g562
sI6
g621
sI7
g680
sI8
g739
sI9
g798
sI10
g857
sI11
g916
sI12
g975
sI13
g1034
sI14
g1093
sI15
g1152
sI16
g1211
sI17
g1270
sI18
g1329
sI19
g1388
sI20
g1447
sI21
g1506
sI22
g1565
sI24
g1685
sI25
g1744
sI26
g1803
sI27
g1862
sI28
g1921
sI29
g1980
ssI24
(dp2017
I0
g269
sI1
g328
sI2
g387
sI3
g446
sI4
g505
sI5
g564
sI6
g623
sI7
g682
sI8
g741
sI9
g800
sI10
g859
sI11
g918
sI12
g977
sI13
g1036
sI14
g1095
sI15
g1154
sI16
g1213
sI17
g1272
sI18
g1331
sI19
g1390
sI20
g1449
sI21
g1508
sI22
g1567
sI23
g1626
sI25
g1746
sI26
g1805
sI27
g1864
sI28
g1923
sI29
g1982
ssI25
(dp2018
I0
g271
sI1
g330
sI2
g389
sI3
g448
sI4
g507
sI5
g566
sI6
g625
sI7
g684
sI8
g743
sI9
g802
sI10
g861
sI11
g920
sI12
g979
sI13
g1038
sI14
g1097
sI15
g1156
sI16
g1215
sI17
g1274
sI18
g1333
sI19
g1392
sI20
g1451
sI21
g1510
sI22
g1569
sI23
g1628
sI24
g1687
sI26
g1807
sI27
g1866
sI28
g1925
sI29
g1984
ssI26
(dp2019
I0
g273
sI1
g332
sI2
g391
sI3
g450
sI4
g509
sI5
g568
sI6
g627
sI7
g686
sI8
g745
sI9
g804
sI10
g863
sI11
g922
sI12
g981
sI13
g1040
sI14
g1099
sI15
g1158
sI16
g1217
sI17
g1276
sI18
g1335
sI19
g1394
sI20
g1453
sI21
g1512
sI22
g1571
sI23
g1630
sI24
g1689
sI25
g1748
sI27
g1868
sI28
g1927
sI29
g1986
ssI27
(dp2020
I0
g275
sI1
g334
sI2
g393
sI3
g452
sI4
g511
sI5
g570
sI6
g629
sI7
g688
sI8
g747
sI9
g806
sI10
g865
sI11
g924
sI12
g983
sI13
g1042
sI14
g1101
sI15
g1160
sI16
g1219
sI17
g1278
sI18
g1337
sI19
g1396
sI20
g1455
sI21
g1514
sI22
g1573
sI23
g1632
sI24
g1691
sI25
g1750
sI26
g1809
sI28
g1929
sI29
g1988
ssI28
(dp2021
I0
g277
sI1
g336
sI2
g395
sI3
g454
sI4
g513
sI5
g572
sI6
g631
sI7
g690
sI8
g749
sI9
g808
sI10
g867
sI11
g926
sI12
g985
sI13
g1044
sI14
g1103
sI15
g1162
sI16
g1221
sI17
g1280
sI18
g1339
sI19
g1398
sI20
g1457
sI21
g1516
sI22
g1575
sI23
g1634
sI24
g1693
sI25
g1752
sI26
g1811
sI27
g1870
sI29
g1990
ssI29
(dp2022
I0
g279
sI1
g338
sI2
g397
sI3
g456
sI4
g515
sI5
g574
sI6
g633
sI7
g692
sI8
g751
sI9
g810
sI10
g869
sI11
g928
sI12
g987
sI13
g1046
sI14
g1105
sI15
g1164
sI16
g1223
sI17
g1282
sI18
g1341
sI19
g1400
sI20
g1459
sI21
g1518
sI22
g1577
sI23
g1636
sI24
g1695
sI25
g1754
sI26
g1813
sI27
g1872
sI28
g1931
sssg184
g221
sbag1
(cnetworkx.classes.multigraph
MultiGraph
p2023
g3
Ntp2024
Rp2025
(dp2026
g7
(dp2027
I0
(dp2028
S'neibor'
p2029
(lp2030
I1
aI2
aI3
aI4
aI5
aI6
aI7
aI9
aI10
aI11
aI12
aI13
aI14
aI15
aI17
aI19
aI20
aI21
aI23
aI24
aI26
aI27
aI29
asS'dirty'
p2031
I0
ssI1
(dp2032
g2029
(lp2033
I0
aI2
aI3
aI5
aI6
aI7
aI8
aI9
aI11
aI12
aI13
aI14
aI15
aI16
aI17
aI18
aI19
aI21
aI22
aI24
aI26
aI28
asg2031
I0
ssI2
(dp2034
g2029
(lp2035
I0
aI1
aI3
aI4
aI5
aI7
aI8
aI9
aI10
aI11
aI12
aI13
aI14
aI15
aI16
aI17
aI18
aI20
aI22
aI23
aI24
aI25
aI27
aI28
aI29
asg2031
I0
ssI3
(dp2036
g2029
(lp2037
I0
aI1
aI2
aI4
aI5
aI8
aI11
aI12
aI13
aI14
aI16
aI18
aI19
aI24
aI26
aI29
asg2031
I0
ssI4
(dp2038
g2029
(lp2039
I0
aI2
aI3
aI5
aI6
aI7
aI9
aI12
aI13
aI14
aI16
aI17
aI18
aI19
aI21
aI24
aI25
aI27
asg2031
I0
ssI5
(dp2040
g2029
(lp2041
I0
aI1
aI2
aI3
aI4
aI6
aI7
aI8
aI9
aI13
aI14
aI15
aI19
aI25
aI28
asg2031
I0
ssI6
(dp2042
g2029
(lp2043
I0
aI1
aI4
aI5
aI7
aI9
aI11
aI12
aI14
aI16
aI18
aI23
aI29
asg2031
I0
ssI7
(dp2044
g2029
(lp2045
I0
aI1
aI2
aI4
aI5
aI6
aI8
aI9
aI12
aI16
aI20
aI29
asg2031
I0
ssI8
(dp2046
g2029
(lp2047
I1
aI2
aI3
aI5
aI7
aI10
aI13
aI17
aI22
aI23
aI24
aI26
aI27
asg2031
I0
ssI9
(dp2048
g2029
(lp2049
I0
aI1
aI2
aI4
aI5
aI6
aI7
aI11
aI12
aI13
aI14
aI15
aI16
aI17
aI20
aI21
aI24
aI25
aI26
asg2031
I0
ssI10
(dp2050
g2029
(lp2051
I0
aI2
aI8
aI15
aI16
aI20
aI24
aI27
aI28
asg2031
I0
ssI11
(dp2052
g2029
(lp2053
I0
aI1
aI2
aI3
aI6
aI9
aI13
aI15
aI17
aI18
aI22
aI24
aI25
aI26
aI29
asg2031
I0
ssI12
(dp2054
g2029
(lp2055
I0
aI1
aI2
aI3
aI4
aI6
aI7
aI9
aI13
aI14
aI16
aI17
aI18
aI19
aI20
aI21
aI22
aI23
aI25
aI26
aI27
aI28
asg2031
I0
ssI13
(dp2056
g2029
(lp2057
I0
aI1
aI2
aI3
aI4
aI5
aI8
aI9
aI11
aI12
aI15
aI19
aI25
aI26
aI27
asg2031
I0
ssI14
(dp2058
g2029
(lp2059
I0
aI1
aI2
aI3
aI4
aI5
aI6
aI9
aI12
aI15
aI16
aI19
aI21
aI22
aI24
aI26
aI28
asg2031
I0
ssI15
(dp2060
g2029
(lp2061
I0
aI1
aI2
aI5
aI9
aI10
aI11
aI13
aI14
aI16
aI18
aI22
aI29
asg2031
I0
ssI16
(dp2062
g2029
(lp2063
I1
aI2
aI3
aI4
aI6
aI7
aI9
aI10
aI12
aI14
aI15
aI18
aI25
aI27
aI29
asg2031
I0
ssI17
(dp2064
g2029
(lp2065
I0
aI1
aI2
aI4
aI8
aI9
aI11
aI12
aI20
aI27
asg2031
I0
ssI18
(dp2066
g2029
(lp2067
I1
aI2
aI3
aI4
aI6
aI11
aI12
aI15
aI16
aI19
aI20
aI21
aI22
aI25
aI26
aI28
aI29
asg2031
I0
ssI19
(dp2068
g2029
(lp2069
I0
aI1
aI3
aI4
aI5
aI12
aI13
aI14
aI18
aI22
aI27
aI29
asg2031
I0
ssI20
(dp2070
g2029
(lp2071
I0
aI2
aI7
aI9
aI10
aI12
aI17
aI18
aI24
aI27
aI28
asg2031
I0
ssI21
(dp2072
g2029
(lp2073
I0
aI1
aI4
aI9
aI12
aI14
aI18
aI24
aI26
aI27
aI29
asg2031
I0
ssI22
(dp2074
g2029
(lp2075
I1
aI2
aI8
aI11
aI12
aI14
aI15
aI18
aI19
aI24
aI25
aI29
asg2031
I0
ssI23
(dp2076
g2029
(lp2077
I0
aI2
aI6
aI8
aI12
aI24
aI27
asg2031
I0
ssI24
(dp2078
g2029
(lp2079
I0
aI1
aI2
aI3
aI4
aI8
aI9
aI10
aI11
aI14
aI20
aI21
aI22
aI23
aI25
aI27
asg2031
I0
ssI25
(dp2080
g2029
(lp2081
I2
aI4
aI5
aI9
aI11
aI12
aI13
aI16
aI18
aI22
aI24
aI26
asg2031
I0
ssI26
(dp2082
g2029
(lp2083
I0
aI1
aI3
aI8
aI9
aI11
aI12
aI13
aI14
aI18
aI21
aI25
aI27
aI28
asg2031
I0
ssI27
(dp2084
g2029
(lp2085
I0
aI2
aI4
aI8
aI10
aI12
aI13
aI16
aI17
aI19
aI20
aI21
aI23
aI24
aI26
aI29
asg2031
I0
ssI28
(dp2086
g2029
(lp2087
I1
aI2
aI5
aI10
aI12
aI14
aI18
aI20
aI26
aI29
asg2031
I0
ssI29
(dp2088
g2029
(lp2089
I0
aI2
aI3
aI6
aI7
aI11
aI15
aI16
aI18
aI19
aI21
aI22
aI27
aI28
asg2031
I0
sssg39
(dp2090
sg151
(dp2091
I0
(dp2092
I1
(dp2093
I0
(dp2094
sI1
(dp2095
sI2
(dp2096
ssI2
(dp2097
I0
(dp2098
sI1
(dp2099
sI2
(dp2100
sI3
(dp2101
ssI3
(dp2102
I0
(dp2103
sI1
(dp2104
sI2
(dp2105
sI3
(dp2106
sI4
(dp2107
sI5
(dp2108
ssI4
(dp2109
I0
(dp2110
ssI5
(dp2111
I0
(dp2112
sI1
(dp2113
sI2
(dp2114
sI3
(dp2115
ssI6
(dp2116
I0
(dp2117
sI1
(dp2118
ssI7
(dp2119
I0
(dp2120
sI1
(dp2121
ssI9
(dp2122
I0
(dp2123
sI1
(dp2124
ssI10
(dp2125
I0
(dp2126
ssI11
(dp2127
I0
(dp2128
sI1
(dp2129
sI2
(dp2130
ssI12
(dp2131
I0
(dp2132
ssI13
(dp2133
I0
(dp2134
sI1
(dp2135
ssI14
(dp2136
I0
(dp2137
ssI15
(dp2138
I0
(dp2139
ssI17
(dp2140
I0
(dp2141
sI1
(dp2142
sI2
(dp2143
sI3
(dp2144
ssI19
(dp2145
I0
(dp2146
ssI20
(dp2147
I0
(dp2148
ssI21
(dp2149
I0
(dp2150
sI1
(dp2151
ssI23
(dp2152
I0
(dp2153
sI1
(dp2154
sI2
(dp2155
ssI24
(dp2156
I0
(dp2157
ssI26
(dp2158
I0
(dp2159
sI1
(dp2160
ssI27
(dp2161
I0
(dp2162
sI1
(dp2163
ssI29
(dp2164
I0
(dp2165
sssI1
(dp2166
I0
g2093
sI2
(dp2167
I0
(dp2168
sI1
(dp2169
sI2
(dp2170
ssI3
(dp2171
I0
(dp2172
ssI5
(dp2173
I0
(dp2174
sI1
(dp2175
sI2
(dp2176
ssI6
(dp2177
I0
(dp2178
sI1
(dp2179
sI2
(dp2180
sI3
(dp2181
sI4
(dp2182
ssI7
(dp2183
I0
(dp2184
ssI8
(dp2185
I0
(dp2186
sI1
(dp2187
sI2
(dp2188
ssI9
(dp2189
I0
(dp2190
ssI11
(dp2191
I0
(dp2192
ssI12
(dp2193
I0
(dp2194
sI1
(dp2195
sI2
(dp2196
ssI13
(dp2197
I0
(dp2198
ssI14
(dp2199
I0
(dp2200
sI1
(dp2201
sI2
(dp2202
sI3
(dp2203
ssI15
(dp2204
I0
(dp2205
ssI16
(dp2206
I0
(dp2207
ssI17
(dp2208
I0
(dp2209
sI1
(dp2210
ssI18
(dp2211
I0
(dp2212
ssI19
(dp2213
I0
(dp2214
ssI21
(dp2215
I0
(dp2216
ssI22
(dp2217
I0
(dp2218
ssI24
(dp2219
I0
(dp2220
sI1
(dp2221
ssI26
(dp2222
I0
(dp2223
sI1
(dp2224
ssI28
(dp2225
I0
(dp2226
sssI2
(dp2227
I0
g2097
sI1
g2167
sI3
(dp2228
I0
(dp2229
sI1
(dp2230
sI2
(dp2231
sI3
(dp2232
sI4
(dp2233
sI5
(dp2234
ssI4
(dp2235
I0
(dp2236
sI1
(dp2237
ssI5
(dp2238
I0
(dp2239
ssI7
(dp2240
I0
(dp2241
sI1
(dp2242
sI2
(dp2243
sI3
(dp2244
ssI8
(dp2245
I0
(dp2246
sI1
(dp2247
ssI9
(dp2248
I0
(dp2249
sI1
(dp2250
sI2
(dp2251
sI3
(dp2252
sI4
(dp2253
ssI10
(dp2254
I0
(dp2255
sI1
(dp2256
sI2
(dp2257
sI3
(dp2258
sI4
(dp2259
ssI11
(dp2260
I0
(dp2261
ssI12
(dp2262
I0
(dp2263
sI1
(dp2264
sI2
(dp2265
sI3
(dp2266
ssI13
(dp2267
I0
(dp2268
sI1
(dp2269
ssI14
(dp2270
I0
(dp2271
ssI15
(dp2272
I0
(dp2273
sI1
(dp2274
sI2
(dp2275
ssI16
(dp2276
I0
(dp2277
sI1
(dp2278
sI2
(dp2279
sI3
(dp2280
sI4
(dp2281
ssI17
(dp2282
I0
(dp2283
sI1
(dp2284
sI2
(dp2285
sI3
(dp2286
ssI18
(dp2287
I0
(dp2288
sI1
(dp2289
sI2
(dp2290
sI3
(dp2291
ssI20
(dp2292
I0
(dp2293
sI1
(dp2294
sI2
(dp2295
ssI22
(dp2296
I0
(dp2297
sI1
(dp2298
ssI23
(dp2299
I0
(dp2300
sI1
(dp2301
sI2
(dp2302
ssI24
(dp2303
I0
(dp2304
sI1
(dp2305
ssI25
(dp2306
I0
(dp2307
sI1
(dp2308
ssI27
(dp2309
I0
(dp2310
sI1
(dp2311
ssI28
(dp2312
I0
(dp2313
ssI29
(dp2314
I0
(dp2315
sI1
(dp2316
sI2
(dp2317
sI3
(dp2318
sI4
(dp2319
sssI3
(dp2320
I0
g2102
sI1
g2171
sI2
g2228
sI4
(dp2321
I0
(dp2322
ssI5
(dp2323
I0
(dp2324
sI1
(dp2325
ssI8
(dp2326
I0
(dp2327
sI1
(dp2328
ssI11
(dp2329
I0
(dp2330
sI1
(dp2331
ssI12
(dp2332
I0
(dp2333
ssI13
(dp2334
I0
(dp2335
ssI14
(dp2336
I0
(dp2337
sI1
(dp2338
ssI16
(dp2339
I0
(dp2340
ssI18
(dp2341
I0
(dp2342
ssI19
(dp2343
I0
(dp2344
ssI24
(dp2345
I0
(dp2346
ssI26
(dp2347
I0
(dp2348
ssI29
(dp2349
I0
(dp2350
sssI4
(dp2351
I0
g2109
sI2
g2235
sI3
g2321
sI5
(dp2352
I0
(dp2353
ssI6
(dp2354
I0
(dp2355
sI1
(dp2356
ssI7
(dp2357
I0
(dp2358
ssI9
(dp2359
I0
(dp2360
sI1
(dp2361
ssI12
(dp2362
I0
(dp2363
ssI13
(dp2364
I0
(dp2365
ssI14
(dp2366
I0
(dp2367
sI1
(dp2368
ssI16
(dp2369
I0
(dp2370
ssI17
(dp2371
I0
(dp2372
sI1
(dp2373
ssI18
(dp2374
I0
(dp2375
sI1
(dp2376
sI2
(dp2377
ssI19
(dp2378
I0
(dp2379
sI1
(dp2380
ssI21
(dp2381
I0
(dp2382
ssI24
(dp2383
I0
(dp2384
ssI25
(dp2385
I0
(dp2386
ssI27
(dp2387
I0
(dp2388
sI1
(dp2389
sI2
(dp2390
sI3
(dp2391
sssI5
(dp2392
I0
g2111
sI1
g2173
sI2
g2238
sI3
g2323
sI4
g2352
sI6
(dp2393
I0
(dp2394
sI1
(dp2395
ssI7
(dp2396
I0
(dp2397
ssI8
(dp2398
I0
(dp2399
ssI9
(dp2400
I0
(dp2401
ssI13
(dp2402
I0
(dp2403
sI1
(dp2404
ssI14
(dp2405
I0
(dp2406
ssI15
(dp2407
I0
(dp2408
sI1
(dp2409
ssI19
(dp2410
I0
(dp2411
sI1
(dp2412
ssI25
(dp2413
I0
(dp2414
ssI28
(dp2415
I0
(dp2416
sI1
(dp2417
sssI6
(dp2418
I0
g2116
sI1
g2177
sI4
g2354
sI5
g2393
sI7
(dp2419
I0
(dp2420
ssI9
(dp2421
I0
(dp2422
sI1
(dp2423
ssI11
(dp2424
I0
(dp2425
ssI12
(dp2426
I0
(dp2427
sI1
(dp2428
sI2
(dp2429
ssI14
(dp2430
I0
(dp2431
ssI16
(dp2432
I0
(dp2433
ssI18
(dp2434
I0
(dp2435
ssI23
(dp2436
I0
(dp2437
ssI29
(dp2438
I0
(dp2439
sssI7
(dp2440
I0
g2119
sI1
g2183
sI2
g2240
sI4
g2357
sI5
g2396
sI6
g2419
sI8
(dp2441
I0
(dp2442
ssI9
(dp2443
I0
(dp2444
ssI12
(dp2445
I0
(dp2446
ssI16
(dp2447
I0
(dp2448
ssI20
(dp2449
I0
(dp2450
ssI29
(dp2451
I0
(dp2452
sssI8
(dp2453
I1
g2185
sI2
g2245
sI3
g2326
sI5
g2398
sI7
g2441
sI10
(dp2454
I0
(dp2455
ssI13
(dp2456
I0
(dp2457
ssI17
(dp2458
I0
(dp2459
ssI22
(dp2460
I0
(dp2461
sI1
(dp2462
ssI23
(dp2463
I0
(dp2464
ssI24
(dp2465
I0
(dp2466
ssI26
(dp2467
I0
(dp2468
ssI27
(dp2469
I0
(dp2470
sssI9
(dp2471
I0
g2122
sI1
g2189
sI2
g2248
sI4
g2359
sI5
g2400
sI6
g2421
sI7
g2443
sI11
(dp2472
I0
(dp2473
sI1
(dp2474
sI2
(dp2475
ssI12
(dp2476
I0
(dp2477
sI1
(dp2478
ssI13
(dp2479
I0
(dp2480
ssI14
(dp2481
I0
(dp2482
ssI15
(dp2483
I0
(dp2484
ssI16
(dp2485
I0
(dp2486
ssI17
(dp2487
I0
(dp2488
ssI20
(dp2489
I0
(dp2490
sI1
(dp2491
ssI21
(dp2492
I0
(dp2493
sI1
(dp2494
ssI24
(dp2495
I0
(dp2496
ssI25
(dp2497
I0
(dp2498
ssI26
(dp2499
I0
(dp2500
sssI10
(dp2501
I0
g2125
sI2
g2254
sI8
g2454
sI15
(dp2502
I0
(dp2503
ssI16
(dp2504
I0
(dp2505
ssI20
(dp2506
I0
(dp2507
sI1
(dp2508
ssI24
(dp2509
I0
(dp2510
ssI27
(dp2511
I0
(dp2512
ssI28
(dp2513
I0
(dp2514
sssI11
(dp2515
I0
g2127
sI1
g2191
sI2
g2260
sI3
g2329
sI6
g2424
sI9
g2472
sI13
(dp2516
I0
(dp2517
ssI15
(dp2518
I0
(dp2519
sI1
(dp2520
ssI17
(dp2521
I0
(dp2522
ssI18
(dp2523
I0
(dp2524
ssI22
(dp2525
I0
(dp2526
ssI24
(dp2527
I0
(dp2528
sI1
(dp2529
ssI25
(dp2530
I0
(dp2531
sI1
(dp2532
ssI26
(dp2533
I0
(dp2534
ssI29
(dp2535
I0
(dp2536
sI1
(dp2537
sssI12
(dp2538
I0
g2131
sI1
g2193
sI2
g2262
sI3
g2332
sI4
g2362
sI6
g2426
sI7
g2445
sI9
g2476
sI13
(dp2539
I0
(dp2540
ssI14
(dp2541
I0
(dp2542
ssI16
(dp2543
I0
(dp2544
ssI17
(dp2545
I0
(dp2546
sI1
(dp2547
ssI18
(dp2548
I0
(dp2549
ssI19
(dp2550
I0
(dp2551
ssI20
(dp2552
I0
(dp2553
sI1
(dp2554
ssI21
(dp2555
I0
(dp2556
ssI22
(dp2557
I0
(dp2558
sI1
(dp2559
ssI23
(dp2560
I0
(dp2561
ssI25
(dp2562
I0
(dp2563
ssI26
(dp2564
I0
(dp2565
ssI27
(dp2566
I0
(dp2567
ssI28
(dp2568
I0
(dp2569
sI1
(dp2570
sssI13
(dp2571
I0
g2133
sI1
g2197
sI2
g2267
sI3
g2334
sI4
g2364
sI5
g2402
sI8
g2456
sI9
g2479
sI11
g2516
sI12
g2539
sI15
(dp2572
I0
(dp2573
ssI19
(dp2574
I0
(dp2575
ssI25
(dp2576
I0
(dp2577
ssI26
(dp2578
I0
(dp2579
ssI27
(dp2580
I0
(dp2581
sssI14
(dp2582
I0
g2136
sI1
g2199
sI2
g2270
sI3
g2336
sI4
g2366
sI5
g2405
sI6
g2430
sI9
g2481
sI12
g2541
sI15
(dp2583
I0
(dp2584
sI1
(dp2585
ssI16
(dp2586
I0
(dp2587
ssI19
(dp2588
I0
(dp2589
sI1
(dp2590
ssI21
(dp2591
I0
(dp2592
sI1
(dp2593
sI2
(dp2594
ssI22
(dp2595
I0
(dp2596
ssI24
(dp2597
I0
(dp2598
ssI26
(dp2599
I0
(dp2600
ssI28
(dp2601
I0
(dp2602
sI1
(dp2603
sssI15
(dp2604
I0
g2138
sI1
g2204
sI2
g2272
sI5
g2407
sI9
g2483
sI10
g2502
sI11
g2518
sI13
g2572
sI14
g2583
sI16
(dp2605
I0
(dp2606
sI1
(dp2607
ssI18
(dp2608
I0
(dp2609
ssI22
(dp2610
I0
(dp2611
ssI29
(dp2612
I0
(dp2613
sssI16
(dp2614
I1
g2206
sI2
g2276
sI3
g2339
sI4
g2369
sI6
g2432
sI7
g2447
sI9
g2485
sI10
g2504
sI12
g2543
sI14
g2586
sI15
g2605
sI18
(dp2615
I0
(dp2616
ssI25
(dp2617
I0
(dp2618
ssI27
(dp2619
I0
(dp2620
ssI29
(dp2621
I0
(dp2622
sssI17
(dp2623
I0
g2140
sI1
g2208
sI2
g2282
sI4
g2371
sI8
g2458
sI9
g2487
sI11
g2521
sI12
g2545
sI20
(dp2624
I0
(dp2625
sI1
(dp2626
ssI27
(dp2627
I0
(dp2628
sI1
(dp2629
sI2
(dp2630
sssI18
(dp2631
I1
g2211
sI2
g2287
sI3
g2341
sI4
g2374
sI6
g2434
sI11
g2523
sI12
g2548
sI15
g2608
sI16
g2615
sI19
(dp2632
I0
(dp2633
sI1
(dp2634
ssI20
(dp2635
I0
(dp2636
sI1
(dp2637
ssI21
(dp2638
I0
(dp2639
ssI22
(dp2640
I0
(dp2641
sI1
(dp2642
sI2
(dp2643
ssI25
(dp2644
I0
(dp2645
ssI26
(dp2646
I0
(dp2647
ssI28
(dp2648
I0
(dp2649
ssI29
(dp2650
I0
(dp2651
sssI19
(dp2652
I0
g2145
sI1
g2213
sI3
g2343
sI4
g2378
sI5
g2410
sI12
g2550
sI13
g2574
sI14
g2588
sI18
g2632
sI22
(dp2653
I0
(dp2654
ssI27
(dp2655
I0
(dp2656
ssI29
(dp2657
I0
(dp2658
sssI20
(dp2659
I0
g2147
sI2
g2292
sI7
g2449
sI9
g2489
sI10
g2506
sI12
g2552
sI17
g2624
sI18
g2635
sI24
(dp2660
I0
(dp2661
ssI27
(dp2662
I0
(dp2663
sI1
(dp2664
ssI28
(dp2665
I0
(dp2666
sssI21
(dp2667
I0
g2149
sI1
g2215
sI4
g2381
sI9
g2492
sI12
g2555
sI14
g2591
sI18
g2638
sI24
(dp2668
I0
(dp2669
ssI26
(dp2670
I0
(dp2671
ssI27
(dp2672
I0
(dp2673
sI1
(dp2674
ssI29
(dp2675
I0
(dp2676
sssI22
(dp2677
I1
g2217
sI2
g2296
sI8
g2460
sI11
g2525
sI12
g2557
sI14
g2595
sI15
g2610
sI18
g2640
sI19
g2653
sI24
(dp2678
I0
(dp2679
sI1
(dp2680
ssI25
(dp2681
I0
(dp2682
sI1
(dp2683
ssI29
(dp2684
I0
(dp2685
sssI23
(dp2686
I0
g2152
sI2
g2299
sI6
g2436
sI8
g2463
sI12
g2560
sI24
(dp2687
I0
(dp2688
ssI27
(dp2689
I0
(dp2690
sI1
(dp2691
sI2
(dp2692
sI3
(dp2693
sssI24
(dp2694
I0
g2156
sI1
g2219
sI2
g2303
sI3
g2345
sI4
g2383
sI8
g2465
sI9
g2495
sI10
g2509
sI11
g2527
sI14
g2597
sI20
g2660
sI21
g2668
sI22
g2678
sI23
g2687
sI25
(dp2695
I0
(dp2696
sI1
(dp2697
ssI27
(dp2698
I0
(dp2699
sssI25
(dp2700
I2
g2306
sI4
g2385
sI5
g2413
sI9
g2497
sI11
g2530
sI12
g2562
sI13
g2576
sI16
g2617
sI18
g2644
sI22
g2681
sI24
g2695
sI26
(dp2701
I0
(dp2702
sI1
(dp2703
sssI26
(dp2704
I0
g2158
sI1
g2222
sI3
g2347
sI8
g2467
sI9
g2499
sI11
g2533
sI12
g2564
sI13
g2578
sI14
g2599
sI18
g2646
sI21
g2670
sI25
g2701
sI27
(dp2705
I0
(dp2706
sI1
(dp2707
sI2
(dp2708
ssI28
(dp2709
I0
(dp2710
sssI27
(dp2711
I0
g2161
sI2
g2309
sI4
g2387
sI8
g2469
sI10
g2511
sI12
g2566
sI13
g2580
sI16
g2619
sI17
g2627
sI19
g2655
sI20
g2662
sI21
g2672
sI23
g2689
sI24
g2698
sI26
g2705
sI29
(dp2712
I0
(dp2713
sI1
(dp2714
sssI28
(dp2715
I1
g2225
sI2
g2312
sI5
g2415
sI10
g2513
sI12
g2568
sI14
g2601
sI18
g2648
sI20
g2665
sI26
g2709
sI29
(dp2716
I0
(dp2717
sssI29
(dp2718
I0
g2164
sI2
g2314
sI3
g2349
sI6
g2438
sI7
g2451
sI11
g2535
sI15
g2612
sI16
g2621
sI18
g2650
sI19
g2657
sI21
g2675
sI22
g2684
sI27
g2712
sI28
g2716
sssg184
g2091
sba.