(lp0
ccopy_reg
_reconstructor
p1
(cnetworkx.classes.multidigraph
MultiDiGraph
p2
c__builtin__
object
p3
Ntp4
Rp5
(dp6
S'node'
p7
(dp8
I0
(dp9
sI1
(dp10
sI2
(dp11
sI3
(dp12
sI4
(dp13
sI5
(dp14
sI6
(dp15
sI7
(dp16
sI8
(dp17
sI9
(dp18
sI10
(dp19
sI11
(dp20
sI12
(dp21
sI13
(dp22
sI14
(dp23
sI15
(dp24
sI16
(dp25
sI17
(dp26
sI18
(dp27
sI19
(dp28
sI20
(dp29
sI21
(dp30
sI22
(dp31
sI23
(dp32
sI24
(dp33
sI25
(dp34
sI26
(dp35
sI27
(dp36
sI28
(dp37
sI29
(dp38
ssS'graph'
p39
(dp40
S'name'
p41
S'my BA graph, directed and muliple(30,4)'
p42
ssS'succ'
p43
(dp44
I0
(dp45
I1
(dp46
I0
(dp47
ssI2
(dp48
I0
(dp49
ssI3
(dp50
I0
(dp51
ssI5
(dp52
I0
(dp53
ssI6
(dp54
I0
(dp55
ssI12
(dp56
I0
(dp57
ssI15
(dp58
I0
(dp59
ssI17
(dp60
I0
(dp61
ssI21
(dp62
I0
(dp63
ssI26
(dp64
I0
(dp65
ssI29
(dp66
I0
(dp67
sssI1
(dp68
I0
(dp69
I0
(dp70
ssI2
(dp71
I0
(dp72
ssI3
(dp73
I0
(dp74
ssI4
(dp75
I0
(dp76
ssI5
(dp77
I0
(dp78
ssI7
(dp79
I0
(dp80
ssI9
(dp81
I0
(dp82
ssI20
(dp83
I0
(dp84
ssI26
(dp85
I0
(dp86
ssI27
(dp87
I0
(dp88
sssI2
(dp89
I0
(dp90
I0
(dp91
ssI1
(dp92
I0
(dp93
ssI3
(dp94
I0
(dp95
ssI4
(dp96
I0
(dp97
ssI6
(dp98
I0
(dp99
ssI17
(dp100
I0
(dp101
ssI18
(dp102
I0
(dp103
ssI19
(dp104
I0
(dp105
sssI3
(dp106
I0
(dp107
I0
(dp108
ssI1
(dp109
I0
(dp110
ssI2
(dp111
I0
(dp112
ssI7
(dp113
I0
(dp114
ssI8
(dp115
I0
(dp116
ssI13
(dp117
I0
(dp118
ssI19
(dp119
I0
(dp120
ssI25
(dp121
I0
(dp122
sssI4
(dp123
I0
(dp124
I0
(dp125
ssI2
(dp126
I0
(dp127
ssI3
(dp128
I0
(dp129
ssI5
(dp130
I0
(dp131
ssI8
(dp132
I0
(dp133
ssI9
(dp134
I0
(dp135
ssI10
(dp136
I0
(dp137
ssI11
(dp138
I0
(dp139
ssI16
(dp140
I0
(dp141
ssI24
(dp142
I0
(dp143
sssI5
(dp144
I1
(dp145
I0
(dp146
ssI3
(dp147
I0
(dp148
ssI6
(dp149
I0
(dp150
ssI10
(dp151
I0
(dp152
ssI11
(dp153
I0
(dp154
ssI12
(dp155
I0
(dp156
ssI13
(dp157
I0
(dp158
sssI6
(dp159
I0
(dp160
I0
(dp161
ssI1
(dp162
I0
(dp163
ssI5
(dp164
I0
(dp165
ssI12
(dp166
I0
(dp167
ssI23
(dp168
I0
(dp169
ssI27
(dp170
I0
(dp171
sssI7
(dp172
I0
(dp173
I0
(dp174
ssI3
(dp175
I0
(dp176
ssI6
(dp177
I0
(dp178
ssI8
(dp179
I0
(dp180
ssI9
(dp181
I0
(dp182
ssI11
(dp183
I0
(dp184
ssI15
(dp185
I0
(dp186
ssI20
(dp187
I0
(dp188
sssI8
(dp189
I24
(dp190
I0
(dp191
ssI4
(dp192
I0
(dp193
ssI14
(dp194
I0
(dp195
ssI6
(dp196
I0
(dp197
sssI9
(dp198
I1
(dp199
I0
(dp200
ssI2
(dp201
I0
(dp202
ssI7
(dp203
I0
(dp204
sssI10
(dp205
I3
(dp206
I0
(dp207
ssI5
(dp208
I0
(dp209
ssI6
(dp210
I0
(dp211
sssI11
(dp212
I5
(dp213
I0
(dp214
ssI6
(dp215
I0
(dp216
ssI14
(dp217
I0
(dp218
ssI15
(dp219
I0
(dp220
ssI16
(dp221
I0
(dp222
ssI28
(dp223
I0
(dp224
sssI12
(dp225
I0
(dp226
I0
(dp227
ssI25
(dp228
I0
(dp229
ssI2
(dp230
I0
(dp231
ssI22
(dp232
I0
(dp233
ssI6
(dp234
I0
(dp235
sssI13
(dp236
I0
(dp237
I0
(dp238
ssI5
(dp239
I0
(dp240
ssI6
(dp241
I0
(dp242
ssI14
(dp243
I0
(dp244
ssI18
(dp245
I0
(dp246
ssI27
(dp247
I0
(dp248
sssI14
(dp249
I17
(dp250
I0
(dp251
ssI18
(dp252
I0
(dp253
ssI11
(dp254
I0
(dp255
ssI4
(dp256
I0
(dp257
ssI26
(dp258
I0
(dp259
sssI15
(dp260
I0
(dp261
I0
(dp262
ssI2
(dp263
I0
(dp264
ssI29
(dp265
I0
(dp266
ssI21
(dp267
I0
(dp268
ssI7
(dp269
I0
(dp270
sssI16
(dp271
I2
(dp272
I0
(dp273
ssI4
(dp274
I0
(dp275
ssI15
(dp276
I0
(dp277
sssI17
(dp278
I2
(dp279
I0
(dp280
ssI11
(dp281
I0
(dp282
ssI21
(dp283
I0
(dp284
ssI23
(dp285
I0
(dp286
sssI18
(dp287
I2
(dp288
I0
(dp289
ssI4
(dp290
I0
(dp291
ssI14
(dp292
I0
(dp293
sssI19
(dp294
I23
(dp295
I0
(dp296
ssI9
(dp297
I0
(dp298
ssI3
(dp299
I0
(dp300
ssI20
(dp301
I0
(dp302
ssI15
(dp303
I0
(dp304
sssI20
(dp305
I24
(dp306
I0
(dp307
ssI28
(dp308
I0
(dp309
ssI19
(dp310
I0
(dp311
ssI12
(dp312
I0
(dp313
sssI21
(dp314
I0
(dp315
I0
(dp316
ssI9
(dp317
I0
(dp318
ssI22
(dp319
I0
(dp320
ssI17
(dp321
I0
(dp322
sssI22
(dp323
I3
(dp324
I0
(dp325
ssI21
(dp326
I0
(dp327
ssI15
(dp328
I0
(dp329
sssI23
(dp330
I19
(dp331
I0
(dp332
ssI14
(dp333
I0
(dp334
sssI24
(dp335
I8
(dp336
I0
(dp337
ssI1
(dp338
I0
(dp339
ssI20
(dp340
I0
(dp341
sssI25
(dp342
I8
(dp343
I0
(dp344
ssI12
(dp345
I0
(dp346
ssI6
(dp347
I0
(dp348
sssI26
(dp349
I1
(dp350
I0
(dp351
ssI11
(dp352
I0
(dp353
ssI29
(dp354
I0
(dp355
sssI27
(dp356
I1
(dp357
I0
(dp358
ssI2
(dp359
I0
(dp360
ssI6
(dp361
I0
(dp362
sssI28
(dp363
I10
(dp364
I0
(dp365
ssI20
(dp366
I0
(dp367
ssI6
(dp368
I0
(dp369
sssI29
(dp370
I26
(dp371
I0
(dp372
ssI2
(dp373
I0
(dp374
ssssS'edge'
p375
g44
sS'pred'
p376
(dp377
I0
(dp378
I1
g69
sI2
g90
sI3
g107
sI4
g124
sI6
g160
sI7
g173
sI12
g226
sI13
g237
sI15
g261
sI21
g315
ssI1
(dp379
I0
g46
sI2
g92
sI3
g109
sI5
g145
sI6
g162
sI9
g199
sI24
g338
sI26
g350
sI27
g357
ssI2
(dp380
I0
g48
sI1
g71
sI3
g111
sI4
g126
sI9
g201
sI12
g230
sI15
g263
sI16
g272
sI17
g279
sI18
g288
sI27
g359
sI29
g373
ssI3
(dp381
I0
g50
sI1
g73
sI2
g94
sI4
g128
sI5
g147
sI7
g175
sI10
g206
sI19
g299
sI22
g324
ssI4
(dp382
I1
g75
sI2
g96
sI8
g192
sI14
g256
sI16
g274
sI18
g290
ssI5
(dp383
I0
g52
sI1
g77
sI4
g130
sI6
g164
sI10
g208
sI11
g213
sI13
g239
ssI6
(dp384
I0
g54
sI2
g98
sI5
g149
sI7
g177
sI8
g196
sI10
g210
sI11
g215
sI12
g234
sI13
g241
sI25
g347
sI27
g361
sI28
g368
ssI7
(dp385
I15
g269
sI1
g79
sI3
g113
sI9
g203
ssI8
(dp386
I24
g336
sI25
g343
sI3
g115
sI4
g132
sI7
g179
ssI9
(dp387
I1
g81
sI19
g297
sI4
g134
sI21
g317
sI7
g181
ssI10
(dp388
I28
g364
sI4
g136
sI5
g151
ssI11
(dp389
I4
g138
sI5
g153
sI7
g183
sI14
g254
sI17
g281
sI26
g352
ssI12
(dp390
I0
g56
sI25
g345
sI20
g312
sI5
g155
sI6
g166
ssI13
(dp391
I3
g117
sI5
g157
ssI14
(dp392
I8
g194
sI18
g292
sI11
g217
sI13
g243
sI23
g333
ssI15
(dp393
I0
g58
sI7
g185
sI11
g219
sI16
g276
sI19
g303
sI22
g328
ssI16
(dp394
I11
g221
sI4
g140
ssI17
(dp395
I0
g60
sI2
g100
sI21
g321
sI14
g250
ssI18
(dp396
I2
g102
sI13
g245
sI14
g252
ssI19
(dp397
I2
g104
sI3
g119
sI20
g310
sI23
g331
ssI20
(dp398
I24
g340
sI1
g83
sI19
g301
sI28
g366
sI7
g187
ssI21
(dp399
I0
g62
sI17
g283
sI22
g326
sI15
g267
ssI22
(dp400
I12
g232
sI21
g319
ssI23
(dp401
I17
g285
sI19
g295
sI6
g168
ssI24
(dp402
I8
g190
sI20
g306
sI4
g142
ssI25
(dp403
I3
g121
sI12
g228
ssI26
(dp404
I0
g64
sI1
g85
sI29
g371
sI14
g258
ssI27
(dp405
I1
g87
sI13
g247
sI6
g170
ssI28
(dp406
I11
g223
sI20
g308
ssI29
(dp407
I0
g66
sI26
g354
sI15
g265
sssS'adj'
p408
g44
sbag1
(g2
g3
Ntp409
Rp410
(dp411
g7
(dp412
I0
(dp413
sI1
(dp414
sI2
(dp415
sI3
(dp416
sI4
(dp417
sI5
(dp418
sI6
(dp419
sI7
(dp420
sI8
(dp421
sI9
(dp422
sI10
(dp423
sI11
(dp424
sI12
(dp425
sI13
(dp426
sI14
(dp427
sI15
(dp428
sI16
(dp429
sI17
(dp430
sI18
(dp431
sI19
(dp432
sI20
(dp433
sI21
(dp434
sI22
(dp435
sI23
(dp436
sI24
(dp437
sI25
(dp438
sI26
(dp439
sI27
(dp440
sI28
(dp441
sI29
(dp442
ssg39
(dp443
g41
S'complete_graph(30)'
p444
ssg43
(dp445
I0
(dp446
I1
(dp447
I0
(dp448
ssI2
(dp449
I0
(dp450
ssI3
(dp451
I0
(dp452
ssI4
(dp453
I0
(dp454
ssI5
(dp455
I0
(dp456
ssI6
(dp457
I0
(dp458
ssI7
(dp459
I0
(dp460
ssI8
(dp461
I0
(dp462
ssI9
(dp463
I0
(dp464
ssI10
(dp465
I0
(dp466
ssI11
(dp467
I0
(dp468
ssI12
(dp469
I0
(dp470
ssI13
(dp471
I0
(dp472
ssI14
(dp473
I0
(dp474
ssI15
(dp475
I0
(dp476
ssI16
(dp477
I0
(dp478
ssI17
(dp479
I0
(dp480
ssI18
(dp481
I0
(dp482
ssI19
(dp483
I0
(dp484
ssI20
(dp485
I0
(dp486
ssI21
(dp487
I0
(dp488
ssI22
(dp489
I0
(dp490
ssI23
(dp491
I0
(dp492
ssI24
(dp493
I0
(dp494
ssI25
(dp495
I0
(dp496
ssI26
(dp497
I0
(dp498
ssI27
(dp499
I0
(dp500
ssI28
(dp501
I0
(dp502
ssI29
(dp503
I0
(dp504
sssI1
(dp505
I0
(dp506
I0
(dp507
ssI2
(dp508
I0
(dp509
ssI3
(dp510
I0
(dp511
ssI4
(dp512
I0
(dp513
ssI5
(dp514
I0
(dp515
ssI6
(dp516
I0
(dp517
ssI7
(dp518
I0
(dp519
ssI8
(dp520
I0
(dp521
ssI9
(dp522
I0
(dp523
ssI10
(dp524
I0
(dp525
ssI11
(dp526
I0
(dp527
ssI12
(dp528
I0
(dp529
ssI13
(dp530
I0
(dp531
ssI14
(dp532
I0
(dp533
ssI15
(dp534
I0
(dp535
ssI16
(dp536
I0
(dp537
ssI17
(dp538
I0
(dp539
ssI18
(dp540
I0
(dp541
ssI19
(dp542
I0
(dp543
ssI20
(dp544
I0
(dp545
ssI21
(dp546
I0
(dp547
ssI22
(dp548
I0
(dp549
ssI23
(dp550
I0
(dp551
ssI24
(dp552
I0
(dp553
ssI25
(dp554
I0
(dp555
ssI26
(dp556
I0
(dp557
ssI27
(dp558
I0
(dp559
ssI28
(dp560
I0
(dp561
ssI29
(dp562
I0
(dp563
sssI2
(dp564
I0
(dp565
I0
(dp566
ssI1
(dp567
I0
(dp568
ssI3
(dp569
I0
(dp570
ssI4
(dp571
I0
(dp572
ssI5
(dp573
I0
(dp574
ssI6
(dp575
I0
(dp576
ssI7
(dp577
I0
(dp578
ssI8
(dp579
I0
(dp580
ssI9
(dp581
I0
(dp582
ssI10
(dp583
I0
(dp584
ssI11
(dp585
I0
(dp586
ssI12
(dp587
I0
(dp588
ssI13
(dp589
I0
(dp590
ssI14
(dp591
I0
(dp592
ssI15
(dp593
I0
(dp594
ssI16
(dp595
I0
(dp596
ssI17
(dp597
I0
(dp598
ssI18
(dp599
I0
(dp600
ssI19
(dp601
I0
(dp602
ssI20
(dp603
I0
(dp604
ssI21
(dp605
I0
(dp606
ssI22
(dp607
I0
(dp608
ssI23
(dp609
I0
(dp610
ssI24
(dp611
I0
(dp612
ssI25
(dp613
I0
(dp614
ssI26
(dp615
I0
(dp616
ssI27
(dp617
I0
(dp618
ssI28
(dp619
I0
(dp620
ssI29
(dp621
I0
(dp622
sssI3
(dp623
I0
(dp624
I0
(dp625
ssI1
(dp626
I0
(dp627
ssI2
(dp628
I0
(dp629
ssI4
(dp630
I0
(dp631
ssI5
(dp632
I0
(dp633
ssI6
(dp634
I0
(dp635
ssI7
(dp636
I0
(dp637
ssI8
(dp638
I0
(dp639
ssI9
(dp640
I0
(dp641
ssI10
(dp642
I0
(dp643
ssI11
(dp644
I0
(dp645
ssI12
(dp646
I0
(dp647
ssI13
(dp648
I0
(dp649
ssI14
(dp650
I0
(dp651
ssI15
(dp652
I0
(dp653
ssI16
(dp654
I0
(dp655
ssI17
(dp656
I0
(dp657
ssI18
(dp658
I0
(dp659
ssI19
(dp660
I0
(dp661
ssI20
(dp662
I0
(dp663
ssI21
(dp664
I0
(dp665
ssI22
(dp666
I0
(dp667
ssI23
(dp668
I0
(dp669
ssI24
(dp670
I0
(dp671
ssI25
(dp672
I0
(dp673
ssI26
(dp674
I0
(dp675
ssI27
(dp676
I0
(dp677
ssI28
(dp678
I0
(dp679
ssI29
(dp680
I0
(dp681
sssI4
(dp682
I0
(dp683
I0
(dp684
ssI1
(dp685
I0
(dp686
ssI2
(dp687
I0
(dp688
ssI3
(dp689
I0
(dp690
ssI5
(dp691
I0
(dp692
ssI6
(dp693
I0
(dp694
ssI7
(dp695
I0
(dp696
ssI8
(dp697
I0
(dp698
ssI9
(dp699
I0
(dp700
ssI10
(dp701
I0
(dp702
ssI11
(dp703
I0
(dp704
ssI12
(dp705
I0
(dp706
ssI13
(dp707
I0
(dp708
ssI14
(dp709
I0
(dp710
ssI15
(dp711
I0
(dp712
ssI16
(dp713
I0
(dp714
ssI17
(dp715
I0
(dp716
ssI18
(dp717
I0
(dp718
ssI19
(dp719
I0
(dp720
ssI20
(dp721
I0
(dp722
ssI21
(dp723
I0
(dp724
ssI22
(dp725
I0
(dp726
ssI23
(dp727
I0
(dp728
ssI24
(dp729
I0
(dp730
ssI25
(dp731
I0
(dp732
ssI26
(dp733
I0
(dp734
ssI27
(dp735
I0
(dp736
ssI28
(dp737
I0
(dp738
ssI29
(dp739
I0
(dp740
sssI5
(dp741
I0
(dp742
I0
(dp743
ssI1
(dp744
I0
(dp745
ssI2
(dp746
I0
(dp747
ssI3
(dp748
I0
(dp749
ssI4
(dp750
I0
(dp751
ssI6
(dp752
I0
(dp753
ssI7
(dp754
I0
(dp755
ssI8
(dp756
I0
(dp757
ssI9
(dp758
I0
(dp759
ssI10
(dp760
I0
(dp761
ssI11
(dp762
I0
(dp763
ssI12
(dp764
I0
(dp765
ssI13
(dp766
I0
(dp767
ssI14
(dp768
I0
(dp769
ssI15
(dp770
I0
(dp771
ssI16
(dp772
I0
(dp773
ssI17
(dp774
I0
(dp775
ssI18
(dp776
I0
(dp777
ssI19
(dp778
I0
(dp779
ssI20
(dp780
I0
(dp781
ssI21
(dp782
I0
(dp783
ssI22
(dp784
I0
(dp785
ssI23
(dp786
I0
(dp787
ssI24
(dp788
I0
(dp789
ssI25
(dp790
I0
(dp791
ssI26
(dp792
I0
(dp793
ssI27
(dp794
I0
(dp795
ssI28
(dp796
I0
(dp797
ssI29
(dp798
I0
(dp799
sssI6
(dp800
I0
(dp801
I0
(dp802
ssI1
(dp803
I0
(dp804
ssI2
(dp805
I0
(dp806
ssI3
(dp807
I0
(dp808
ssI4
(dp809
I0
(dp810
ssI5
(dp811
I0
(dp812
ssI7
(dp813
I0
(dp814
ssI8
(dp815
I0
(dp816
ssI9
(dp817
I0
(dp818
ssI10
(dp819
I0
(dp820
ssI11
(dp821
I0
(dp822
ssI12
(dp823
I0
(dp824
ssI13
(dp825
I0
(dp826
ssI14
(dp827
I0
(dp828
ssI15
(dp829
I0
(dp830
ssI16
(dp831
I0
(dp832
ssI17
(dp833
I0
(dp834
ssI18
(dp835
I0
(dp836
ssI19
(dp837
I0
(dp838
ssI20
(dp839
I0
(dp840
ssI21
(dp841
I0
(dp842
ssI22
(dp843
I0
(dp844
ssI23
(dp845
I0
(dp846
ssI24
(dp847
I0
(dp848
ssI25
(dp849
I0
(dp850
ssI26
(dp851
I0
(dp852
ssI27
(dp853
I0
(dp854
ssI28
(dp855
I0
(dp856
ssI29
(dp857
I0
(dp858
sssI7
(dp859
I0
(dp860
I0
(dp861
ssI1
(dp862
I0
(dp863
ssI2
(dp864
I0
(dp865
ssI3
(dp866
I0
(dp867
ssI4
(dp868
I0
(dp869
ssI5
(dp870
I0
(dp871
ssI6
(dp872
I0
(dp873
ssI8
(dp874
I0
(dp875
ssI9
(dp876
I0
(dp877
ssI10
(dp878
I0
(dp879
ssI11
(dp880
I0
(dp881
ssI12
(dp882
I0
(dp883
ssI13
(dp884
I0
(dp885
ssI14
(dp886
I0
(dp887
ssI15
(dp888
I0
(dp889
ssI16
(dp890
I0
(dp891
ssI17
(dp892
I0
(dp893
ssI18
(dp894
I0
(dp895
ssI19
(dp896
I0
(dp897
ssI20
(dp898
I0
(dp899
ssI21
(dp900
I0
(dp901
ssI22
(dp902
I0
(dp903
ssI23
(dp904
I0
(dp905
ssI24
(dp906
I0
(dp907
ssI25
(dp908
I0
(dp909
ssI26
(dp910
I0
(dp911
ssI27
(dp912
I0
(dp913
ssI28
(dp914
I0
(dp915
ssI29
(dp916
I0
(dp917
sssI8
(dp918
I0
(dp919
I0
(dp920
ssI1
(dp921
I0
(dp922
ssI2
(dp923
I0
(dp924
ssI3
(dp925
I0
(dp926
ssI4
(dp927
I0
(dp928
ssI5
(dp929
I0
(dp930
ssI6
(dp931
I0
(dp932
ssI7
(dp933
I0
(dp934
ssI9
(dp935
I0
(dp936
ssI10
(dp937
I0
(dp938
ssI11
(dp939
I0
(dp940
ssI12
(dp941
I0
(dp942
ssI13
(dp943
I0
(dp944
ssI14
(dp945
I0
(dp946
ssI15
(dp947
I0
(dp948
ssI16
(dp949
I0
(dp950
ssI17
(dp951
I0
(dp952
ssI18
(dp953
I0
(dp954
ssI19
(dp955
I0
(dp956
ssI20
(dp957
I0
(dp958
ssI21
(dp959
I0
(dp960
ssI22
(dp961
I0
(dp962
ssI23
(dp963
I0
(dp964
ssI24
(dp965
I0
(dp966
ssI25
(dp967
I0
(dp968
ssI26
(dp969
I0
(dp970
ssI27
(dp971
I0
(dp972
ssI28
(dp973
I0
(dp974
ssI29
(dp975
I0
(dp976
sssI9
(dp977
I0
(dp978
I0
(dp979
ssI1
(dp980
I0
(dp981
ssI2
(dp982
I0
(dp983
ssI3
(dp984
I0
(dp985
ssI4
(dp986
I0
(dp987
ssI5
(dp988
I0
(dp989
ssI6
(dp990
I0
(dp991
ssI7
(dp992
I0
(dp993
ssI8
(dp994
I0
(dp995
ssI10
(dp996
I0
(dp997
ssI11
(dp998
I0
(dp999
ssI12
(dp1000
I0
(dp1001
ssI13
(dp1002
I0
(dp1003
ssI14
(dp1004
I0
(dp1005
ssI15
(dp1006
I0
(dp1007
ssI16
(dp1008
I0
(dp1009
ssI17
(dp1010
I0
(dp1011
ssI18
(dp1012
I0
(dp1013
ssI19
(dp1014
I0
(dp1015
ssI20
(dp1016
I0
(dp1017
ssI21
(dp1018
I0
(dp1019
ssI22
(dp1020
I0
(dp1021
ssI23
(dp1022
I0
(dp1023
ssI24
(dp1024
I0
(dp1025
ssI25
(dp1026
I0
(dp1027
ssI26
(dp1028
I0
(dp1029
ssI27
(dp1030
I0
(dp1031
ssI28
(dp1032
I0
(dp1033
ssI29
(dp1034
I0
(dp1035
sssI10
(dp1036
I0
(dp1037
I0
(dp1038
ssI1
(dp1039
I0
(dp1040
ssI2
(dp1041
I0
(dp1042
ssI3
(dp1043
I0
(dp1044
ssI4
(dp1045
I0
(dp1046
ssI5
(dp1047
I0
(dp1048
ssI6
(dp1049
I0
(dp1050
ssI7
(dp1051
I0
(dp1052
ssI8
(dp1053
I0
(dp1054
ssI9
(dp1055
I0
(dp1056
ssI11
(dp1057
I0
(dp1058
ssI12
(dp1059
I0
(dp1060
ssI13
(dp1061
I0
(dp1062
ssI14
(dp1063
I0
(dp1064
ssI15
(dp1065
I0
(dp1066
ssI16
(dp1067
I0
(dp1068
ssI17
(dp1069
I0
(dp1070
ssI18
(dp1071
I0
(dp1072
ssI19
(dp1073
I0
(dp1074
ssI20
(dp1075
I0
(dp1076
ssI21
(dp1077
I0
(dp1078
ssI22
(dp1079
I0
(dp1080
ssI23
(dp1081
I0
(dp1082
ssI24
(dp1083
I0
(dp1084
ssI25
(dp1085
I0
(dp1086
ssI26
(dp1087
I0
(dp1088
ssI27
(dp1089
I0
(dp1090
ssI28
(dp1091
I0
(dp1092
ssI29
(dp1093
I0
(dp1094
sssI11
(dp1095
I0
(dp1096
I0
(dp1097
ssI1
(dp1098
I0
(dp1099
ssI2
(dp1100
I0
(dp1101
ssI3
(dp1102
I0
(dp1103
ssI4
(dp1104
I0
(dp1105
ssI5
(dp1106
I0
(dp1107
ssI6
(dp1108
I0
(dp1109
ssI7
(dp1110
I0
(dp1111
ssI8
(dp1112
I0
(dp1113
ssI9
(dp1114
I0
(dp1115
ssI10
(dp1116
I0
(dp1117
ssI12
(dp1118
I0
(dp1119
ssI13
(dp1120
I0
(dp1121
ssI14
(dp1122
I0
(dp1123
ssI15
(dp1124
I0
(dp1125
ssI16
(dp1126
I0
(dp1127
ssI17
(dp1128
I0
(dp1129
ssI18
(dp1130
I0
(dp1131
ssI19
(dp1132
I0
(dp1133
ssI20
(dp1134
I0
(dp1135
ssI21
(dp1136
I0
(dp1137
ssI22
(dp1138
I0
(dp1139
ssI23
(dp1140
I0
(dp1141
ssI24
(dp1142
I0
(dp1143
ssI25
(dp1144
I0
(dp1145
ssI26
(dp1146
I0
(dp1147
ssI27
(dp1148
I0
(dp1149
ssI28
(dp1150
I0
(dp1151
ssI29
(dp1152
I0
(dp1153
sssI12
(dp1154
I0
(dp1155
I0
(dp1156
ssI1
(dp1157
I0
(dp1158
ssI2
(dp1159
I0
(dp1160
ssI3
(dp1161
I0
(dp1162
ssI4
(dp1163
I0
(dp1164
ssI5
(dp1165
I0
(dp1166
ssI6
(dp1167
I0
(dp1168
ssI7
(dp1169
I0
(dp1170
ssI8
(dp1171
I0
(dp1172
ssI9
(dp1173
I0
(dp1174
ssI10
(dp1175
I0
(dp1176
ssI11
(dp1177
I0
(dp1178
ssI13
(dp1179
I0
(dp1180
ssI14
(dp1181
I0
(dp1182
ssI15
(dp1183
I0
(dp1184
ssI16
(dp1185
I0
(dp1186
ssI17
(dp1187
I0
(dp1188
ssI18
(dp1189
I0
(dp1190
ssI19
(dp1191
I0
(dp1192
ssI20
(dp1193
I0
(dp1194
ssI21
(dp1195
I0
(dp1196
ssI22
(dp1197
I0
(dp1198
ssI23
(dp1199
I0
(dp1200
ssI24
(dp1201
I0
(dp1202
ssI25
(dp1203
I0
(dp1204
ssI26
(dp1205
I0
(dp1206
ssI27
(dp1207
I0
(dp1208
ssI28
(dp1209
I0
(dp1210
ssI29
(dp1211
I0
(dp1212
sssI13
(dp1213
I0
(dp1214
I0
(dp1215
ssI1
(dp1216
I0
(dp1217
ssI2
(dp1218
I0
(dp1219
ssI3
(dp1220
I0
(dp1221
ssI4
(dp1222
I0
(dp1223
ssI5
(dp1224
I0
(dp1225
ssI6
(dp1226
I0
(dp1227
ssI7
(dp1228
I0
(dp1229
ssI8
(dp1230
I0
(dp1231
ssI9
(dp1232
I0
(dp1233
ssI10
(dp1234
I0
(dp1235
ssI11
(dp1236
I0
(dp1237
ssI12
(dp1238
I0
(dp1239
ssI14
(dp1240
I0
(dp1241
ssI15
(dp1242
I0
(dp1243
ssI16
(dp1244
I0
(dp1245
ssI17
(dp1246
I0
(dp1247
ssI18
(dp1248
I0
(dp1249
ssI19
(dp1250
I0
(dp1251
ssI20
(dp1252
I0
(dp1253
ssI21
(dp1254
I0
(dp1255
ssI22
(dp1256
I0
(dp1257
ssI23
(dp1258
I0
(dp1259
ssI24
(dp1260
I0
(dp1261
ssI25
(dp1262
I0
(dp1263
ssI26
(dp1264
I0
(dp1265
ssI27
(dp1266
I0
(dp1267
ssI28
(dp1268
I0
(dp1269
ssI29
(dp1270
I0
(dp1271
sssI14
(dp1272
I0
(dp1273
I0
(dp1274
ssI1
(dp1275
I0
(dp1276
ssI2
(dp1277
I0
(dp1278
ssI3
(dp1279
I0
(dp1280
ssI4
(dp1281
I0
(dp1282
ssI5
(dp1283
I0
(dp1284
ssI6
(dp1285
I0
(dp1286
ssI7
(dp1287
I0
(dp1288
ssI8
(dp1289
I0
(dp1290
ssI9
(dp1291
I0
(dp1292
ssI10
(dp1293
I0
(dp1294
ssI11
(dp1295
I0
(dp1296
ssI12
(dp1297
I0
(dp1298
ssI13
(dp1299
I0
(dp1300
ssI15
(dp1301
I0
(dp1302
ssI16
(dp1303
I0
(dp1304
ssI17
(dp1305
I0
(dp1306
ssI18
(dp1307
I0
(dp1308
ssI19
(dp1309
I0
(dp1310
ssI20
(dp1311
I0
(dp1312
ssI21
(dp1313
I0
(dp1314
ssI22
(dp1315
I0
(dp1316
ssI23
(dp1317
I0
(dp1318
ssI24
(dp1319
I0
(dp1320
ssI25
(dp1321
I0
(dp1322
ssI26
(dp1323
I0
(dp1324
ssI27
(dp1325
I0
(dp1326
ssI28
(dp1327
I0
(dp1328
ssI29
(dp1329
I0
(dp1330
sssI15
(dp1331
I0
(dp1332
I0
(dp1333
ssI1
(dp1334
I0
(dp1335
ssI2
(dp1336
I0
(dp1337
ssI3
(dp1338
I0
(dp1339
ssI4
(dp1340
I0
(dp1341
ssI5
(dp1342
I0
(dp1343
ssI6
(dp1344
I0
(dp1345
ssI7
(dp1346
I0
(dp1347
ssI8
(dp1348
I0
(dp1349
ssI9
(dp1350
I0
(dp1351
ssI10
(dp1352
I0
(dp1353
ssI11
(dp1354
I0
(dp1355
ssI12
(dp1356
I0
(dp1357
ssI13
(dp1358
I0
(dp1359
ssI14
(dp1360
I0
(dp1361
ssI16
(dp1362
I0
(dp1363
ssI17
(dp1364
I0
(dp1365
ssI18
(dp1366
I0
(dp1367
ssI19
(dp1368
I0
(dp1369
ssI20
(dp1370
I0
(dp1371
ssI21
(dp1372
I0
(dp1373
ssI22
(dp1374
I0
(dp1375
ssI23
(dp1376
I0
(dp1377
ssI24
(dp1378
I0
(dp1379
ssI25
(dp1380
I0
(dp1381
ssI26
(dp1382
I0
(dp1383
ssI27
(dp1384
I0
(dp1385
ssI28
(dp1386
I0
(dp1387
ssI29
(dp1388
I0
(dp1389
sssI16
(dp1390
I0
(dp1391
I0
(dp1392
ssI1
(dp1393
I0
(dp1394
ssI2
(dp1395
I0
(dp1396
ssI3
(dp1397
I0
(dp1398
ssI4
(dp1399
I0
(dp1400
ssI5
(dp1401
I0
(dp1402
ssI6
(dp1403
I0
(dp1404
ssI7
(dp1405
I0
(dp1406
ssI8
(dp1407
I0
(dp1408
ssI9
(dp1409
I0
(dp1410
ssI10
(dp1411
I0
(dp1412
ssI11
(dp1413
I0
(dp1414
ssI12
(dp1415
I0
(dp1416
ssI13
(dp1417
I0
(dp1418
ssI14
(dp1419
I0
(dp1420
ssI15
(dp1421
I0
(dp1422
ssI17
(dp1423
I0
(dp1424
ssI18
(dp1425
I0
(dp1426
ssI19
(dp1427
I0
(dp1428
ssI20
(dp1429
I0
(dp1430
ssI21
(dp1431
I0
(dp1432
ssI22
(dp1433
I0
(dp1434
ssI23
(dp1435
I0
(dp1436
ssI24
(dp1437
I0
(dp1438
ssI25
(dp1439
I0
(dp1440
ssI26
(dp1441
I0
(dp1442
ssI27
(dp1443
I0
(dp1444
ssI28
(dp1445
I0
(dp1446
ssI29
(dp1447
I0
(dp1448
sssI17
(dp1449
I0
(dp1450
I0
(dp1451
ssI1
(dp1452
I0
(dp1453
ssI2
(dp1454
I0
(dp1455
ssI3
(dp1456
I0
(dp1457
ssI4
(dp1458
I0
(dp1459
ssI5
(dp1460
I0
(dp1461
ssI6
(dp1462
I0
(dp1463
ssI7
(dp1464
I0
(dp1465
ssI8
(dp1466
I0
(dp1467
ssI9
(dp1468
I0
(dp1469
ssI10
(dp1470
I0
(dp1471
ssI11
(dp1472
I0
(dp1473
ssI12
(dp1474
I0
(dp1475
ssI13
(dp1476
I0
(dp1477
ssI14
(dp1478
I0
(dp1479
ssI15
(dp1480
I0
(dp1481
ssI16
(dp1482
I0
(dp1483
ssI18
(dp1484
I0
(dp1485
ssI19
(dp1486
I0
(dp1487
ssI20
(dp1488
I0
(dp1489
ssI21
(dp1490
I0
(dp1491
ssI22
(dp1492
I0
(dp1493
ssI23
(dp1494
I0
(dp1495
ssI24
(dp1496
I0
(dp1497
ssI25
(dp1498
I0
(dp1499
ssI26
(dp1500
I0
(dp1501
ssI27
(dp1502
I0
(dp1503
ssI28
(dp1504
I0
(dp1505
ssI29
(dp1506
I0
(dp1507
sssI18
(dp1508
I0
(dp1509
I0
(dp1510
ssI1
(dp1511
I0
(dp1512
ssI2
(dp1513
I0
(dp1514
ssI3
(dp1515
I0
(dp1516
ssI4
(dp1517
I0
(dp1518
ssI5
(dp1519
I0
(dp1520
ssI6
(dp1521
I0
(dp1522
ssI7
(dp1523
I0
(dp1524
ssI8
(dp1525
I0
(dp1526
ssI9
(dp1527
I0
(dp1528
ssI10
(dp1529
I0
(dp1530
ssI11
(dp1531
I0
(dp1532
ssI12
(dp1533
I0
(dp1534
ssI13
(dp1535
I0
(dp1536
ssI14
(dp1537
I0
(dp1538
ssI15
(dp1539
I0
(dp1540
ssI16
(dp1541
I0
(dp1542
ssI17
(dp1543
I0
(dp1544
ssI19
(dp1545
I0
(dp1546
ssI20
(dp1547
I0
(dp1548
ssI21
(dp1549
I0
(dp1550
ssI22
(dp1551
I0
(dp1552
ssI23
(dp1553
I0
(dp1554
ssI24
(dp1555
I0
(dp1556
ssI25
(dp1557
I0
(dp1558
ssI26
(dp1559
I0
(dp1560
ssI27
(dp1561
I0
(dp1562
ssI28
(dp1563
I0
(dp1564
ssI29
(dp1565
I0
(dp1566
sssI19
(dp1567
I0
(dp1568
I0
(dp1569
ssI1
(dp1570
I0
(dp1571
ssI2
(dp1572
I0
(dp1573
ssI3
(dp1574
I0
(dp1575
ssI4
(dp1576
I0
(dp1577
ssI5
(dp1578
I0
(dp1579
ssI6
(dp1580
I0
(dp1581
ssI7
(dp1582
I0
(dp1583
ssI8
(dp1584
I0
(dp1585
ssI9
(dp1586
I0
(dp1587
ssI10
(dp1588
I0
(dp1589
ssI11
(dp1590
I0
(dp1591
ssI12
(dp1592
I0
(dp1593
ssI13
(dp1594
I0
(dp1595
ssI14
(dp1596
I0
(dp1597
ssI15
(dp1598
I0
(dp1599
ssI16
(dp1600
I0
(dp1601
ssI17
(dp1602
I0
(dp1603
ssI18
(dp1604
I0
(dp1605
ssI20
(dp1606
I0
(dp1607
ssI21
(dp1608
I0
(dp1609
ssI22
(dp1610
I0
(dp1611
ssI23
(dp1612
I0
(dp1613
ssI24
(dp1614
I0
(dp1615
ssI25
(dp1616
I0
(dp1617
ssI26
(dp1618
I0
(dp1619
ssI27
(dp1620
I0
(dp1621
ssI28
(dp1622
I0
(dp1623
ssI29
(dp1624
I0
(dp1625
sssI20
(dp1626
I0
(dp1627
I0
(dp1628
ssI1
(dp1629
I0
(dp1630
ssI2
(dp1631
I0
(dp1632
ssI3
(dp1633
I0
(dp1634
ssI4
(dp1635
I0
(dp1636
ssI5
(dp1637
I0
(dp1638
ssI6
(dp1639
I0
(dp1640
ssI7
(dp1641
I0
(dp1642
ssI8
(dp1643
I0
(dp1644
ssI9
(dp1645
I0
(dp1646
ssI10
(dp1647
I0
(dp1648
ssI11
(dp1649
I0
(dp1650
ssI12
(dp1651
I0
(dp1652
ssI13
(dp1653
I0
(dp1654
ssI14
(dp1655
I0
(dp1656
ssI15
(dp1657
I0
(dp1658
ssI16
(dp1659
I0
(dp1660
ssI17
(dp1661
I0
(dp1662
ssI18
(dp1663
I0
(dp1664
ssI19
(dp1665
I0
(dp1666
ssI21
(dp1667
I0
(dp1668
ssI22
(dp1669
I0
(dp1670
ssI23
(dp1671
I0
(dp1672
ssI24
(dp1673
I0
(dp1674
ssI25
(dp1675
I0
(dp1676
ssI26
(dp1677
I0
(dp1678
ssI27
(dp1679
I0
(dp1680
ssI28
(dp1681
I0
(dp1682
ssI29
(dp1683
I0
(dp1684
sssI21
(dp1685
I0
(dp1686
I0
(dp1687
ssI1
(dp1688
I0
(dp1689
ssI2
(dp1690
I0
(dp1691
ssI3
(dp1692
I0
(dp1693
ssI4
(dp1694
I0
(dp1695
ssI5
(dp1696
I0
(dp1697
ssI6
(dp1698
I0
(dp1699
ssI7
(dp1700
I0
(dp1701
ssI8
(dp1702
I0
(dp1703
ssI9
(dp1704
I0
(dp1705
ssI10
(dp1706
I0
(dp1707
ssI11
(dp1708
I0
(dp1709
ssI12
(dp1710
I0
(dp1711
ssI13
(dp1712
I0
(dp1713
ssI14
(dp1714
I0
(dp1715
ssI15
(dp1716
I0
(dp1717
ssI16
(dp1718
I0
(dp1719
ssI17
(dp1720
I0
(dp1721
ssI18
(dp1722
I0
(dp1723
ssI19
(dp1724
I0
(dp1725
ssI20
(dp1726
I0
(dp1727
ssI22
(dp1728
I0
(dp1729
ssI23
(dp1730
I0
(dp1731
ssI24
(dp1732
I0
(dp1733
ssI25
(dp1734
I0
(dp1735
ssI26
(dp1736
I0
(dp1737
ssI27
(dp1738
I0
(dp1739
ssI28
(dp1740
I0
(dp1741
ssI29
(dp1742
I0
(dp1743
sssI22
(dp1744
I0
(dp1745
I0
(dp1746
ssI1
(dp1747
I0
(dp1748
ssI2
(dp1749
I0
(dp1750
ssI3
(dp1751
I0
(dp1752
ssI4
(dp1753
I0
(dp1754
ssI5
(dp1755
I0
(dp1756
ssI6
(dp1757
I0
(dp1758
ssI7
(dp1759
I0
(dp1760
ssI8
(dp1761
I0
(dp1762
ssI9
(dp1763
I0
(dp1764
ssI10
(dp1765
I0
(dp1766
ssI11
(dp1767
I0
(dp1768
ssI12
(dp1769
I0
(dp1770
ssI13
(dp1771
I0
(dp1772
ssI14
(dp1773
I0
(dp1774
ssI15
(dp1775
I0
(dp1776
ssI16
(dp1777
I0
(dp1778
ssI17
(dp1779
I0
(dp1780
ssI18
(dp1781
I0
(dp1782
ssI19
(dp1783
I0
(dp1784
ssI20
(dp1785
I0
(dp1786
ssI21
(dp1787
I0
(dp1788
ssI23
(dp1789
I0
(dp1790
ssI24
(dp1791
I0
(dp1792
ssI25
(dp1793
I0
(dp1794
ssI26
(dp1795
I0
(dp1796
ssI27
(dp1797
I0
(dp1798
ssI28
(dp1799
I0
(dp1800
ssI29
(dp1801
I0
(dp1802
sssI23
(dp1803
I0
(dp1804
I0
(dp1805
ssI1
(dp1806
I0
(dp1807
ssI2
(dp1808
I0
(dp1809
ssI3
(dp1810
I0
(dp1811
ssI4
(dp1812
I0
(dp1813
ssI5
(dp1814
I0
(dp1815
ssI6
(dp1816
I0
(dp1817
ssI7
(dp1818
I0
(dp1819
ssI8
(dp1820
I0
(dp1821
ssI9
(dp1822
I0
(dp1823
ssI10
(dp1824
I0
(dp1825
ssI11
(dp1826
I0
(dp1827
ssI12
(dp1828
I0
(dp1829
ssI13
(dp1830
I0
(dp1831
ssI14
(dp1832
I0
(dp1833
ssI15
(dp1834
I0
(dp1835
ssI16
(dp1836
I0
(dp1837
ssI17
(dp1838
I0
(dp1839
ssI18
(dp1840
I0
(dp1841
ssI19
(dp1842
I0
(dp1843
ssI20
(dp1844
I0
(dp1845
ssI21
(dp1846
I0
(dp1847
ssI22
(dp1848
I0
(dp1849
ssI24
(dp1850
I0
(dp1851
ssI25
(dp1852
I0
(dp1853
ssI26
(dp1854
I0
(dp1855
ssI27
(dp1856
I0
(dp1857
ssI28
(dp1858
I0
(dp1859
ssI29
(dp1860
I0
(dp1861
sssI24
(dp1862
I0
(dp1863
I0
(dp1864
ssI1
(dp1865
I0
(dp1866
ssI2
(dp1867
I0
(dp1868
ssI3
(dp1869
I0
(dp1870
ssI4
(dp1871
I0
(dp1872
ssI5
(dp1873
I0
(dp1874
ssI6
(dp1875
I0
(dp1876
ssI7
(dp1877
I0
(dp1878
ssI8
(dp1879
I0
(dp1880
ssI9
(dp1881
I0
(dp1882
ssI10
(dp1883
I0
(dp1884
ssI11
(dp1885
I0
(dp1886
ssI12
(dp1887
I0
(dp1888
ssI13
(dp1889
I0
(dp1890
ssI14
(dp1891
I0
(dp1892
ssI15
(dp1893
I0
(dp1894
ssI16
(dp1895
I0
(dp1896
ssI17
(dp1897
I0
(dp1898
ssI18
(dp1899
I0
(dp1900
ssI19
(dp1901
I0
(dp1902
ssI20
(dp1903
I0
(dp1904
ssI21
(dp1905
I0
(dp1906
ssI22
(dp1907
I0
(dp1908
ssI23
(dp1909
I0
(dp1910
ssI25
(dp1911
I0
(dp1912
ssI26
(dp1913
I0
(dp1914
ssI27
(dp1915
I0
(dp1916
ssI28
(dp1917
I0
(dp1918
ssI29
(dp1919
I0
(dp1920
sssI25
(dp1921
I0
(dp1922
I0
(dp1923
ssI1
(dp1924
I0
(dp1925
ssI2
(dp1926
I0
(dp1927
ssI3
(dp1928
I0
(dp1929
ssI4
(dp1930
I0
(dp1931
ssI5
(dp1932
I0
(dp1933
ssI6
(dp1934
I0
(dp1935
ssI7
(dp1936
I0
(dp1937
ssI8
(dp1938
I0
(dp1939
ssI9
(dp1940
I0
(dp1941
ssI10
(dp1942
I0
(dp1943
ssI11
(dp1944
I0
(dp1945
ssI12
(dp1946
I0
(dp1947
ssI13
(dp1948
I0
(dp1949
ssI14
(dp1950
I0
(dp1951
ssI15
(dp1952
I0
(dp1953
ssI16
(dp1954
I0
(dp1955
ssI17
(dp1956
I0
(dp1957
ssI18
(dp1958
I0
(dp1959
ssI19
(dp1960
I0
(dp1961
ssI20
(dp1962
I0
(dp1963
ssI21
(dp1964
I0
(dp1965
ssI22
(dp1966
I0
(dp1967
ssI23
(dp1968
I0
(dp1969
ssI24
(dp1970
I0
(dp1971
ssI26
(dp1972
I0
(dp1973
ssI27
(dp1974
I0
(dp1975
ssI28
(dp1976
I0
(dp1977
ssI29
(dp1978
I0
(dp1979
sssI26
(dp1980
I0
(dp1981
I0
(dp1982
ssI1
(dp1983
I0
(dp1984
ssI2
(dp1985
I0
(dp1986
ssI3
(dp1987
I0
(dp1988
ssI4
(dp1989
I0
(dp1990
ssI5
(dp1991
I0
(dp1992
ssI6
(dp1993
I0
(dp1994
ssI7
(dp1995
I0
(dp1996
ssI8
(dp1997
I0
(dp1998
ssI9
(dp1999
I0
(dp2000
ssI10
(dp2001
I0
(dp2002
ssI11
(dp2003
I0
(dp2004
ssI12
(dp2005
I0
(dp2006
ssI13
(dp2007
I0
(dp2008
ssI14
(dp2009
I0
(dp2010
ssI15
(dp2011
I0
(dp2012
ssI16
(dp2013
I0
(dp2014
ssI17
(dp2015
I0
(dp2016
ssI18
(dp2017
I0
(dp2018
ssI19
(dp2019
I0
(dp2020
ssI20
(dp2021
I0
(dp2022
ssI21
(dp2023
I0
(dp2024
ssI22
(dp2025
I0
(dp2026
ssI23
(dp2027
I0
(dp2028
ssI24
(dp2029
I0
(dp2030
ssI25
(dp2031
I0
(dp2032
ssI27
(dp2033
I0
(dp2034
ssI28
(dp2035
I0
(dp2036
ssI29
(dp2037
I0
(dp2038
sssI27
(dp2039
I0
(dp2040
I0
(dp2041
ssI1
(dp2042
I0
(dp2043
ssI2
(dp2044
I0
(dp2045
ssI3
(dp2046
I0
(dp2047
ssI4
(dp2048
I0
(dp2049
ssI5
(dp2050
I0
(dp2051
ssI6
(dp2052
I0
(dp2053
ssI7
(dp2054
I0
(dp2055
ssI8
(dp2056
I0
(dp2057
ssI9
(dp2058
I0
(dp2059
ssI10
(dp2060
I0
(dp2061
ssI11
(dp2062
I0
(dp2063
ssI12
(dp2064
I0
(dp2065
ssI13
(dp2066
I0
(dp2067
ssI14
(dp2068
I0
(dp2069
ssI15
(dp2070
I0
(dp2071
ssI16
(dp2072
I0
(dp2073
ssI17
(dp2074
I0
(dp2075
ssI18
(dp2076
I0
(dp2077
ssI19
(dp2078
I0
(dp2079
ssI20
(dp2080
I0
(dp2081
ssI21
(dp2082
I0
(dp2083
ssI22
(dp2084
I0
(dp2085
ssI23
(dp2086
I0
(dp2087
ssI24
(dp2088
I0
(dp2089
ssI25
(dp2090
I0
(dp2091
ssI26
(dp2092
I0
(dp2093
ssI28
(dp2094
I0
(dp2095
ssI29
(dp2096
I0
(dp2097
sssI28
(dp2098
I0
(dp2099
I0
(dp2100
ssI1
(dp2101
I0
(dp2102
ssI2
(dp2103
I0
(dp2104
ssI3
(dp2105
I0
(dp2106
ssI4
(dp2107
I0
(dp2108
ssI5
(dp2109
I0
(dp2110
ssI6
(dp2111
I0
(dp2112
ssI7
(dp2113
I0
(dp2114
ssI8
(dp2115
I0
(dp2116
ssI9
(dp2117
I0
(dp2118
ssI10
(dp2119
I0
(dp2120
ssI11
(dp2121
I0
(dp2122
ssI12
(dp2123
I0
(dp2124
ssI13
(dp2125
I0
(dp2126
ssI14
(dp2127
I0
(dp2128
ssI15
(dp2129
I0
(dp2130
ssI16
(dp2131
I0
(dp2132
ssI17
(dp2133
I0
(dp2134
ssI18
(dp2135
I0
(dp2136
ssI19
(dp2137
I0
(dp2138
ssI20
(dp2139
I0
(dp2140
ssI21
(dp2141
I0
(dp2142
ssI22
(dp2143
I0
(dp2144
ssI23
(dp2145
I0
(dp2146
ssI24
(dp2147
I0
(dp2148
ssI25
(dp2149
I0
(dp2150
ssI26
(dp2151
I0
(dp2152
ssI27
(dp2153
I0
(dp2154
ssI29
(dp2155
I0
(dp2156
sssI29
(dp2157
I0
(dp2158
I0
(dp2159
ssI1
(dp2160
I0
(dp2161
ssI2
(dp2162
I0
(dp2163
ssI3
(dp2164
I0
(dp2165
ssI4
(dp2166
I0
(dp2167
ssI5
(dp2168
I0
(dp2169
ssI6
(dp2170
I0
(dp2171
ssI7
(dp2172
I0
(dp2173
ssI8
(dp2174
I0
(dp2175
ssI9
(dp2176
I0
(dp2177
ssI10
(dp2178
I0
(dp2179
ssI11
(dp2180
I0
(dp2181
ssI12
(dp2182
I0
(dp2183
ssI13
(dp2184
I0
(dp2185
ssI14
(dp2186
I0
(dp2187
ssI15
(dp2188
I0
(dp2189
ssI16
(dp2190
I0
(dp2191
ssI17
(dp2192
I0
(dp2193
ssI18
(dp2194
I0
(dp2195
ssI19
(dp2196
I0
(dp2197
ssI20
(dp2198
I0
(dp2199
ssI21
(dp2200
I0
(dp2201
ssI22
(dp2202
I0
(dp2203
ssI23
(dp2204
I0
(dp2205
ssI24
(dp2206
I0
(dp2207
ssI25
(dp2208
I0
(dp2209
ssI26
(dp2210
I0
(dp2211
ssI27
(dp2212
I0
(dp2213
ssI28
(dp2214
I0
(dp2215
ssssg375
g445
sg376
(dp2216
I0
(dp2217
I1
g506
sI2
g565
sI3
g624
sI4
g683
sI5
g742
sI6
g801
sI7
g860
sI8
g919
sI9
g978
sI10
g1037
sI11
g1096
sI12
g1155
sI13
g1214
sI14
g1273
sI15
g1332
sI16
g1391
sI17
g1450
sI18
g1509
sI19
g1568
sI20
g1627
sI21
g1686
sI22
g1745
sI23
g1804
sI24
g1863
sI25
g1922
sI26
g1981
sI27
g2040
sI28
g2099
sI29
g2158
ssI1
(dp2218
I0
g447
sI2
g567
sI3
g626
sI4
g685
sI5
g744
sI6
g803
sI7
g862
sI8
g921
sI9
g980
sI10
g1039
sI11
g1098
sI12
g1157
sI13
g1216
sI14
g1275
sI15
g1334
sI16
g1393
sI17
g1452
sI18
g1511
sI19
g1570
sI20
g1629
sI21
g1688
sI22
g1747
sI23
g1806
sI24
g1865
sI25
g1924
sI26
g1983
sI27
g2042
sI28
g2101
sI29
g2160
ssI2
(dp2219
I0
g449
sI1
g508
sI3
g628
sI4
g687
sI5
g746
sI6
g805
sI7
g864
sI8
g923
sI9
g982
sI10
g1041
sI11
g1100
sI12
g1159
sI13
g1218
sI14
g1277
sI15
g1336
sI16
g1395
sI17
g1454
sI18
g1513
sI19
g1572
sI20
g1631
sI21
g1690
sI22
g1749
sI23
g1808
sI24
g1867
sI25
g1926
sI26
g1985
sI27
g2044
sI28
g2103
sI29
g2162
ssI3
(dp2220
I0
g451
sI1
g510
sI2
g569
sI4
g689
sI5
g748
sI6
g807
sI7
g866
sI8
g925
sI9
g984
sI10
g1043
sI11
g1102
sI12
g1161
sI13
g1220
sI14
g1279
sI15
g1338
sI16
g1397
sI17
g1456
sI18
g1515
sI19
g1574
sI20
g1633
sI21
g1692
sI22
g1751
sI23
g1810
sI24
g1869
sI25
g1928
sI26
g1987
sI27
g2046
sI28
g2105
sI29
g2164
ssI4
(dp2221
I0
g453
sI1
g512
sI2
g571
sI3
g630
sI5
g750
sI6
g809
sI7
g868
sI8
g927
sI9
g986
sI10
g1045
sI11
g1104
sI12
g1163
sI13
g1222
sI14
g1281
sI15
g1340
sI16
g1399
sI17
g1458
sI18
g1517
sI19
g1576
sI20
g1635
sI21
g1694
sI22
g1753
sI23
g1812
sI24
g1871
sI25
g1930
sI26
g1989
sI27
g2048
sI28
g2107
sI29
g2166
ssI5
(dp2222
I0
g455
sI1
g514
sI2
g573
sI3
g632
sI4
g691
sI6
g811
sI7
g870
sI8
g929
sI9
g988
sI10
g1047
sI11
g1106
sI12
g1165
sI13
g1224
sI14
g1283
sI15
g1342
sI16
g1401
sI17
g1460
sI18
g1519
sI19
g1578
sI20
g1637
sI21
g1696
sI22
g1755
sI23
g1814
sI24
g1873
sI25
g1932
sI26
g1991
sI27
g2050
sI28
g2109
sI29
g2168
ssI6
(dp2223
I0
g457
sI1
g516
sI2
g575
sI3
g634
sI4
g693
sI5
g752
sI7
g872
sI8
g931
sI9
g990
sI10
g1049
sI11
g1108
sI12
g1167
sI13
g1226
sI14
g1285
sI15
g1344
sI16
g1403
sI17
g1462
sI18
g1521
sI19
g1580
sI20
g1639
sI21
g1698
sI22
g1757
sI23
g1816
sI24
g1875
sI25
g1934
sI26
g1993
sI27
g2052
sI28
g2111
sI29
g2170
ssI7
(dp2224
I0
g459
sI1
g518
sI2
g577
sI3
g636
sI4
g695
sI5
g754
sI6
g813
sI8
g933
sI9
g992
sI10
g1051
sI11
g1110
sI12
g1169
sI13
g1228
sI14
g1287
sI15
g1346
sI16
g1405
sI17
g1464
sI18
g1523
sI19
g1582
sI20
g1641
sI21
g1700
sI22
g1759
sI23
g1818
sI24
g1877
sI25
g1936
sI26
g1995
sI27
g2054
sI28
g2113
sI29
g2172
ssI8
(dp2225
I0
g461
sI1
g520
sI2
g579
sI3
g638
sI4
g697
sI5
g756
sI6
g815
sI7
g874
sI9
g994
sI10
g1053
sI11
g1112
sI12
g1171
sI13
g1230
sI14
g1289
sI15
g1348
sI16
g1407
sI17
g1466
sI18
g1525
sI19
g1584
sI20
g1643
sI21
g1702
sI22
g1761
sI23
g1820
sI24
g1879
sI25
g1938
sI26
g1997
sI27
g2056
sI28
g2115
sI29
g2174
ssI9
(dp2226
I0
g463
sI1
g522
sI2
g581
sI3
g640
sI4
g699
sI5
g758
sI6
g817
sI7
g876
sI8
g935
sI10
g1055
sI11
g1114
sI12
g1173
sI13
g1232
sI14
g1291
sI15
g1350
sI16
g1409
sI17
g1468
sI18
g1527
sI19
g1586
sI20
g1645
sI21
g1704
sI22
g1763
sI23
g1822
sI24
g1881
sI25
g1940
sI26
g1999
sI27
g2058
sI28
g2117
sI29
g2176
ssI10
(dp2227
I0
g465
sI1
g524
sI2
g583
sI3
g642
sI4
g701
sI5
g760
sI6
g819
sI7
g878
sI8
g937
sI9
g996
sI11
g1116
sI12
g1175
sI13
g1234
sI14
g1293
sI15
g1352
sI16
g1411
sI17
g1470
sI18
g1529
sI19
g1588
sI20
g1647
sI21
g1706
sI22
g1765
sI23
g1824
sI24
g1883
sI25
g1942
sI26
g2001
sI27
g2060
sI28
g2119
sI29
g2178
ssI11
(dp2228
I0
g467
sI1
g526
sI2
g585
sI3
g644
sI4
g703
sI5
g762
sI6
g821
sI7
g880
sI8
g939
sI9
g998
sI10
g1057
sI12
g1177
sI13
g1236
sI14
g1295
sI15
g1354
sI16
g1413
sI17
g1472
sI18
g1531
sI19
g1590
sI20
g1649
sI21
g1708
sI22
g1767
sI23
g1826
sI24
g1885
sI25
g1944
sI26
g2003
sI27
g2062
sI28
g2121
sI29
g2180
ssI12
(dp2229
I0
g469
sI1
g528
sI2
g587
sI3
g646
sI4
g705
sI5
g764
sI6
g823
sI7
g882
sI8
g941
sI9
g1000
sI10
g1059
sI11
g1118
sI13
g1238
sI14
g1297
sI15
g1356
sI16
g1415
sI17
g1474
sI18
g1533
sI19
g1592
sI20
g1651
sI21
g1710
sI22
g1769
sI23
g1828
sI24
g1887
sI25
g1946
sI26
g2005
sI27
g2064
sI28
g2123
sI29
g2182
ssI13
(dp2230
I0
g471
sI1
g530
sI2
g589
sI3
g648
sI4
g707
sI5
g766
sI6
g825
sI7
g884
sI8
g943
sI9
g1002
sI10
g1061
sI11
g1120
sI12
g1179
sI14
g1299
sI15
g1358
sI16
g1417
sI17
g1476
sI18
g1535
sI19
g1594
sI20
g1653
sI21
g1712
sI22
g1771
sI23
g1830
sI24
g1889
sI25
g1948
sI26
g2007
sI27
g2066
sI28
g2125
sI29
g2184
ssI14
(dp2231
I0
g473
sI1
g532
sI2
g591
sI3
g650
sI4
g709
sI5
g768
sI6
g827
sI7
g886
sI8
g945
sI9
g1004
sI10
g1063
sI11
g1122
sI12
g1181
sI13
g1240
sI15
g1360
sI16
g1419
sI17
g1478
sI18
g1537
sI19
g1596
sI20
g1655
sI21
g1714
sI22
g1773
sI23
g1832
sI24
g1891
sI25
g1950
sI26
g2009
sI27
g2068
sI28
g2127
sI29
g2186
ssI15
(dp2232
I0
g475
sI1
g534
sI2
g593
sI3
g652
sI4
g711
sI5
g770
sI6
g829
sI7
g888
sI8
g947
sI9
g1006
sI10
g1065
sI11
g1124
sI12
g1183
sI13
g1242
sI14
g1301
sI16
g1421
sI17
g1480
sI18
g1539
sI19
g1598
sI20
g1657
sI21
g1716
sI22
g1775
sI23
g1834
sI24
g1893
sI25
g1952
sI26
g2011
sI27
g2070
sI28
g2129
sI29
g2188
ssI16
(dp2233
I0
g477
sI1
g536
sI2
g595
sI3
g654
sI4
g713
sI5
g772
sI6
g831
sI7
g890
sI8
g949
sI9
g1008
sI10
g1067
sI11
g1126
sI12
g1185
sI13
g1244
sI14
g1303
sI15
g1362
sI17
g1482
sI18
g1541
sI19
g1600
sI20
g1659
sI21
g1718
sI22
g1777
sI23
g1836
sI24
g1895
sI25
g1954
sI26
g2013
sI27
g2072
sI28
g2131
sI29
g2190
ssI17
(dp2234
I0
g479
sI1
g538
sI2
g597
sI3
g656
sI4
g715
sI5
g774
sI6
g833
sI7
g892
sI8
g951
sI9
g1010
sI10
g1069
sI11
g1128
sI12
g1187
sI13
g1246
sI14
g1305
sI15
g1364
sI16
g1423
sI18
g1543
sI19
g1602
sI20
g1661
sI21
g1720
sI22
g1779
sI23
g1838
sI24
g1897
sI25
g1956
sI26
g2015
sI27
g2074
sI28
g2133
sI29
g2192
ssI18
(dp2235
I0
g481
sI1
g540
sI2
g599
sI3
g658
sI4
g717
sI5
g776
sI6
g835
sI7
g894
sI8
g953
sI9
g1012
sI10
g1071
sI11
g1130
sI12
g1189
sI13
g1248
sI14
g1307
sI15
g1366
sI16
g1425
sI17
g1484
sI19
g1604
sI20
g1663
sI21
g1722
sI22
g1781
sI23
g1840
sI24
g1899
sI25
g1958
sI26
g2017
sI27
g2076
sI28
g2135
sI29
g2194
ssI19
(dp2236
I0
g483
sI1
g542
sI2
g601
sI3
g660
sI4
g719
sI5
g778
sI6
g837
sI7
g896
sI8
g955
sI9
g1014
sI10
g1073
sI11
g1132
sI12
g1191
sI13
g1250
sI14
g1309
sI15
g1368
sI16
g1427
sI17
g1486
sI18
g1545
sI20
g1665
sI21
g1724
sI22
g1783
sI23
g1842
sI24
g1901
sI25
g1960
sI26
g2019
sI27
g2078
sI28
g2137
sI29
g2196
ssI20
(dp2237
I0
g485
sI1
g544
sI2
g603
sI3
g662
sI4
g721
sI5
g780
sI6
g839
sI7
g898
sI8
g957
sI9
g1016
sI10
g1075
sI11
g1134
sI12
g1193
sI13
g1252
sI14
g1311
sI15
g1370
sI16
g1429
sI17
g1488
sI18
g1547
sI19
g1606
sI21
g1726
sI22
g1785
sI23
g1844
sI24
g1903
sI25
g1962
sI26
g2021
sI27
g2080
sI28
g2139
sI29
g2198
ssI21
(dp2238
I0
g487
sI1
g546
sI2
g605
sI3
g664
sI4
g723
sI5
g782
sI6
g841
sI7
g900
sI8
g959
sI9
g1018
sI10
g1077
sI11
g1136
sI12
g1195
sI13
g1254
sI14
g1313
sI15
g1372
sI16
g1431
sI17
g1490
sI18
g1549
sI19
g1608
sI20
g1667
sI22
g1787
sI23
g1846
sI24
g1905
sI25
g1964
sI26
g2023
sI27
g2082
sI28
g2141
sI29
g2200
ssI22
(dp2239
I0
g489
sI1
g548
sI2
g607
sI3
g666
sI4
g725
sI5
g784
sI6
g843
sI7
g902
sI8
g961
sI9
g1020
sI10
g1079
sI11
g1138
sI12
g1197
sI13
g1256
sI14
g1315
sI15
g1374
sI16
g1433
sI17
g1492
sI18
g1551
sI19
g1610
sI20
g1669
sI21
g1728
sI23
g1848
sI24
g1907
sI25
g1966
sI26
g2025
sI27
g2084
sI28
g2143
sI29
g2202
ssI23
(dp2240
I0
g491
sI1
g550
sI2
g609
sI3
g668
sI4
g727
sI5
g786
sI6
g845
sI7
g904
sI8
g963
sI9
g1022
sI10
g1081
sI11
g1140
sI12
g1199
sI13
g1258
sI14
g1317
sI15
g1376
sI16
g1435
sI17
g1494
sI18
g1553
sI19
g1612
sI20
g1671
sI21
g1730
sI22
g1789
sI24
g1909
sI25
g1968
sI26
g2027
sI27
g2086
sI28
g2145
sI29
g2204
ssI24
(dp2241
I0
g493
sI1
g552
sI2
g611
sI3
g670
sI4
g729
sI5
g788
sI6
g847
sI7
g906
sI8
g965
sI9
g1024
sI10
g1083
sI11
g1142
sI12
g1201
sI13
g1260
sI14
g1319
sI15
g1378
sI16
g1437
sI17
g1496
sI18
g1555
sI19
g1614
sI20
g1673
sI21
g1732
sI22
g1791
sI23
g1850
sI25
g1970
sI26
g2029
sI27
g2088
sI28
g2147
sI29
g2206
ssI25
(dp2242
I0
g495
sI1
g554
sI2
g613
sI3
g672
sI4
g731
sI5
g790
sI6
g849
sI7
g908
sI8
g967
sI9
g1026
sI10
g1085
sI11
g1144
sI12
g1203
sI13
g1262
sI14
g1321
sI15
g1380
sI16
g1439
sI17
g1498
sI18
g1557
sI19
g1616
sI20
g1675
sI21
g1734
sI22
g1793
sI23
g1852
sI24
g1911
sI26
g2031
sI27
g2090
sI28
g2149
sI29
g2208
ssI26
(dp2243
I0
g497
sI1
g556
sI2
g615
sI3
g674
sI4
g733
sI5
g792
sI6
g851
sI7
g910
sI8
g969
sI9
g1028
sI10
g1087
sI11
g1146
sI12
g1205
sI13
g1264
sI14
g1323
sI15
g1382
sI16
g1441
sI17
g1500
sI18
g1559
sI19
g1618
sI20
g1677
sI21
g1736
sI22
g1795
sI23
g1854
sI24
g1913
sI25
g1972
sI27
g2092
sI28
g2151
sI29
g2210
ssI27
(dp2244
I0
g499
sI1
g558
sI2
g617
sI3
g676
sI4
g735
sI5
g794
sI6
g853
sI7
g912
sI8
g971
sI9
g1030
sI10
g1089
sI11
g1148
sI12
g1207
sI13
g1266
sI14
g1325
sI15
g1384
sI16
g1443
sI17
g1502
sI18
g1561
sI19
g1620
sI20
g1679
sI21
g1738
sI22
g1797
sI23
g1856
sI24
g1915
sI25
g1974
sI26
g2033
sI28
g2153
sI29
g2212
ssI28
(dp2245
I0
g501
sI1
g560
sI2
g619
sI3
g678
sI4
g737
sI5
g796
sI6
g855
sI7
g914
sI8
g973
sI9
g1032
sI10
g1091
sI11
g1150
sI12
g1209
sI13
g1268
sI14
g1327
sI15
g1386
sI16
g1445
sI17
g1504
sI18
g1563
sI19
g1622
sI20
g1681
sI21
g1740
sI22
g1799
sI23
g1858
sI24
g1917
sI25
g1976
sI26
g2035
sI27
g2094
sI29
g2214
ssI29
(dp2246
I0
g503
sI1
g562
sI2
g621
sI3
g680
sI4
g739
sI5
g798
sI6
g857
sI7
g916
sI8
g975
sI9
g1034
sI10
g1093
sI11
g1152
sI12
g1211
sI13
g1270
sI14
g1329
sI15
g1388
sI16
g1447
sI17
g1506
sI18
g1565
sI19
g1624
sI20
g1683
sI21
g1742
sI22
g1801
sI23
g1860
sI24
g1919
sI25
g1978
sI26
g2037
sI27
g2096
sI28
g2155
sssg408
g445
sbag1
(cnetworkx.classes.multigraph
MultiGraph
p2247
g3
Ntp2248
Rp2249
(dp2250
g7
(dp2251
I0
(dp2252
S'neibor'
p2253
(lp2254
I1
aI2
aI3
aI4
aI5
aI6
aI7
aI9
aI12
aI13
aI15
aI17
aI21
aI26
aI29
asS'dirty'
p2255
I0
ssI1
(dp2256
g2253
(lp2257
I0
aI2
aI3
aI4
aI5
aI6
aI7
aI9
aI12
aI17
aI18
aI20
aI24
aI26
aI27
asg2255
I0
ssI2
(dp2258
g2253
(lp2259
I0
aI1
aI3
aI4
aI6
aI7
aI8
aI9
aI11
aI12
aI15
aI16
aI17
aI18
aI19
aI26
aI27
aI29
asg2255
I0
ssI3
(dp2260
g2253
(lp2261
I0
aI1
aI2
aI4
aI5
aI6
aI7
aI8
aI10
aI11
aI13
aI16
aI19
aI20
aI22
aI25
asg2255
I0
ssI4
(dp2262
g2253
(lp2263
I0
aI1
aI2
aI3
aI5
aI6
aI8
aI9
aI10
aI11
aI14
aI15
aI16
aI17
aI18
aI24
aI28
asg2255
I0
ssI5
(dp2264
g2253
(lp2265
I0
aI1
aI3
aI4
aI6
aI9
aI10
aI11
aI12
aI13
aI14
aI15
aI24
aI26
asg2255
I0
ssI6
(dp2266
g2253
(lp2267
I0
aI1
aI2
aI3
aI4
aI5
aI7
aI8
aI10
aI11
aI12
aI13
aI14
aI23
aI25
aI27
aI28
asg2255
I0
ssI7
(dp2268
g2253
(lp2269
I0
aI1
aI2
aI3
aI6
aI8
aI9
aI11
aI13
aI15
aI20
aI24
asg2255
I0
ssI8
(dp2270
g2253
(lp2271
I2
aI3
aI4
aI6
aI7
aI14
aI16
aI24
aI25
asg2255
I0
ssI9
(dp2272
g2253
(lp2273
I0
aI1
aI2
aI4
aI5
aI7
aI11
aI12
aI19
aI21
aI22
asg2255
I0
ssI10
(dp2274
g2253
(lp2275
I3
aI4
aI5
aI6
aI11
aI15
aI27
aI28
asg2255
I0
ssI11
(dp2276
g2253
(lp2277
I2
aI3
aI4
aI5
aI6
aI7
aI9
aI10
aI13
aI14
aI15
aI16
aI17
aI26
aI27
aI28
asg2255
I0
ssI12
(dp2278
g2253
(lp2279
I0
aI1
aI2
aI5
aI6
aI9
aI14
aI17
aI20
aI22
aI23
aI25
asg2255
I0
ssI13
(dp2280
g2253
(lp2281
I0
aI3
aI5
aI6
aI7
aI11
aI14
aI18
aI24
aI27
asg2255
I0
ssI14
(dp2282
g2253
(lp2283
I4
aI5
aI6
aI8
aI11
aI12
aI13
aI15
aI17
aI18
aI20
aI23
aI26
asg2255
I0
ssI15
(dp2284
g2253
(lp2285
I0
aI2
aI4
aI5
aI7
aI10
aI11
aI14
aI16
aI17
aI19
aI21
aI22
aI29
asg2255
I0
ssI16
(dp2286
g2253
(lp2287
I2
aI3
aI4
aI8
aI11
aI15
aI20
asg2255
I0
ssI17
(dp2288
g2253
(lp2289
I0
aI1
aI2
aI4
aI11
aI12
aI14
aI15
aI18
aI21
aI23
asg2255
I0
ssI18
(dp2290
g2253
(lp2291
I1
aI2
aI4
aI13
aI14
aI17
aI20
aI23
asg2255
I0
ssI19
(dp2292
g2253
(lp2293
I2
aI3
aI9
aI15
aI20
aI23
asg2255
I0
ssI20
(dp2294
g2253
(lp2295
I1
aI3
aI7
aI12
aI14
aI16
aI18
aI19
aI24
aI28
asg2255
I0
ssI21
(dp2296
g2253
(lp2297
I0
aI9
aI17
aI22
aI15
asg2255
I0
ssI22
(dp2298
g2253
(lp2299
I9
aI3
aI12
aI21
aI15
asg2255
I0
ssI23
(dp2300
g2253
(lp2301
I6
aI12
aI14
aI17
aI18
aI19
asg2255
I0
ssI24
(dp2302
g2253
(lp2303
I1
aI4
aI5
aI7
aI8
aI13
aI20
asg2255
I0
ssI25
(dp2304
g2253
(lp2305
I8
aI3
aI12
aI6
asg2255
I0
ssI26
(dp2306
g2253
(lp2307
I0
aI1
aI2
aI5
aI11
aI14
aI29
asg2255
I0
ssI27
(dp2308
g2253
(lp2309
I1
aI2
aI6
aI10
aI11
aI13
asg2255
I0
ssI28
(dp2310
g2253
(lp2311
I20
aI10
aI11
aI4
aI6
asg2255
I0
ssI29
(dp2312
g2253
(lp2313
I0
aI2
aI26
aI15
asg2255
I0
sssg39
(dp2314
sg375
(dp2315
I0
(dp2316
I1
(dp2317
I0
(dp2318
sI1
(dp2319
ssI2
(dp2320
I0
(dp2321
sI1
(dp2322
ssI3
(dp2323
I0
(dp2324
sI1
(dp2325
sI2
(dp2326
ssI4
(dp2327
I0
(dp2328
ssI5
(dp2329
I0
(dp2330
ssI6
(dp2331
I0
(dp2332
sI1
(dp2333
sI2
(dp2334
ssI7
(dp2335
I0
(dp2336
ssI9
(dp2337
I0
(dp2338
ssI12
(dp2339
I0
(dp2340
sI1
(dp2341
sI2
(dp2342
sI3
(dp2343
ssI13
(dp2344
I0
(dp2345
sI1
(dp2346
ssI15
(dp2347
I0
(dp2348
sI1
(dp2349
ssI17
(dp2350
I0
(dp2351
ssI21
(dp2352
I0
(dp2353
sI1
(dp2354
ssI26
(dp2355
I0
(dp2356
ssI29
(dp2357
I0
(dp2358
sI1
(dp2359
sssI1
(dp2360
I0
g2317
sI2
(dp2361
I0
(dp2362
sI1
(dp2363
sI2
(dp2364
ssI3
(dp2365
I0
(dp2366
sI1
(dp2367
sI2
(dp2368
ssI4
(dp2369
I0
(dp2370
ssI5
(dp2371
I0
(dp2372
sI1
(dp2373
sI2
(dp2374
ssI6
(dp2375
I0
(dp2376
ssI7
(dp2377
I0
(dp2378
sI1
(dp2379
ssI9
(dp2380
I0
(dp2381
sI1
(dp2382
ssI12
(dp2383
I0
(dp2384
ssI17
(dp2385
I0
(dp2386
ssI18
(dp2387
I0
(dp2388
ssI20
(dp2389
I0
(dp2390
ssI24
(dp2391
I0
(dp2392
sI1
(dp2393
ssI26
(dp2394
I0
(dp2395
sI1
(dp2396
ssI27
(dp2397
I0
(dp2398
sI1
(dp2399
sssI2
(dp2400
I0
g2320
sI1
g2361
sI3
(dp2401
I0
(dp2402
sI1
(dp2403
ssI4
(dp2404
I0
(dp2405
sI1
(dp2406
sI2
(dp2407
ssI6
(dp2408
I0
(dp2409
ssI7
(dp2410
I0
(dp2411
ssI8
(dp2412
I0
(dp2413
ssI9
(dp2414
I0
(dp2415
ssI11
(dp2416
I0
(dp2417
ssI12
(dp2418
I0
(dp2419
ssI15
(dp2420
I0
(dp2421
ssI16
(dp2422
I0
(dp2423
sI1
(dp2424
ssI17
(dp2425
I0
(dp2426
sI1
(dp2427
ssI18
(dp2428
I0
(dp2429
sI1
(dp2430
sI2
(dp2431
ssI19
(dp2432
I0
(dp2433
sI1
(dp2434
ssI26
(dp2435
I0
(dp2436
ssI27
(dp2437
I0
(dp2438
ssI29
(dp2439
I0
(dp2440
sssI3
(dp2441
I0
g2323
sI1
g2365
sI2
g2401
sI4
(dp2442
I0
(dp2443
ssI5
(dp2444
I0
(dp2445
ssI6
(dp2446
I0
(dp2447
sI1
(dp2448
ssI7
(dp2449
I0
(dp2450
sI1
(dp2451
ssI8
(dp2452
I0
(dp2453
ssI10
(dp2454
I0
(dp2455
ssI11
(dp2456
I0
(dp2457
ssI13
(dp2458
I0
(dp2459
ssI16
(dp2460
I0
(dp2461
ssI19
(dp2462
I0
(dp2463
sI1
(dp2464
ssI20
(dp2465
I0
(dp2466
ssI22
(dp2467
I0
(dp2468
ssI25
(dp2469
I0
(dp2470
sssI4
(dp2471
I0
g2327
sI1
g2369
sI2
g2404
sI3
g2442
sI5
(dp2472
I0
(dp2473
ssI6
(dp2474
I0
(dp2475
ssI8
(dp2476
I0
(dp2477
sI1
(dp2478
sI2
(dp2479
sI3
(dp2480
ssI9
(dp2481
I0
(dp2482
sI1
(dp2483
ssI10
(dp2484
I0
(dp2485
ssI11
(dp2486
I0
(dp2487
sI1
(dp2488
ssI14
(dp2489
I0
(dp2490
ssI15
(dp2491
I0
(dp2492
ssI16
(dp2493
I0
(dp2494
sI1
(dp2495
ssI17
(dp2496
I0
(dp2497
ssI18
(dp2498
I0
(dp2499
ssI24
(dp2500
I0
(dp2501
ssI28
(dp2502
I0
(dp2503
sssI5
(dp2504
I0
g2329
sI1
g2371
sI3
g2444
sI4
g2472
sI6
(dp2505
I0
(dp2506
sI1
(dp2507
sI2
(dp2508
ssI9
(dp2509
I0
(dp2510
ssI10
(dp2511
I0
(dp2512
sI1
(dp2513
ssI11
(dp2514
I0
(dp2515
sI1
(dp2516
ssI12
(dp2517
I0
(dp2518
ssI13
(dp2519
I0
(dp2520
sI1
(dp2521
sI2
(dp2522
ssI14
(dp2523
I0
(dp2524
ssI15
(dp2525
I0
(dp2526
ssI24
(dp2527
I0
(dp2528
ssI26
(dp2529
I0
(dp2530
sssI6
(dp2531
I0
g2331
sI1
g2375
sI2
g2408
sI3
g2446
sI4
g2474
sI5
g2505
sI7
(dp2532
I0
(dp2533
ssI8
(dp2534
I0
(dp2535
sI1
(dp2536
ssI10
(dp2537
I0
(dp2538
sI1
(dp2539
ssI11
(dp2540
I0
(dp2541
ssI12
(dp2542
I0
(dp2543
sI1
(dp2544
ssI13
(dp2545
I0
(dp2546
ssI14
(dp2547
I0
(dp2548
ssI23
(dp2549
I0
(dp2550
sI1
(dp2551
ssI25
(dp2552
I0
(dp2553
ssI27
(dp2554
I0
(dp2555
sI1
(dp2556
sI2
(dp2557
ssI28
(dp2558
I0
(dp2559
sssI7
(dp2560
I0
g2335
sI1
g2377
sI2
g2410
sI3
g2449
sI6
g2532
sI8
(dp2561
I0
(dp2562
ssI9
(dp2563
I0
(dp2564
sI1
(dp2565
ssI11
(dp2566
I0
(dp2567
ssI13
(dp2568
I0
(dp2569
ssI15
(dp2570
I0
(dp2571
sI1
(dp2572
ssI20
(dp2573
I0
(dp2574
sI1
(dp2575
ssI24
(dp2576
I0
(dp2577
sssI8
(dp2578
I2
g2412
sI3
g2452
sI4
g2476
sI6
g2534
sI7
g2561
sI14
(dp2579
I0
(dp2580
ssI16
(dp2581
I0
(dp2582
ssI24
(dp2583
I0
(dp2584
sI1
(dp2585
ssI25
(dp2586
I0
(dp2587
sssI9
(dp2588
I0
g2337
sI1
g2380
sI2
g2414
sI4
g2481
sI5
g2509
sI7
g2563
sI11
(dp2589
I0
(dp2590
ssI12
(dp2591
I0
(dp2592
ssI19
(dp2593
I0
(dp2594
ssI21
(dp2595
I0
(dp2596
ssI22
(dp2597
I0
(dp2598
sssI10
(dp2599
I3
g2454
sI4
g2484
sI5
g2511
sI6
g2537
sI11
(dp2600
I0
(dp2601
ssI15
(dp2602
I0
(dp2603
ssI27
(dp2604
I0
(dp2605
ssI28
(dp2606
I0
(dp2607
sssI11
(dp2608
I2
g2416
sI3
g2456
sI4
g2486
sI5
g2514
sI6
g2540
sI7
g2566
sI9
g2589
sI10
g2600
sI13
(dp2609
I0
(dp2610
ssI14
(dp2611
I0
(dp2612
sI1
(dp2613
ssI15
(dp2614
I0
(dp2615
ssI16
(dp2616
I0
(dp2617
sI1
(dp2618
ssI17
(dp2619
I0
(dp2620
sI1
(dp2621
ssI26
(dp2622
I0
(dp2623
ssI27
(dp2624
I0
(dp2625
ssI28
(dp2626
I0
(dp2627
sssI12
(dp2628
I0
g2339
sI1
g2383
sI2
g2418
sI5
g2517
sI6
g2542
sI9
g2591
sI14
(dp2629
I0
(dp2630
ssI17
(dp2631
I0
(dp2632
ssI20
(dp2633
I0
(dp2634
sI1
(dp2635
ssI22
(dp2636
I0
(dp2637
ssI23
(dp2638
I0
(dp2639
ssI25
(dp2640
I0
(dp2641
sI1
(dp2642
sssI13
(dp2643
I0
g2344
sI3
g2458
sI5
g2519
sI6
g2545
sI7
g2568
sI11
g2609
sI14
(dp2644
I0
(dp2645
sI1
(dp2646
ssI18
(dp2647
I0
(dp2648
ssI24
(dp2649
I0
(dp2650
ssI27
(dp2651
I0
(dp2652
sssI14
(dp2653
I4
g2489
sI5
g2523
sI6
g2547
sI8
g2579
sI11
g2611
sI12
g2629
sI13
g2644
sI15
(dp2654
I0
(dp2655
ssI17
(dp2656
I0
(dp2657
sI1
(dp2658
ssI18
(dp2659
I0
(dp2660
sI1
(dp2661
ssI20
(dp2662
I0
(dp2663
ssI23
(dp2664
I0
(dp2665
ssI26
(dp2666
I0
(dp2667
sssI15
(dp2668
I0
g2347
sI2
g2420
sI4
g2491
sI5
g2525
sI7
g2570
sI10
g2602
sI11
g2614
sI14
g2654
sI16
(dp2669
I0
(dp2670
ssI17
(dp2671
I0
(dp2672
ssI19
(dp2673
I0
(dp2674
ssI21
(dp2675
I0
(dp2676
ssI22
(dp2677
I0
(dp2678
ssI29
(dp2679
I0
(dp2680
sssI16
(dp2681
I2
g2422
sI3
g2460
sI4
g2493
sI8
g2581
sI11
g2616
sI15
g2669
sI20
(dp2682
I0
(dp2683
sssI17
(dp2684
I0
g2350
sI1
g2385
sI2
g2425
sI4
g2496
sI11
g2619
sI12
g2631
sI14
g2656
sI15
g2671
sI18
(dp2685
I0
(dp2686
ssI21
(dp2687
I0
(dp2688
sI1
(dp2689
ssI23
(dp2690
I0
(dp2691
sssI18
(dp2692
I1
g2387
sI2
g2428
sI4
g2498
sI13
g2647
sI14
g2659
sI17
g2685
sI20
(dp2693
I0
(dp2694
ssI23
(dp2695
I0
(dp2696
sssI19
(dp2697
I2
g2432
sI3
g2462
sI9
g2593
sI15
g2673
sI20
(dp2698
I0
(dp2699
sI1
(dp2700
ssI23
(dp2701
I0
(dp2702
sI1
(dp2703
sssI20
(dp2704
I1
g2389
sI3
g2465
sI7
g2573
sI12
g2633
sI14
g2662
sI16
g2682
sI18
g2693
sI19
g2698
sI24
(dp2705
I0
(dp2706
sI1
(dp2707
ssI28
(dp2708
I0
(dp2709
sI1
(dp2710
sssI21
(dp2711
I0
g2352
sI17
g2687
sI9
g2595
sI22
(dp2712
I0
(dp2713
sI1
(dp2714
ssI15
g2675
ssI22
(dp2715
I9
g2597
sI3
g2467
sI12
g2636
sI21
g2712
sI15
g2677
ssI23
(dp2716
I6
g2549
sI12
g2638
sI14
g2664
sI17
g2690
sI18
g2695
sI19
g2701
ssI24
(dp2717
I1
g2391
sI4
g2500
sI5
g2527
sI7
g2576
sI8
g2583
sI13
g2649
sI20
g2705
ssI25
(dp2718
I8
g2586
sI3
g2469
sI12
g2640
sI6
g2552
ssI26
(dp2719
I0
g2355
sI1
g2394
sI2
g2435
sI5
g2529
sI11
g2622
sI14
g2666
sI29
(dp2720
I0
(dp2721
sI1
(dp2722
sssI27
(dp2723
I1
g2397
sI2
g2437
sI6
g2554
sI10
g2604
sI11
g2624
sI13
g2651
ssI28
(dp2724
I4
g2502
sI10
g2606
sI11
g2626
sI20
g2708
sI6
g2558
ssI29
(dp2725
I0
g2357
sI26
g2720
sI2
g2439
sI15
g2679
sssg408
g2315
sba.