(lp0
ccopy_reg
_reconstructor
p1
(cnetworkx.classes.multidigraph
MultiDiGraph
p2
c__builtin__
object
p3
Ntp4
Rp5
(dp6
S'node'
p7
(dp8
I0
(dp9
sI1
(dp10
sI2
(dp11
sI3
(dp12
sI4
(dp13
sI5
(dp14
sI6
(dp15
sI7
(dp16
sI8
(dp17
sI9
(dp18
sI10
(dp19
sI11
(dp20
sI12
(dp21
sI13
(dp22
sI14
(dp23
sI15
(dp24
sI16
(dp25
sI17
(dp26
sI18
(dp27
sI19
(dp28
sI20
(dp29
sI21
(dp30
sI22
(dp31
sI23
(dp32
sI24
(dp33
sI25
(dp34
sI26
(dp35
sI27
(dp36
sI28
(dp37
sI29
(dp38
sI30
(dp39
sI31
(dp40
sI32
(dp41
sI33
(dp42
sI34
(dp43
sI35
(dp44
sI36
(dp45
sI37
(dp46
sI38
(dp47
sI39
(dp48
sI40
(dp49
sI41
(dp50
sI42
(dp51
sI43
(dp52
sI44
(dp53
sI45
(dp54
sI46
(dp55
sI47
(dp56
sI48
(dp57
sI49
(dp58
ssS'graph'
p59
(dp60
S'name'
p61
S'my BA graph, directed and muliple(50,2)'
p62
ssS'succ'
p63
(dp64
I0
(dp65
I1
(dp66
I0
(dp67
ssI4
(dp68
I0
(dp69
ssI12
(dp70
I0
(dp71
ssI15
(dp72
I0
(dp73
ssI16
(dp74
I0
(dp75
ssI49
(dp76
I0
(dp77
ssI18
(dp78
I0
(dp79
ssI21
(dp80
I0
(dp81
ssI27
(dp82
I0
(dp83
sssI1
(dp84
I0
(dp85
I0
(dp86
ssI2
(dp87
I0
(dp88
ssI3
(dp89
I0
(dp90
ssI4
(dp91
I0
(dp92
ssI5
(dp93
I0
(dp94
ssI7
(dp95
I0
(dp96
ssI8
(dp97
I0
(dp98
ssI10
(dp99
I0
(dp100
ssI44
(dp101
I0
(dp102
ssI16
(dp103
I0
(dp104
ssI40
(dp105
I0
(dp106
ssI22
(dp107
I0
(dp108
ssI24
(dp109
I0
(dp110
ssI37
(dp111
I0
(dp112
sssI2
(dp113
I0
(dp114
I0
(dp115
ssI6
(dp116
I0
(dp117
ssI7
(dp118
I0
(dp119
ssI14
(dp120
I0
(dp121
ssI19
(dp122
I0
(dp123
ssI46
(dp124
I0
(dp125
ssI26
(dp126
I0
(dp127
sssI3
(dp128
I1
(dp129
I0
(dp130
ssI2
(dp131
I0
(dp132
ssI43
(dp133
I0
(dp134
ssI28
(dp135
I0
(dp136
ssI9
(dp137
I0
(dp138
sssI4
(dp139
I1
(dp140
I0
(dp141
ssI11
(dp142
I0
(dp143
sssI5
(dp144
I0
(dp145
I0
(dp146
sssI6
(dp147
I35
(dp148
I0
(dp149
ssI2
(dp150
I0
(dp151
ssI19
(dp152
I0
(dp153
ssI4
(dp154
I0
(dp155
ssI49
(dp156
I0
(dp157
sssI7
(dp158
I2
(dp159
I0
(dp160
ssI31
(dp161
I0
(dp162
sssI8
(dp163
I0
(dp164
I0
(dp165
ssI30
(dp166
I0
(dp167
sssI9
(dp168
I34
(dp169
I0
(dp170
ssI3
(dp171
I0
(dp172
ssI4
(dp173
I0
(dp174
ssI39
(dp175
I0
(dp176
ssI10
(dp177
I0
(dp178
ssI13
(dp179
I0
(dp180
ssI22
(dp181
I0
(dp182
ssI36
(dp183
I0
(dp184
sssI10
(dp185
I1
(dp186
I0
(dp187
ssI13
(dp188
I0
(dp189
sssI11
(dp190
I8
(dp191
I0
(dp192
ssI38
(dp193
I0
(dp194
ssI47
(dp195
I0
(dp196
sssI12
(dp197
I0
(dp198
I0
(dp199
ssI7
(dp200
I0
(dp201
sssI13
(dp202
I32
(dp203
I0
(dp204
ssI25
(dp205
I0
(dp206
ssI10
(dp207
I0
(dp208
ssI42
(dp209
I0
(dp210
ssI41
(dp211
I0
(dp212
sssI14
(dp213
I10
(dp214
I0
(dp215
ssI20
(dp216
I0
(dp217
sssI15
(dp218
I0
(dp219
I0
(dp220
ssI17
(dp221
I0
(dp222
ssI14
(dp223
I0
(dp224
sssI16
(dp225
I1
(dp226
I0
(dp227
sssI17
(dp228
I2
(dp229
I0
(dp230
sssI18
(dp231
I0
(dp232
I0
(dp233
ssI1
(dp234
I0
(dp235
ssI28
(dp236
I0
(dp237
ssI25
(dp238
I0
(dp239
sssI19
(dp240
I46
(dp241
I0
(dp242
ssI6
(dp243
I0
(dp244
sssI20
(dp245
I0
(dp246
I0
(dp247
sssI21
(dp248
I0
(dp249
I0
(dp250
ssI33
(dp251
I0
(dp252
ssI4
(dp253
I0
(dp254
sssI22
(dp255
I48
(dp256
I0
(dp257
ssI9
(dp258
I0
(dp259
ssI23
(dp260
I0
(dp261
sssI23
(dp262
I2
(dp263
I0
(dp264
ssI43
(dp265
I0
(dp266
ssI37
(dp267
I0
(dp268
sssI24
(dp269
I1
(dp270
I0
(dp271
ssI3
(dp272
I0
(dp273
sssI25
(dp274
I13
(dp275
I0
(dp276
sssI26
(dp277
I9
(dp278
I0
(dp279
sssI27
(dp280
I0
(dp281
I0
(dp282
ssI4
(dp283
I0
(dp284
sssI28
(dp285
I3
(dp286
I0
(dp287
ssI29
(dp288
I0
(dp289
sssI29
(dp290
I2
(dp291
I0
(dp292
ssI31
(dp293
I0
(dp294
sssI30
(dp295
I8
(dp296
I0
(dp297
ssI34
(dp298
I0
(dp299
ssI13
(dp300
I0
(dp301
ssI45
(dp302
I0
(dp303
sssI31
(dp304
I7
(dp305
I0
(dp306
sssI32
(dp307
I8
(dp308
I0
(dp309
sssI33
(dp310
I21
(dp311
I0
(dp312
ssI30
(dp313
I0
(dp314
sssI34
(dp315
I40
(dp316
I0
(dp317
ssI30
(dp318
I0
(dp319
sssI35
(dp320
I13
(dp321
I0
(dp322
sssI36
(dp323
I9
(dp324
I0
(dp325
ssI2
(dp326
I0
(dp327
sssI37
(dp328
I23
(dp329
I0
(dp330
sssI38
(dp331
I1
(dp332
I0
(dp333
sssI39
(dp334
I9
(dp335
I0
(dp336
ssI11
(dp337
I0
(dp338
sssI40
(dp339
I34
(dp340
I0
(dp341
sssI41
(dp342
I34
(dp343
I0
(dp344
sssI42
(dp345
I13
(dp346
I0
(dp347
ssI14
(dp348
I0
(dp349
sssI43
(dp350
I23
(dp351
I0
(dp352
sssI44
(dp353
I16
(dp354
I0
(dp355
sssI45
(dp356
I30
(dp357
I0
(dp358
ssI15
(dp359
I0
(dp360
sssI46
(dp361
I19
(dp362
I0
(dp363
sssI47
(dp364
I18
(dp365
I0
(dp366
sssI48
(dp367
I22
(dp368
I0
(dp369
ssI47
(dp370
I0
(dp371
sssI49
(dp372
I6
(dp373
I0
(dp374
ssssS'edge'
p375
g64
sS'pred'
p376
(dp377
I0
(dp378
I1
g85
sI2
g114
sI5
g145
sI8
g164
sI12
g198
sI15
g219
sI18
g232
sI20
g246
sI21
g249
sI27
g281
ssI1
(dp379
I0
g66
sI3
g129
sI4
g140
sI38
g332
sI10
g186
sI16
g226
sI18
g234
sI24
g270
ssI2
(dp380
I1
g87
sI3
g131
sI36
g326
sI6
g150
sI7
g159
sI17
g229
sI23
g263
sI29
g291
ssI3
(dp381
I24
g272
sI1
g89
sI28
g286
sI9
g171
ssI4
(dp382
I0
g68
sI1
g91
sI6
g154
sI9
g173
sI21
g253
sI27
g283
ssI5
(dp383
I1
g93
ssI6
(dp384
I49
g373
sI2
g116
sI19
g243
ssI7
(dp385
I1
g95
sI2
g118
sI12
g200
sI31
g305
ssI8
(dp386
I32
g308
sI1
g97
sI11
g191
sI30
g296
ssI9
(dp387
I26
g278
sI3
g137
sI36
g324
sI22
g258
sI39
g335
ssI10
(dp388
I9
g177
sI13
g207
sI14
g214
sI1
g99
ssI11
(dp389
I4
g142
sI39
g337
ssI12
(dp390
I0
g70
ssI13
(dp391
I35
g321
sI9
g179
sI10
g188
sI25
g275
sI42
g346
sI30
g300
ssI14
(dp392
I2
g120
sI42
g348
sI15
g223
ssI15
(dp393
I0
g72
sI45
g359
ssI16
(dp394
I0
g74
sI1
g103
sI44
g354
ssI17
(dp395
I15
g221
ssI18
(dp396
I0
g78
sI47
g365
ssI19
(dp397
I2
g122
sI46
g362
sI6
g152
ssI20
(dp398
I14
g216
ssI21
(dp399
I0
g80
sI33
g311
ssI22
(dp400
I48
g368
sI1
g107
sI9
g181
ssI23
(dp401
I43
g351
sI37
g329
sI22
g260
ssI24
(dp402
I1
g109
ssI25
(dp403
I18
g238
sI13
g205
ssI26
(dp404
I2
g126
ssI27
(dp405
I0
g82
ssI28
(dp406
I18
g236
sI3
g135
ssI29
(dp407
I28
g288
ssI30
(dp408
I8
g166
sI33
g313
sI34
g318
sI45
g357
ssI31
(dp409
I29
g293
sI7
g161
ssI32
(dp410
I13
g203
ssI33
(dp411
I21
g251
ssI34
(dp412
I40
g340
sI9
g169
sI30
g298
sI41
g343
ssI35
(dp413
I6
g148
ssI36
(dp414
I9
g183
ssI37
(dp415
I1
g111
sI23
g267
ssI38
(dp416
I11
g193
ssI39
(dp417
I9
g175
ssI40
(dp418
I1
g105
sI34
g316
ssI41
(dp419
I13
g211
ssI42
(dp420
I13
g209
ssI43
(dp421
I3
g133
sI23
g265
ssI44
(dp422
I1
g101
ssI45
(dp423
I30
g302
ssI46
(dp424
I2
g124
sI19
g241
ssI47
(dp425
I48
g370
sI11
g195
ssI48
(dp426
I22
g256
ssI49
(dp427
I0
g76
sI6
g156
sssS'adj'
p428
g64
sbag1
(g2
g3
Ntp429
Rp430
(dp431
g7
(dp432
I0
(dp433
sI1
(dp434
sI2
(dp435
sI3
(dp436
sI4
(dp437
sI5
(dp438
sI6
(dp439
sI7
(dp440
sI8
(dp441
sI9
(dp442
sI10
(dp443
sI11
(dp444
sI12
(dp445
sI13
(dp446
sI14
(dp447
sI15
(dp448
sI16
(dp449
sI17
(dp450
sI18
(dp451
sI19
(dp452
sI20
(dp453
sI21
(dp454
sI22
(dp455
sI23
(dp456
sI24
(dp457
sI25
(dp458
sI26
(dp459
sI27
(dp460
sI28
(dp461
sI29
(dp462
sI30
(dp463
sI31
(dp464
sI32
(dp465
sI33
(dp466
sI34
(dp467
sI35
(dp468
sI36
(dp469
sI37
(dp470
sI38
(dp471
sI39
(dp472
sI40
(dp473
sI41
(dp474
sI42
(dp475
sI43
(dp476
sI44
(dp477
sI45
(dp478
sI46
(dp479
sI47
(dp480
sI48
(dp481
sI49
(dp482
ssg59
(dp483
g61
S'complete_graph(50)'
p484
ssg63
(dp485
I0
(dp486
I1
(dp487
I0
(dp488
ssI2
(dp489
I0
(dp490
ssI3
(dp491
I0
(dp492
ssI4
(dp493
I0
(dp494
ssI5
(dp495
I0
(dp496
ssI6
(dp497
I0
(dp498
ssI7
(dp499
I0
(dp500
ssI8
(dp501
I0
(dp502
ssI9
(dp503
I0
(dp504
ssI10
(dp505
I0
(dp506
ssI11
(dp507
I0
(dp508
ssI12
(dp509
I0
(dp510
ssI13
(dp511
I0
(dp512
ssI14
(dp513
I0
(dp514
ssI15
(dp515
I0
(dp516
ssI16
(dp517
I0
(dp518
ssI17
(dp519
I0
(dp520
ssI18
(dp521
I0
(dp522
ssI19
(dp523
I0
(dp524
ssI20
(dp525
I0
(dp526
ssI21
(dp527
I0
(dp528
ssI22
(dp529
I0
(dp530
ssI23
(dp531
I0
(dp532
ssI24
(dp533
I0
(dp534
ssI25
(dp535
I0
(dp536
ssI26
(dp537
I0
(dp538
ssI27
(dp539
I0
(dp540
ssI28
(dp541
I0
(dp542
ssI29
(dp543
I0
(dp544
ssI30
(dp545
I0
(dp546
ssI31
(dp547
I0
(dp548
ssI32
(dp549
I0
(dp550
ssI33
(dp551
I0
(dp552
ssI34
(dp553
I0
(dp554
ssI35
(dp555
I0
(dp556
ssI36
(dp557
I0
(dp558
ssI37
(dp559
I0
(dp560
ssI38
(dp561
I0
(dp562
ssI39
(dp563
I0
(dp564
ssI40
(dp565
I0
(dp566
ssI41
(dp567
I0
(dp568
ssI42
(dp569
I0
(dp570
ssI43
(dp571
I0
(dp572
ssI44
(dp573
I0
(dp574
ssI45
(dp575
I0
(dp576
ssI46
(dp577
I0
(dp578
ssI47
(dp579
I0
(dp580
ssI48
(dp581
I0
(dp582
ssI49
(dp583
I0
(dp584
sssI1
(dp585
I0
(dp586
I0
(dp587
ssI2
(dp588
I0
(dp589
ssI3
(dp590
I0
(dp591
ssI4
(dp592
I0
(dp593
ssI5
(dp594
I0
(dp595
ssI6
(dp596
I0
(dp597
ssI7
(dp598
I0
(dp599
ssI8
(dp600
I0
(dp601
ssI9
(dp602
I0
(dp603
ssI10
(dp604
I0
(dp605
ssI11
(dp606
I0
(dp607
ssI12
(dp608
I0
(dp609
ssI13
(dp610
I0
(dp611
ssI14
(dp612
I0
(dp613
ssI15
(dp614
I0
(dp615
ssI16
(dp616
I0
(dp617
ssI17
(dp618
I0
(dp619
ssI18
(dp620
I0
(dp621
ssI19
(dp622
I0
(dp623
ssI20
(dp624
I0
(dp625
ssI21
(dp626
I0
(dp627
ssI22
(dp628
I0
(dp629
ssI23
(dp630
I0
(dp631
ssI24
(dp632
I0
(dp633
ssI25
(dp634
I0
(dp635
ssI26
(dp636
I0
(dp637
ssI27
(dp638
I0
(dp639
ssI28
(dp640
I0
(dp641
ssI29
(dp642
I0
(dp643
ssI30
(dp644
I0
(dp645
ssI31
(dp646
I0
(dp647
ssI32
(dp648
I0
(dp649
ssI33
(dp650
I0
(dp651
ssI34
(dp652
I0
(dp653
ssI35
(dp654
I0
(dp655
ssI36
(dp656
I0
(dp657
ssI37
(dp658
I0
(dp659
ssI38
(dp660
I0
(dp661
ssI39
(dp662
I0
(dp663
ssI40
(dp664
I0
(dp665
ssI41
(dp666
I0
(dp667
ssI42
(dp668
I0
(dp669
ssI43
(dp670
I0
(dp671
ssI44
(dp672
I0
(dp673
ssI45
(dp674
I0
(dp675
ssI46
(dp676
I0
(dp677
ssI47
(dp678
I0
(dp679
ssI48
(dp680
I0
(dp681
ssI49
(dp682
I0
(dp683
sssI2
(dp684
I0
(dp685
I0
(dp686
ssI1
(dp687
I0
(dp688
ssI3
(dp689
I0
(dp690
ssI4
(dp691
I0
(dp692
ssI5
(dp693
I0
(dp694
ssI6
(dp695
I0
(dp696
ssI7
(dp697
I0
(dp698
ssI8
(dp699
I0
(dp700
ssI9
(dp701
I0
(dp702
ssI10
(dp703
I0
(dp704
ssI11
(dp705
I0
(dp706
ssI12
(dp707
I0
(dp708
ssI13
(dp709
I0
(dp710
ssI14
(dp711
I0
(dp712
ssI15
(dp713
I0
(dp714
ssI16
(dp715
I0
(dp716
ssI17
(dp717
I0
(dp718
ssI18
(dp719
I0
(dp720
ssI19
(dp721
I0
(dp722
ssI20
(dp723
I0
(dp724
ssI21
(dp725
I0
(dp726
ssI22
(dp727
I0
(dp728
ssI23
(dp729
I0
(dp730
ssI24
(dp731
I0
(dp732
ssI25
(dp733
I0
(dp734
ssI26
(dp735
I0
(dp736
ssI27
(dp737
I0
(dp738
ssI28
(dp739
I0
(dp740
ssI29
(dp741
I0
(dp742
ssI30
(dp743
I0
(dp744
ssI31
(dp745
I0
(dp746
ssI32
(dp747
I0
(dp748
ssI33
(dp749
I0
(dp750
ssI34
(dp751
I0
(dp752
ssI35
(dp753
I0
(dp754
ssI36
(dp755
I0
(dp756
ssI37
(dp757
I0
(dp758
ssI38
(dp759
I0
(dp760
ssI39
(dp761
I0
(dp762
ssI40
(dp763
I0
(dp764
ssI41
(dp765
I0
(dp766
ssI42
(dp767
I0
(dp768
ssI43
(dp769
I0
(dp770
ssI44
(dp771
I0
(dp772
ssI45
(dp773
I0
(dp774
ssI46
(dp775
I0
(dp776
ssI47
(dp777
I0
(dp778
ssI48
(dp779
I0
(dp780
ssI49
(dp781
I0
(dp782
sssI3
(dp783
I0
(dp784
I0
(dp785
ssI1
(dp786
I0
(dp787
ssI2
(dp788
I0
(dp789
ssI4
(dp790
I0
(dp791
ssI5
(dp792
I0
(dp793
ssI6
(dp794
I0
(dp795
ssI7
(dp796
I0
(dp797
ssI8
(dp798
I0
(dp799
ssI9
(dp800
I0
(dp801
ssI10
(dp802
I0
(dp803
ssI11
(dp804
I0
(dp805
ssI12
(dp806
I0
(dp807
ssI13
(dp808
I0
(dp809
ssI14
(dp810
I0
(dp811
ssI15
(dp812
I0
(dp813
ssI16
(dp814
I0
(dp815
ssI17
(dp816
I0
(dp817
ssI18
(dp818
I0
(dp819
ssI19
(dp820
I0
(dp821
ssI20
(dp822
I0
(dp823
ssI21
(dp824
I0
(dp825
ssI22
(dp826
I0
(dp827
ssI23
(dp828
I0
(dp829
ssI24
(dp830
I0
(dp831
ssI25
(dp832
I0
(dp833
ssI26
(dp834
I0
(dp835
ssI27
(dp836
I0
(dp837
ssI28
(dp838
I0
(dp839
ssI29
(dp840
I0
(dp841
ssI30
(dp842
I0
(dp843
ssI31
(dp844
I0
(dp845
ssI32
(dp846
I0
(dp847
ssI33
(dp848
I0
(dp849
ssI34
(dp850
I0
(dp851
ssI35
(dp852
I0
(dp853
ssI36
(dp854
I0
(dp855
ssI37
(dp856
I0
(dp857
ssI38
(dp858
I0
(dp859
ssI39
(dp860
I0
(dp861
ssI40
(dp862
I0
(dp863
ssI41
(dp864
I0
(dp865
ssI42
(dp866
I0
(dp867
ssI43
(dp868
I0
(dp869
ssI44
(dp870
I0
(dp871
ssI45
(dp872
I0
(dp873
ssI46
(dp874
I0
(dp875
ssI47
(dp876
I0
(dp877
ssI48
(dp878
I0
(dp879
ssI49
(dp880
I0
(dp881
sssI4
(dp882
I0
(dp883
I0
(dp884
ssI1
(dp885
I0
(dp886
ssI2
(dp887
I0
(dp888
ssI3
(dp889
I0
(dp890
ssI5
(dp891
I0
(dp892
ssI6
(dp893
I0
(dp894
ssI7
(dp895
I0
(dp896
ssI8
(dp897
I0
(dp898
ssI9
(dp899
I0
(dp900
ssI10
(dp901
I0
(dp902
ssI11
(dp903
I0
(dp904
ssI12
(dp905
I0
(dp906
ssI13
(dp907
I0
(dp908
ssI14
(dp909
I0
(dp910
ssI15
(dp911
I0
(dp912
ssI16
(dp913
I0
(dp914
ssI17
(dp915
I0
(dp916
ssI18
(dp917
I0
(dp918
ssI19
(dp919
I0
(dp920
ssI20
(dp921
I0
(dp922
ssI21
(dp923
I0
(dp924
ssI22
(dp925
I0
(dp926
ssI23
(dp927
I0
(dp928
ssI24
(dp929
I0
(dp930
ssI25
(dp931
I0
(dp932
ssI26
(dp933
I0
(dp934
ssI27
(dp935
I0
(dp936
ssI28
(dp937
I0
(dp938
ssI29
(dp939
I0
(dp940
ssI30
(dp941
I0
(dp942
ssI31
(dp943
I0
(dp944
ssI32
(dp945
I0
(dp946
ssI33
(dp947
I0
(dp948
ssI34
(dp949
I0
(dp950
ssI35
(dp951
I0
(dp952
ssI36
(dp953
I0
(dp954
ssI37
(dp955
I0
(dp956
ssI38
(dp957
I0
(dp958
ssI39
(dp959
I0
(dp960
ssI40
(dp961
I0
(dp962
ssI41
(dp963
I0
(dp964
ssI42
(dp965
I0
(dp966
ssI43
(dp967
I0
(dp968
ssI44
(dp969
I0
(dp970
ssI45
(dp971
I0
(dp972
ssI46
(dp973
I0
(dp974
ssI47
(dp975
I0
(dp976
ssI48
(dp977
I0
(dp978
ssI49
(dp979
I0
(dp980
sssI5
(dp981
I0
(dp982
I0
(dp983
ssI1
(dp984
I0
(dp985
ssI2
(dp986
I0
(dp987
ssI3
(dp988
I0
(dp989
ssI4
(dp990
I0
(dp991
ssI6
(dp992
I0
(dp993
ssI7
(dp994
I0
(dp995
ssI8
(dp996
I0
(dp997
ssI9
(dp998
I0
(dp999
ssI10
(dp1000
I0
(dp1001
ssI11
(dp1002
I0
(dp1003
ssI12
(dp1004
I0
(dp1005
ssI13
(dp1006
I0
(dp1007
ssI14
(dp1008
I0
(dp1009
ssI15
(dp1010
I0
(dp1011
ssI16
(dp1012
I0
(dp1013
ssI17
(dp1014
I0
(dp1015
ssI18
(dp1016
I0
(dp1017
ssI19
(dp1018
I0
(dp1019
ssI20
(dp1020
I0
(dp1021
ssI21
(dp1022
I0
(dp1023
ssI22
(dp1024
I0
(dp1025
ssI23
(dp1026
I0
(dp1027
ssI24
(dp1028
I0
(dp1029
ssI25
(dp1030
I0
(dp1031
ssI26
(dp1032
I0
(dp1033
ssI27
(dp1034
I0
(dp1035
ssI28
(dp1036
I0
(dp1037
ssI29
(dp1038
I0
(dp1039
ssI30
(dp1040
I0
(dp1041
ssI31
(dp1042
I0
(dp1043
ssI32
(dp1044
I0
(dp1045
ssI33
(dp1046
I0
(dp1047
ssI34
(dp1048
I0
(dp1049
ssI35
(dp1050
I0
(dp1051
ssI36
(dp1052
I0
(dp1053
ssI37
(dp1054
I0
(dp1055
ssI38
(dp1056
I0
(dp1057
ssI39
(dp1058
I0
(dp1059
ssI40
(dp1060
I0
(dp1061
ssI41
(dp1062
I0
(dp1063
ssI42
(dp1064
I0
(dp1065
ssI43
(dp1066
I0
(dp1067
ssI44
(dp1068
I0
(dp1069
ssI45
(dp1070
I0
(dp1071
ssI46
(dp1072
I0
(dp1073
ssI47
(dp1074
I0
(dp1075
ssI48
(dp1076
I0
(dp1077
ssI49
(dp1078
I0
(dp1079
sssI6
(dp1080
I0
(dp1081
I0
(dp1082
ssI1
(dp1083
I0
(dp1084
ssI2
(dp1085
I0
(dp1086
ssI3
(dp1087
I0
(dp1088
ssI4
(dp1089
I0
(dp1090
ssI5
(dp1091
I0
(dp1092
ssI7
(dp1093
I0
(dp1094
ssI8
(dp1095
I0
(dp1096
ssI9
(dp1097
I0
(dp1098
ssI10
(dp1099
I0
(dp1100
ssI11
(dp1101
I0
(dp1102
ssI12
(dp1103
I0
(dp1104
ssI13
(dp1105
I0
(dp1106
ssI14
(dp1107
I0
(dp1108
ssI15
(dp1109
I0
(dp1110
ssI16
(dp1111
I0
(dp1112
ssI17
(dp1113
I0
(dp1114
ssI18
(dp1115
I0
(dp1116
ssI19
(dp1117
I0
(dp1118
ssI20
(dp1119
I0
(dp1120
ssI21
(dp1121
I0
(dp1122
ssI22
(dp1123
I0
(dp1124
ssI23
(dp1125
I0
(dp1126
ssI24
(dp1127
I0
(dp1128
ssI25
(dp1129
I0
(dp1130
ssI26
(dp1131
I0
(dp1132
ssI27
(dp1133
I0
(dp1134
ssI28
(dp1135
I0
(dp1136
ssI29
(dp1137
I0
(dp1138
ssI30
(dp1139
I0
(dp1140
ssI31
(dp1141
I0
(dp1142
ssI32
(dp1143
I0
(dp1144
ssI33
(dp1145
I0
(dp1146
ssI34
(dp1147
I0
(dp1148
ssI35
(dp1149
I0
(dp1150
ssI36
(dp1151
I0
(dp1152
ssI37
(dp1153
I0
(dp1154
ssI38
(dp1155
I0
(dp1156
ssI39
(dp1157
I0
(dp1158
ssI40
(dp1159
I0
(dp1160
ssI41
(dp1161
I0
(dp1162
ssI42
(dp1163
I0
(dp1164
ssI43
(dp1165
I0
(dp1166
ssI44
(dp1167
I0
(dp1168
ssI45
(dp1169
I0
(dp1170
ssI46
(dp1171
I0
(dp1172
ssI47
(dp1173
I0
(dp1174
ssI48
(dp1175
I0
(dp1176
ssI49
(dp1177
I0
(dp1178
sssI7
(dp1179
I0
(dp1180
I0
(dp1181
ssI1
(dp1182
I0
(dp1183
ssI2
(dp1184
I0
(dp1185
ssI3
(dp1186
I0
(dp1187
ssI4
(dp1188
I0
(dp1189
ssI5
(dp1190
I0
(dp1191
ssI6
(dp1192
I0
(dp1193
ssI8
(dp1194
I0
(dp1195
ssI9
(dp1196
I0
(dp1197
ssI10
(dp1198
I0
(dp1199
ssI11
(dp1200
I0
(dp1201
ssI12
(dp1202
I0
(dp1203
ssI13
(dp1204
I0
(dp1205
ssI14
(dp1206
I0
(dp1207
ssI15
(dp1208
I0
(dp1209
ssI16
(dp1210
I0
(dp1211
ssI17
(dp1212
I0
(dp1213
ssI18
(dp1214
I0
(dp1215
ssI19
(dp1216
I0
(dp1217
ssI20
(dp1218
I0
(dp1219
ssI21
(dp1220
I0
(dp1221
ssI22
(dp1222
I0
(dp1223
ssI23
(dp1224
I0
(dp1225
ssI24
(dp1226
I0
(dp1227
ssI25
(dp1228
I0
(dp1229
ssI26
(dp1230
I0
(dp1231
ssI27
(dp1232
I0
(dp1233
ssI28
(dp1234
I0
(dp1235
ssI29
(dp1236
I0
(dp1237
ssI30
(dp1238
I0
(dp1239
ssI31
(dp1240
I0
(dp1241
ssI32
(dp1242
I0
(dp1243
ssI33
(dp1244
I0
(dp1245
ssI34
(dp1246
I0
(dp1247
ssI35
(dp1248
I0
(dp1249
ssI36
(dp1250
I0
(dp1251
ssI37
(dp1252
I0
(dp1253
ssI38
(dp1254
I0
(dp1255
ssI39
(dp1256
I0
(dp1257
ssI40
(dp1258
I0
(dp1259
ssI41
(dp1260
I0
(dp1261
ssI42
(dp1262
I0
(dp1263
ssI43
(dp1264
I0
(dp1265
ssI44
(dp1266
I0
(dp1267
ssI45
(dp1268
I0
(dp1269
ssI46
(dp1270
I0
(dp1271
ssI47
(dp1272
I0
(dp1273
ssI48
(dp1274
I0
(dp1275
ssI49
(dp1276
I0
(dp1277
sssI8
(dp1278
I0
(dp1279
I0
(dp1280
ssI1
(dp1281
I0
(dp1282
ssI2
(dp1283
I0
(dp1284
ssI3
(dp1285
I0
(dp1286
ssI4
(dp1287
I0
(dp1288
ssI5
(dp1289
I0
(dp1290
ssI6
(dp1291
I0
(dp1292
ssI7
(dp1293
I0
(dp1294
ssI9
(dp1295
I0
(dp1296
ssI10
(dp1297
I0
(dp1298
ssI11
(dp1299
I0
(dp1300
ssI12
(dp1301
I0
(dp1302
ssI13
(dp1303
I0
(dp1304
ssI14
(dp1305
I0
(dp1306
ssI15
(dp1307
I0
(dp1308
ssI16
(dp1309
I0
(dp1310
ssI17
(dp1311
I0
(dp1312
ssI18
(dp1313
I0
(dp1314
ssI19
(dp1315
I0
(dp1316
ssI20
(dp1317
I0
(dp1318
ssI21
(dp1319
I0
(dp1320
ssI22
(dp1321
I0
(dp1322
ssI23
(dp1323
I0
(dp1324
ssI24
(dp1325
I0
(dp1326
ssI25
(dp1327
I0
(dp1328
ssI26
(dp1329
I0
(dp1330
ssI27
(dp1331
I0
(dp1332
ssI28
(dp1333
I0
(dp1334
ssI29
(dp1335
I0
(dp1336
ssI30
(dp1337
I0
(dp1338
ssI31
(dp1339
I0
(dp1340
ssI32
(dp1341
I0
(dp1342
ssI33
(dp1343
I0
(dp1344
ssI34
(dp1345
I0
(dp1346
ssI35
(dp1347
I0
(dp1348
ssI36
(dp1349
I0
(dp1350
ssI37
(dp1351
I0
(dp1352
ssI38
(dp1353
I0
(dp1354
ssI39
(dp1355
I0
(dp1356
ssI40
(dp1357
I0
(dp1358
ssI41
(dp1359
I0
(dp1360
ssI42
(dp1361
I0
(dp1362
ssI43
(dp1363
I0
(dp1364
ssI44
(dp1365
I0
(dp1366
ssI45
(dp1367
I0
(dp1368
ssI46
(dp1369
I0
(dp1370
ssI47
(dp1371
I0
(dp1372
ssI48
(dp1373
I0
(dp1374
ssI49
(dp1375
I0
(dp1376
sssI9
(dp1377
I0
(dp1378
I0
(dp1379
ssI1
(dp1380
I0
(dp1381
ssI2
(dp1382
I0
(dp1383
ssI3
(dp1384
I0
(dp1385
ssI4
(dp1386
I0
(dp1387
ssI5
(dp1388
I0
(dp1389
ssI6
(dp1390
I0
(dp1391
ssI7
(dp1392
I0
(dp1393
ssI8
(dp1394
I0
(dp1395
ssI10
(dp1396
I0
(dp1397
ssI11
(dp1398
I0
(dp1399
ssI12
(dp1400
I0
(dp1401
ssI13
(dp1402
I0
(dp1403
ssI14
(dp1404
I0
(dp1405
ssI15
(dp1406
I0
(dp1407
ssI16
(dp1408
I0
(dp1409
ssI17
(dp1410
I0
(dp1411
ssI18
(dp1412
I0
(dp1413
ssI19
(dp1414
I0
(dp1415
ssI20
(dp1416
I0
(dp1417
ssI21
(dp1418
I0
(dp1419
ssI22
(dp1420
I0
(dp1421
ssI23
(dp1422
I0
(dp1423
ssI24
(dp1424
I0
(dp1425
ssI25
(dp1426
I0
(dp1427
ssI26
(dp1428
I0
(dp1429
ssI27
(dp1430
I0
(dp1431
ssI28
(dp1432
I0
(dp1433
ssI29
(dp1434
I0
(dp1435
ssI30
(dp1436
I0
(dp1437
ssI31
(dp1438
I0
(dp1439
ssI32
(dp1440
I0
(dp1441
ssI33
(dp1442
I0
(dp1443
ssI34
(dp1444
I0
(dp1445
ssI35
(dp1446
I0
(dp1447
ssI36
(dp1448
I0
(dp1449
ssI37
(dp1450
I0
(dp1451
ssI38
(dp1452
I0
(dp1453
ssI39
(dp1454
I0
(dp1455
ssI40
(dp1456
I0
(dp1457
ssI41
(dp1458
I0
(dp1459
ssI42
(dp1460
I0
(dp1461
ssI43
(dp1462
I0
(dp1463
ssI44
(dp1464
I0
(dp1465
ssI45
(dp1466
I0
(dp1467
ssI46
(dp1468
I0
(dp1469
ssI47
(dp1470
I0
(dp1471
ssI48
(dp1472
I0
(dp1473
ssI49
(dp1474
I0
(dp1475
sssI10
(dp1476
I0
(dp1477
I0
(dp1478
ssI1
(dp1479
I0
(dp1480
ssI2
(dp1481
I0
(dp1482
ssI3
(dp1483
I0
(dp1484
ssI4
(dp1485
I0
(dp1486
ssI5
(dp1487
I0
(dp1488
ssI6
(dp1489
I0
(dp1490
ssI7
(dp1491
I0
(dp1492
ssI8
(dp1493
I0
(dp1494
ssI9
(dp1495
I0
(dp1496
ssI11
(dp1497
I0
(dp1498
ssI12
(dp1499
I0
(dp1500
ssI13
(dp1501
I0
(dp1502
ssI14
(dp1503
I0
(dp1504
ssI15
(dp1505
I0
(dp1506
ssI16
(dp1507
I0
(dp1508
ssI17
(dp1509
I0
(dp1510
ssI18
(dp1511
I0
(dp1512
ssI19
(dp1513
I0
(dp1514
ssI20
(dp1515
I0
(dp1516
ssI21
(dp1517
I0
(dp1518
ssI22
(dp1519
I0
(dp1520
ssI23
(dp1521
I0
(dp1522
ssI24
(dp1523
I0
(dp1524
ssI25
(dp1525
I0
(dp1526
ssI26
(dp1527
I0
(dp1528
ssI27
(dp1529
I0
(dp1530
ssI28
(dp1531
I0
(dp1532
ssI29
(dp1533
I0
(dp1534
ssI30
(dp1535
I0
(dp1536
ssI31
(dp1537
I0
(dp1538
ssI32
(dp1539
I0
(dp1540
ssI33
(dp1541
I0
(dp1542
ssI34
(dp1543
I0
(dp1544
ssI35
(dp1545
I0
(dp1546
ssI36
(dp1547
I0
(dp1548
ssI37
(dp1549
I0
(dp1550
ssI38
(dp1551
I0
(dp1552
ssI39
(dp1553
I0
(dp1554
ssI40
(dp1555
I0
(dp1556
ssI41
(dp1557
I0
(dp1558
ssI42
(dp1559
I0
(dp1560
ssI43
(dp1561
I0
(dp1562
ssI44
(dp1563
I0
(dp1564
ssI45
(dp1565
I0
(dp1566
ssI46
(dp1567
I0
(dp1568
ssI47
(dp1569
I0
(dp1570
ssI48
(dp1571
I0
(dp1572
ssI49
(dp1573
I0
(dp1574
sssI11
(dp1575
I0
(dp1576
I0
(dp1577
ssI1
(dp1578
I0
(dp1579
ssI2
(dp1580
I0
(dp1581
ssI3
(dp1582
I0
(dp1583
ssI4
(dp1584
I0
(dp1585
ssI5
(dp1586
I0
(dp1587
ssI6
(dp1588
I0
(dp1589
ssI7
(dp1590
I0
(dp1591
ssI8
(dp1592
I0
(dp1593
ssI9
(dp1594
I0
(dp1595
ssI10
(dp1596
I0
(dp1597
ssI12
(dp1598
I0
(dp1599
ssI13
(dp1600
I0
(dp1601
ssI14
(dp1602
I0
(dp1603
ssI15
(dp1604
I0
(dp1605
ssI16
(dp1606
I0
(dp1607
ssI17
(dp1608
I0
(dp1609
ssI18
(dp1610
I0
(dp1611
ssI19
(dp1612
I0
(dp1613
ssI20
(dp1614
I0
(dp1615
ssI21
(dp1616
I0
(dp1617
ssI22
(dp1618
I0
(dp1619
ssI23
(dp1620
I0
(dp1621
ssI24
(dp1622
I0
(dp1623
ssI25
(dp1624
I0
(dp1625
ssI26
(dp1626
I0
(dp1627
ssI27
(dp1628
I0
(dp1629
ssI28
(dp1630
I0
(dp1631
ssI29
(dp1632
I0
(dp1633
ssI30
(dp1634
I0
(dp1635
ssI31
(dp1636
I0
(dp1637
ssI32
(dp1638
I0
(dp1639
ssI33
(dp1640
I0
(dp1641
ssI34
(dp1642
I0
(dp1643
ssI35
(dp1644
I0
(dp1645
ssI36
(dp1646
I0
(dp1647
ssI37
(dp1648
I0
(dp1649
ssI38
(dp1650
I0
(dp1651
ssI39
(dp1652
I0
(dp1653
ssI40
(dp1654
I0
(dp1655
ssI41
(dp1656
I0
(dp1657
ssI42
(dp1658
I0
(dp1659
ssI43
(dp1660
I0
(dp1661
ssI44
(dp1662
I0
(dp1663
ssI45
(dp1664
I0
(dp1665
ssI46
(dp1666
I0
(dp1667
ssI47
(dp1668
I0
(dp1669
ssI48
(dp1670
I0
(dp1671
ssI49
(dp1672
I0
(dp1673
sssI12
(dp1674
I0
(dp1675
I0
(dp1676
ssI1
(dp1677
I0
(dp1678
ssI2
(dp1679
I0
(dp1680
ssI3
(dp1681
I0
(dp1682
ssI4
(dp1683
I0
(dp1684
ssI5
(dp1685
I0
(dp1686
ssI6
(dp1687
I0
(dp1688
ssI7
(dp1689
I0
(dp1690
ssI8
(dp1691
I0
(dp1692
ssI9
(dp1693
I0
(dp1694
ssI10
(dp1695
I0
(dp1696
ssI11
(dp1697
I0
(dp1698
ssI13
(dp1699
I0
(dp1700
ssI14
(dp1701
I0
(dp1702
ssI15
(dp1703
I0
(dp1704
ssI16
(dp1705
I0
(dp1706
ssI17
(dp1707
I0
(dp1708
ssI18
(dp1709
I0
(dp1710
ssI19
(dp1711
I0
(dp1712
ssI20
(dp1713
I0
(dp1714
ssI21
(dp1715
I0
(dp1716
ssI22
(dp1717
I0
(dp1718
ssI23
(dp1719
I0
(dp1720
ssI24
(dp1721
I0
(dp1722
ssI25
(dp1723
I0
(dp1724
ssI26
(dp1725
I0
(dp1726
ssI27
(dp1727
I0
(dp1728
ssI28
(dp1729
I0
(dp1730
ssI29
(dp1731
I0
(dp1732
ssI30
(dp1733
I0
(dp1734
ssI31
(dp1735
I0
(dp1736
ssI32
(dp1737
I0
(dp1738
ssI33
(dp1739
I0
(dp1740
ssI34
(dp1741
I0
(dp1742
ssI35
(dp1743
I0
(dp1744
ssI36
(dp1745
I0
(dp1746
ssI37
(dp1747
I0
(dp1748
ssI38
(dp1749
I0
(dp1750
ssI39
(dp1751
I0
(dp1752
ssI40
(dp1753
I0
(dp1754
ssI41
(dp1755
I0
(dp1756
ssI42
(dp1757
I0
(dp1758
ssI43
(dp1759
I0
(dp1760
ssI44
(dp1761
I0
(dp1762
ssI45
(dp1763
I0
(dp1764
ssI46
(dp1765
I0
(dp1766
ssI47
(dp1767
I0
(dp1768
ssI48
(dp1769
I0
(dp1770
ssI49
(dp1771
I0
(dp1772
sssI13
(dp1773
I0
(dp1774
I0
(dp1775
ssI1
(dp1776
I0
(dp1777
ssI2
(dp1778
I0
(dp1779
ssI3
(dp1780
I0
(dp1781
ssI4
(dp1782
I0
(dp1783
ssI5
(dp1784
I0
(dp1785
ssI6
(dp1786
I0
(dp1787
ssI7
(dp1788
I0
(dp1789
ssI8
(dp1790
I0
(dp1791
ssI9
(dp1792
I0
(dp1793
ssI10
(dp1794
I0
(dp1795
ssI11
(dp1796
I0
(dp1797
ssI12
(dp1798
I0
(dp1799
ssI14
(dp1800
I0
(dp1801
ssI15
(dp1802
I0
(dp1803
ssI16
(dp1804
I0
(dp1805
ssI17
(dp1806
I0
(dp1807
ssI18
(dp1808
I0
(dp1809
ssI19
(dp1810
I0
(dp1811
ssI20
(dp1812
I0
(dp1813
ssI21
(dp1814
I0
(dp1815
ssI22
(dp1816
I0
(dp1817
ssI23
(dp1818
I0
(dp1819
ssI24
(dp1820
I0
(dp1821
ssI25
(dp1822
I0
(dp1823
ssI26
(dp1824
I0
(dp1825
ssI27
(dp1826
I0
(dp1827
ssI28
(dp1828
I0
(dp1829
ssI29
(dp1830
I0
(dp1831
ssI30
(dp1832
I0
(dp1833
ssI31
(dp1834
I0
(dp1835
ssI32
(dp1836
I0
(dp1837
ssI33
(dp1838
I0
(dp1839
ssI34
(dp1840
I0
(dp1841
ssI35
(dp1842
I0
(dp1843
ssI36
(dp1844
I0
(dp1845
ssI37
(dp1846
I0
(dp1847
ssI38
(dp1848
I0
(dp1849
ssI39
(dp1850
I0
(dp1851
ssI40
(dp1852
I0
(dp1853
ssI41
(dp1854
I0
(dp1855
ssI42
(dp1856
I0
(dp1857
ssI43
(dp1858
I0
(dp1859
ssI44
(dp1860
I0
(dp1861
ssI45
(dp1862
I0
(dp1863
ssI46
(dp1864
I0
(dp1865
ssI47
(dp1866
I0
(dp1867
ssI48
(dp1868
I0
(dp1869
ssI49
(dp1870
I0
(dp1871
sssI14
(dp1872
I0
(dp1873
I0
(dp1874
ssI1
(dp1875
I0
(dp1876
ssI2
(dp1877
I0
(dp1878
ssI3
(dp1879
I0
(dp1880
ssI4
(dp1881
I0
(dp1882
ssI5
(dp1883
I0
(dp1884
ssI6
(dp1885
I0
(dp1886
ssI7
(dp1887
I0
(dp1888
ssI8
(dp1889
I0
(dp1890
ssI9
(dp1891
I0
(dp1892
ssI10
(dp1893
I0
(dp1894
ssI11
(dp1895
I0
(dp1896
ssI12
(dp1897
I0
(dp1898
ssI13
(dp1899
I0
(dp1900
ssI15
(dp1901
I0
(dp1902
ssI16
(dp1903
I0
(dp1904
ssI17
(dp1905
I0
(dp1906
ssI18
(dp1907
I0
(dp1908
ssI19
(dp1909
I0
(dp1910
ssI20
(dp1911
I0
(dp1912
ssI21
(dp1913
I0
(dp1914
ssI22
(dp1915
I0
(dp1916
ssI23
(dp1917
I0
(dp1918
ssI24
(dp1919
I0
(dp1920
ssI25
(dp1921
I0
(dp1922
ssI26
(dp1923
I0
(dp1924
ssI27
(dp1925
I0
(dp1926
ssI28
(dp1927
I0
(dp1928
ssI29
(dp1929
I0
(dp1930
ssI30
(dp1931
I0
(dp1932
ssI31
(dp1933
I0
(dp1934
ssI32
(dp1935
I0
(dp1936
ssI33
(dp1937
I0
(dp1938
ssI34
(dp1939
I0
(dp1940
ssI35
(dp1941
I0
(dp1942
ssI36
(dp1943
I0
(dp1944
ssI37
(dp1945
I0
(dp1946
ssI38
(dp1947
I0
(dp1948
ssI39
(dp1949
I0
(dp1950
ssI40
(dp1951
I0
(dp1952
ssI41
(dp1953
I0
(dp1954
ssI42
(dp1955
I0
(dp1956
ssI43
(dp1957
I0
(dp1958
ssI44
(dp1959
I0
(dp1960
ssI45
(dp1961
I0
(dp1962
ssI46
(dp1963
I0
(dp1964
ssI47
(dp1965
I0
(dp1966
ssI48
(dp1967
I0
(dp1968
ssI49
(dp1969
I0
(dp1970
sssI15
(dp1971
I0
(dp1972
I0
(dp1973
ssI1
(dp1974
I0
(dp1975
ssI2
(dp1976
I0
(dp1977
ssI3
(dp1978
I0
(dp1979
ssI4
(dp1980
I0
(dp1981
ssI5
(dp1982
I0
(dp1983
ssI6
(dp1984
I0
(dp1985
ssI7
(dp1986
I0
(dp1987
ssI8
(dp1988
I0
(dp1989
ssI9
(dp1990
I0
(dp1991
ssI10
(dp1992
I0
(dp1993
ssI11
(dp1994
I0
(dp1995
ssI12
(dp1996
I0
(dp1997
ssI13
(dp1998
I0
(dp1999
ssI14
(dp2000
I0
(dp2001
ssI16
(dp2002
I0
(dp2003
ssI17
(dp2004
I0
(dp2005
ssI18
(dp2006
I0
(dp2007
ssI19
(dp2008
I0
(dp2009
ssI20
(dp2010
I0
(dp2011
ssI21
(dp2012
I0
(dp2013
ssI22
(dp2014
I0
(dp2015
ssI23
(dp2016
I0
(dp2017
ssI24
(dp2018
I0
(dp2019
ssI25
(dp2020
I0
(dp2021
ssI26
(dp2022
I0
(dp2023
ssI27
(dp2024
I0
(dp2025
ssI28
(dp2026
I0
(dp2027
ssI29
(dp2028
I0
(dp2029
ssI30
(dp2030
I0
(dp2031
ssI31
(dp2032
I0
(dp2033
ssI32
(dp2034
I0
(dp2035
ssI33
(dp2036
I0
(dp2037
ssI34
(dp2038
I0
(dp2039
ssI35
(dp2040
I0
(dp2041
ssI36
(dp2042
I0
(dp2043
ssI37
(dp2044
I0
(dp2045
ssI38
(dp2046
I0
(dp2047
ssI39
(dp2048
I0
(dp2049
ssI40
(dp2050
I0
(dp2051
ssI41
(dp2052
I0
(dp2053
ssI42
(dp2054
I0
(dp2055
ssI43
(dp2056
I0
(dp2057
ssI44
(dp2058
I0
(dp2059
ssI45
(dp2060
I0
(dp2061
ssI46
(dp2062
I0
(dp2063
ssI47
(dp2064
I0
(dp2065
ssI48
(dp2066
I0
(dp2067
ssI49
(dp2068
I0
(dp2069
sssI16
(dp2070
I0
(dp2071
I0
(dp2072
ssI1
(dp2073
I0
(dp2074
ssI2
(dp2075
I0
(dp2076
ssI3
(dp2077
I0
(dp2078
ssI4
(dp2079
I0
(dp2080
ssI5
(dp2081
I0
(dp2082
ssI6
(dp2083
I0
(dp2084
ssI7
(dp2085
I0
(dp2086
ssI8
(dp2087
I0
(dp2088
ssI9
(dp2089
I0
(dp2090
ssI10
(dp2091
I0
(dp2092
ssI11
(dp2093
I0
(dp2094
ssI12
(dp2095
I0
(dp2096
ssI13
(dp2097
I0
(dp2098
ssI14
(dp2099
I0
(dp2100
ssI15
(dp2101
I0
(dp2102
ssI17
(dp2103
I0
(dp2104
ssI18
(dp2105
I0
(dp2106
ssI19
(dp2107
I0
(dp2108
ssI20
(dp2109
I0
(dp2110
ssI21
(dp2111
I0
(dp2112
ssI22
(dp2113
I0
(dp2114
ssI23
(dp2115
I0
(dp2116
ssI24
(dp2117
I0
(dp2118
ssI25
(dp2119
I0
(dp2120
ssI26
(dp2121
I0
(dp2122
ssI27
(dp2123
I0
(dp2124
ssI28
(dp2125
I0
(dp2126
ssI29
(dp2127
I0
(dp2128
ssI30
(dp2129
I0
(dp2130
ssI31
(dp2131
I0
(dp2132
ssI32
(dp2133
I0
(dp2134
ssI33
(dp2135
I0
(dp2136
ssI34
(dp2137
I0
(dp2138
ssI35
(dp2139
I0
(dp2140
ssI36
(dp2141
I0
(dp2142
ssI37
(dp2143
I0
(dp2144
ssI38
(dp2145
I0
(dp2146
ssI39
(dp2147
I0
(dp2148
ssI40
(dp2149
I0
(dp2150
ssI41
(dp2151
I0
(dp2152
ssI42
(dp2153
I0
(dp2154
ssI43
(dp2155
I0
(dp2156
ssI44
(dp2157
I0
(dp2158
ssI45
(dp2159
I0
(dp2160
ssI46
(dp2161
I0
(dp2162
ssI47
(dp2163
I0
(dp2164
ssI48
(dp2165
I0
(dp2166
ssI49
(dp2167
I0
(dp2168
sssI17
(dp2169
I0
(dp2170
I0
(dp2171
ssI1
(dp2172
I0
(dp2173
ssI2
(dp2174
I0
(dp2175
ssI3
(dp2176
I0
(dp2177
ssI4
(dp2178
I0
(dp2179
ssI5
(dp2180
I0
(dp2181
ssI6
(dp2182
I0
(dp2183
ssI7
(dp2184
I0
(dp2185
ssI8
(dp2186
I0
(dp2187
ssI9
(dp2188
I0
(dp2189
ssI10
(dp2190
I0
(dp2191
ssI11
(dp2192
I0
(dp2193
ssI12
(dp2194
I0
(dp2195
ssI13
(dp2196
I0
(dp2197
ssI14
(dp2198
I0
(dp2199
ssI15
(dp2200
I0
(dp2201
ssI16
(dp2202
I0
(dp2203
ssI18
(dp2204
I0
(dp2205
ssI19
(dp2206
I0
(dp2207
ssI20
(dp2208
I0
(dp2209
ssI21
(dp2210
I0
(dp2211
ssI22
(dp2212
I0
(dp2213
ssI23
(dp2214
I0
(dp2215
ssI24
(dp2216
I0
(dp2217
ssI25
(dp2218
I0
(dp2219
ssI26
(dp2220
I0
(dp2221
ssI27
(dp2222
I0
(dp2223
ssI28
(dp2224
I0
(dp2225
ssI29
(dp2226
I0
(dp2227
ssI30
(dp2228
I0
(dp2229
ssI31
(dp2230
I0
(dp2231
ssI32
(dp2232
I0
(dp2233
ssI33
(dp2234
I0
(dp2235
ssI34
(dp2236
I0
(dp2237
ssI35
(dp2238
I0
(dp2239
ssI36
(dp2240
I0
(dp2241
ssI37
(dp2242
I0
(dp2243
ssI38
(dp2244
I0
(dp2245
ssI39
(dp2246
I0
(dp2247
ssI40
(dp2248
I0
(dp2249
ssI41
(dp2250
I0
(dp2251
ssI42
(dp2252
I0
(dp2253
ssI43
(dp2254
I0
(dp2255
ssI44
(dp2256
I0
(dp2257
ssI45
(dp2258
I0
(dp2259
ssI46
(dp2260
I0
(dp2261
ssI47
(dp2262
I0
(dp2263
ssI48
(dp2264
I0
(dp2265
ssI49
(dp2266
I0
(dp2267
sssI18
(dp2268
I0
(dp2269
I0
(dp2270
ssI1
(dp2271
I0
(dp2272
ssI2
(dp2273
I0
(dp2274
ssI3
(dp2275
I0
(dp2276
ssI4
(dp2277
I0
(dp2278
ssI5
(dp2279
I0
(dp2280
ssI6
(dp2281
I0
(dp2282
ssI7
(dp2283
I0
(dp2284
ssI8
(dp2285
I0
(dp2286
ssI9
(dp2287
I0
(dp2288
ssI10
(dp2289
I0
(dp2290
ssI11
(dp2291
I0
(dp2292
ssI12
(dp2293
I0
(dp2294
ssI13
(dp2295
I0
(dp2296
ssI14
(dp2297
I0
(dp2298
ssI15
(dp2299
I0
(dp2300
ssI16
(dp2301
I0
(dp2302
ssI17
(dp2303
I0
(dp2304
ssI19
(dp2305
I0
(dp2306
ssI20
(dp2307
I0
(dp2308
ssI21
(dp2309
I0
(dp2310
ssI22
(dp2311
I0
(dp2312
ssI23
(dp2313
I0
(dp2314
ssI24
(dp2315
I0
(dp2316
ssI25
(dp2317
I0
(dp2318
ssI26
(dp2319
I0
(dp2320
ssI27
(dp2321
I0
(dp2322
ssI28
(dp2323
I0
(dp2324
ssI29
(dp2325
I0
(dp2326
ssI30
(dp2327
I0
(dp2328
ssI31
(dp2329
I0
(dp2330
ssI32
(dp2331
I0
(dp2332
ssI33
(dp2333
I0
(dp2334
ssI34
(dp2335
I0
(dp2336
ssI35
(dp2337
I0
(dp2338
ssI36
(dp2339
I0
(dp2340
ssI37
(dp2341
I0
(dp2342
ssI38
(dp2343
I0
(dp2344
ssI39
(dp2345
I0
(dp2346
ssI40
(dp2347
I0
(dp2348
ssI41
(dp2349
I0
(dp2350
ssI42
(dp2351
I0
(dp2352
ssI43
(dp2353
I0
(dp2354
ssI44
(dp2355
I0
(dp2356
ssI45
(dp2357
I0
(dp2358
ssI46
(dp2359
I0
(dp2360
ssI47
(dp2361
I0
(dp2362
ssI48
(dp2363
I0
(dp2364
ssI49
(dp2365
I0
(dp2366
sssI19
(dp2367
I0
(dp2368
I0
(dp2369
ssI1
(dp2370
I0
(dp2371
ssI2
(dp2372
I0
(dp2373
ssI3
(dp2374
I0
(dp2375
ssI4
(dp2376
I0
(dp2377
ssI5
(dp2378
I0
(dp2379
ssI6
(dp2380
I0
(dp2381
ssI7
(dp2382
I0
(dp2383
ssI8
(dp2384
I0
(dp2385
ssI9
(dp2386
I0
(dp2387
ssI10
(dp2388
I0
(dp2389
ssI11
(dp2390
I0
(dp2391
ssI12
(dp2392
I0
(dp2393
ssI13
(dp2394
I0
(dp2395
ssI14
(dp2396
I0
(dp2397
ssI15
(dp2398
I0
(dp2399
ssI16
(dp2400
I0
(dp2401
ssI17
(dp2402
I0
(dp2403
ssI18
(dp2404
I0
(dp2405
ssI20
(dp2406
I0
(dp2407
ssI21
(dp2408
I0
(dp2409
ssI22
(dp2410
I0
(dp2411
ssI23
(dp2412
I0
(dp2413
ssI24
(dp2414
I0
(dp2415
ssI25
(dp2416
I0
(dp2417
ssI26
(dp2418
I0
(dp2419
ssI27
(dp2420
I0
(dp2421
ssI28
(dp2422
I0
(dp2423
ssI29
(dp2424
I0
(dp2425
ssI30
(dp2426
I0
(dp2427
ssI31
(dp2428
I0
(dp2429
ssI32
(dp2430
I0
(dp2431
ssI33
(dp2432
I0
(dp2433
ssI34
(dp2434
I0
(dp2435
ssI35
(dp2436
I0
(dp2437
ssI36
(dp2438
I0
(dp2439
ssI37
(dp2440
I0
(dp2441
ssI38
(dp2442
I0
(dp2443
ssI39
(dp2444
I0
(dp2445
ssI40
(dp2446
I0
(dp2447
ssI41
(dp2448
I0
(dp2449
ssI42
(dp2450
I0
(dp2451
ssI43
(dp2452
I0
(dp2453
ssI44
(dp2454
I0
(dp2455
ssI45
(dp2456
I0
(dp2457
ssI46
(dp2458
I0
(dp2459
ssI47
(dp2460
I0
(dp2461
ssI48
(dp2462
I0
(dp2463
ssI49
(dp2464
I0
(dp2465
sssI20
(dp2466
I0
(dp2467
I0
(dp2468
ssI1
(dp2469
I0
(dp2470
ssI2
(dp2471
I0
(dp2472
ssI3
(dp2473
I0
(dp2474
ssI4
(dp2475
I0
(dp2476
ssI5
(dp2477
I0
(dp2478
ssI6
(dp2479
I0
(dp2480
ssI7
(dp2481
I0
(dp2482
ssI8
(dp2483
I0
(dp2484
ssI9
(dp2485
I0
(dp2486
ssI10
(dp2487
I0
(dp2488
ssI11
(dp2489
I0
(dp2490
ssI12
(dp2491
I0
(dp2492
ssI13
(dp2493
I0
(dp2494
ssI14
(dp2495
I0
(dp2496
ssI15
(dp2497
I0
(dp2498
ssI16
(dp2499
I0
(dp2500
ssI17
(dp2501
I0
(dp2502
ssI18
(dp2503
I0
(dp2504
ssI19
(dp2505
I0
(dp2506
ssI21
(dp2507
I0
(dp2508
ssI22
(dp2509
I0
(dp2510
ssI23
(dp2511
I0
(dp2512
ssI24
(dp2513
I0
(dp2514
ssI25
(dp2515
I0
(dp2516
ssI26
(dp2517
I0
(dp2518
ssI27
(dp2519
I0
(dp2520
ssI28
(dp2521
I0
(dp2522
ssI29
(dp2523
I0
(dp2524
ssI30
(dp2525
I0
(dp2526
ssI31
(dp2527
I0
(dp2528
ssI32
(dp2529
I0
(dp2530
ssI33
(dp2531
I0
(dp2532
ssI34
(dp2533
I0
(dp2534
ssI35
(dp2535
I0
(dp2536
ssI36
(dp2537
I0
(dp2538
ssI37
(dp2539
I0
(dp2540
ssI38
(dp2541
I0
(dp2542
ssI39
(dp2543
I0
(dp2544
ssI40
(dp2545
I0
(dp2546
ssI41
(dp2547
I0
(dp2548
ssI42
(dp2549
I0
(dp2550
ssI43
(dp2551
I0
(dp2552
ssI44
(dp2553
I0
(dp2554
ssI45
(dp2555
I0
(dp2556
ssI46
(dp2557
I0
(dp2558
ssI47
(dp2559
I0
(dp2560
ssI48
(dp2561
I0
(dp2562
ssI49
(dp2563
I0
(dp2564
sssI21
(dp2565
I0
(dp2566
I0
(dp2567
ssI1
(dp2568
I0
(dp2569
ssI2
(dp2570
I0
(dp2571
ssI3
(dp2572
I0
(dp2573
ssI4
(dp2574
I0
(dp2575
ssI5
(dp2576
I0
(dp2577
ssI6
(dp2578
I0
(dp2579
ssI7
(dp2580
I0
(dp2581
ssI8
(dp2582
I0
(dp2583
ssI9
(dp2584
I0
(dp2585
ssI10
(dp2586
I0
(dp2587
ssI11
(dp2588
I0
(dp2589
ssI12
(dp2590
I0
(dp2591
ssI13
(dp2592
I0
(dp2593
ssI14
(dp2594
I0
(dp2595
ssI15
(dp2596
I0
(dp2597
ssI16
(dp2598
I0
(dp2599
ssI17
(dp2600
I0
(dp2601
ssI18
(dp2602
I0
(dp2603
ssI19
(dp2604
I0
(dp2605
ssI20
(dp2606
I0
(dp2607
ssI22
(dp2608
I0
(dp2609
ssI23
(dp2610
I0
(dp2611
ssI24
(dp2612
I0
(dp2613
ssI25
(dp2614
I0
(dp2615
ssI26
(dp2616
I0
(dp2617
ssI27
(dp2618
I0
(dp2619
ssI28
(dp2620
I0
(dp2621
ssI29
(dp2622
I0
(dp2623
ssI30
(dp2624
I0
(dp2625
ssI31
(dp2626
I0
(dp2627
ssI32
(dp2628
I0
(dp2629
ssI33
(dp2630
I0
(dp2631
ssI34
(dp2632
I0
(dp2633
ssI35
(dp2634
I0
(dp2635
ssI36
(dp2636
I0
(dp2637
ssI37
(dp2638
I0
(dp2639
ssI38
(dp2640
I0
(dp2641
ssI39
(dp2642
I0
(dp2643
ssI40
(dp2644
I0
(dp2645
ssI41
(dp2646
I0
(dp2647
ssI42
(dp2648
I0
(dp2649
ssI43
(dp2650
I0
(dp2651
ssI44
(dp2652
I0
(dp2653
ssI45
(dp2654
I0
(dp2655
ssI46
(dp2656
I0
(dp2657
ssI47
(dp2658
I0
(dp2659
ssI48
(dp2660
I0
(dp2661
ssI49
(dp2662
I0
(dp2663
sssI22
(dp2664
I0
(dp2665
I0
(dp2666
ssI1
(dp2667
I0
(dp2668
ssI2
(dp2669
I0
(dp2670
ssI3
(dp2671
I0
(dp2672
ssI4
(dp2673
I0
(dp2674
ssI5
(dp2675
I0
(dp2676
ssI6
(dp2677
I0
(dp2678
ssI7
(dp2679
I0
(dp2680
ssI8
(dp2681
I0
(dp2682
ssI9
(dp2683
I0
(dp2684
ssI10
(dp2685
I0
(dp2686
ssI11
(dp2687
I0
(dp2688
ssI12
(dp2689
I0
(dp2690
ssI13
(dp2691
I0
(dp2692
ssI14
(dp2693
I0
(dp2694
ssI15
(dp2695
I0
(dp2696
ssI16
(dp2697
I0
(dp2698
ssI17
(dp2699
I0
(dp2700
ssI18
(dp2701
I0
(dp2702
ssI19
(dp2703
I0
(dp2704
ssI20
(dp2705
I0
(dp2706
ssI21
(dp2707
I0
(dp2708
ssI23
(dp2709
I0
(dp2710
ssI24
(dp2711
I0
(dp2712
ssI25
(dp2713
I0
(dp2714
ssI26
(dp2715
I0
(dp2716
ssI27
(dp2717
I0
(dp2718
ssI28
(dp2719
I0
(dp2720
ssI29
(dp2721
I0
(dp2722
ssI30
(dp2723
I0
(dp2724
ssI31
(dp2725
I0
(dp2726
ssI32
(dp2727
I0
(dp2728
ssI33
(dp2729
I0
(dp2730
ssI34
(dp2731
I0
(dp2732
ssI35
(dp2733
I0
(dp2734
ssI36
(dp2735
I0
(dp2736
ssI37
(dp2737
I0
(dp2738
ssI38
(dp2739
I0
(dp2740
ssI39
(dp2741
I0
(dp2742
ssI40
(dp2743
I0
(dp2744
ssI41
(dp2745
I0
(dp2746
ssI42
(dp2747
I0
(dp2748
ssI43
(dp2749
I0
(dp2750
ssI44
(dp2751
I0
(dp2752
ssI45
(dp2753
I0
(dp2754
ssI46
(dp2755
I0
(dp2756
ssI47
(dp2757
I0
(dp2758
ssI48
(dp2759
I0
(dp2760
ssI49
(dp2761
I0
(dp2762
sssI23
(dp2763
I0
(dp2764
I0
(dp2765
ssI1
(dp2766
I0
(dp2767
ssI2
(dp2768
I0
(dp2769
ssI3
(dp2770
I0
(dp2771
ssI4
(dp2772
I0
(dp2773
ssI5
(dp2774
I0
(dp2775
ssI6
(dp2776
I0
(dp2777
ssI7
(dp2778
I0
(dp2779
ssI8
(dp2780
I0
(dp2781
ssI9
(dp2782
I0
(dp2783
ssI10
(dp2784
I0
(dp2785
ssI11
(dp2786
I0
(dp2787
ssI12
(dp2788
I0
(dp2789
ssI13
(dp2790
I0
(dp2791
ssI14
(dp2792
I0
(dp2793
ssI15
(dp2794
I0
(dp2795
ssI16
(dp2796
I0
(dp2797
ssI17
(dp2798
I0
(dp2799
ssI18
(dp2800
I0
(dp2801
ssI19
(dp2802
I0
(dp2803
ssI20
(dp2804
I0
(dp2805
ssI21
(dp2806
I0
(dp2807
ssI22
(dp2808
I0
(dp2809
ssI24
(dp2810
I0
(dp2811
ssI25
(dp2812
I0
(dp2813
ssI26
(dp2814
I0
(dp2815
ssI27
(dp2816
I0
(dp2817
ssI28
(dp2818
I0
(dp2819
ssI29
(dp2820
I0
(dp2821
ssI30
(dp2822
I0
(dp2823
ssI31
(dp2824
I0
(dp2825
ssI32
(dp2826
I0
(dp2827
ssI33
(dp2828
I0
(dp2829
ssI34
(dp2830
I0
(dp2831
ssI35
(dp2832
I0
(dp2833
ssI36
(dp2834
I0
(dp2835
ssI37
(dp2836
I0
(dp2837
ssI38
(dp2838
I0
(dp2839
ssI39
(dp2840
I0
(dp2841
ssI40
(dp2842
I0
(dp2843
ssI41
(dp2844
I0
(dp2845
ssI42
(dp2846
I0
(dp2847
ssI43
(dp2848
I0
(dp2849
ssI44
(dp2850
I0
(dp2851
ssI45
(dp2852
I0
(dp2853
ssI46
(dp2854
I0
(dp2855
ssI47
(dp2856
I0
(dp2857
ssI48
(dp2858
I0
(dp2859
ssI49
(dp2860
I0
(dp2861
sssI24
(dp2862
I0
(dp2863
I0
(dp2864
ssI1
(dp2865
I0
(dp2866
ssI2
(dp2867
I0
(dp2868
ssI3
(dp2869
I0
(dp2870
ssI4
(dp2871
I0
(dp2872
ssI5
(dp2873
I0
(dp2874
ssI6
(dp2875
I0
(dp2876
ssI7
(dp2877
I0
(dp2878
ssI8
(dp2879
I0
(dp2880
ssI9
(dp2881
I0
(dp2882
ssI10
(dp2883
I0
(dp2884
ssI11
(dp2885
I0
(dp2886
ssI12
(dp2887
I0
(dp2888
ssI13
(dp2889
I0
(dp2890
ssI14
(dp2891
I0
(dp2892
ssI15
(dp2893
I0
(dp2894
ssI16
(dp2895
I0
(dp2896
ssI17
(dp2897
I0
(dp2898
ssI18
(dp2899
I0
(dp2900
ssI19
(dp2901
I0
(dp2902
ssI20
(dp2903
I0
(dp2904
ssI21
(dp2905
I0
(dp2906
ssI22
(dp2907
I0
(dp2908
ssI23
(dp2909
I0
(dp2910
ssI25
(dp2911
I0
(dp2912
ssI26
(dp2913
I0
(dp2914
ssI27
(dp2915
I0
(dp2916
ssI28
(dp2917
I0
(dp2918
ssI29
(dp2919
I0
(dp2920
ssI30
(dp2921
I0
(dp2922
ssI31
(dp2923
I0
(dp2924
ssI32
(dp2925
I0
(dp2926
ssI33
(dp2927
I0
(dp2928
ssI34
(dp2929
I0
(dp2930
ssI35
(dp2931
I0
(dp2932
ssI36
(dp2933
I0
(dp2934
ssI37
(dp2935
I0
(dp2936
ssI38
(dp2937
I0
(dp2938
ssI39
(dp2939
I0
(dp2940
ssI40
(dp2941
I0
(dp2942
ssI41
(dp2943
I0
(dp2944
ssI42
(dp2945
I0
(dp2946
ssI43
(dp2947
I0
(dp2948
ssI44
(dp2949
I0
(dp2950
ssI45
(dp2951
I0
(dp2952
ssI46
(dp2953
I0
(dp2954
ssI47
(dp2955
I0
(dp2956
ssI48
(dp2957
I0
(dp2958
ssI49
(dp2959
I0
(dp2960
sssI25
(dp2961
I0
(dp2962
I0
(dp2963
ssI1
(dp2964
I0
(dp2965
ssI2
(dp2966
I0
(dp2967
ssI3
(dp2968
I0
(dp2969
ssI4
(dp2970
I0
(dp2971
ssI5
(dp2972
I0
(dp2973
ssI6
(dp2974
I0
(dp2975
ssI7
(dp2976
I0
(dp2977
ssI8
(dp2978
I0
(dp2979
ssI9
(dp2980
I0
(dp2981
ssI10
(dp2982
I0
(dp2983
ssI11
(dp2984
I0
(dp2985
ssI12
(dp2986
I0
(dp2987
ssI13
(dp2988
I0
(dp2989
ssI14
(dp2990
I0
(dp2991
ssI15
(dp2992
I0
(dp2993
ssI16
(dp2994
I0
(dp2995
ssI17
(dp2996
I0
(dp2997
ssI18
(dp2998
I0
(dp2999
ssI19
(dp3000
I0
(dp3001
ssI20
(dp3002
I0
(dp3003
ssI21
(dp3004
I0
(dp3005
ssI22
(dp3006
I0
(dp3007
ssI23
(dp3008
I0
(dp3009
ssI24
(dp3010
I0
(dp3011
ssI26
(dp3012
I0
(dp3013
ssI27
(dp3014
I0
(dp3015
ssI28
(dp3016
I0
(dp3017
ssI29
(dp3018
I0
(dp3019
ssI30
(dp3020
I0
(dp3021
ssI31
(dp3022
I0
(dp3023
ssI32
(dp3024
I0
(dp3025
ssI33
(dp3026
I0
(dp3027
ssI34
(dp3028
I0
(dp3029
ssI35
(dp3030
I0
(dp3031
ssI36
(dp3032
I0
(dp3033
ssI37
(dp3034
I0
(dp3035
ssI38
(dp3036
I0
(dp3037
ssI39
(dp3038
I0
(dp3039
ssI40
(dp3040
I0
(dp3041
ssI41
(dp3042
I0
(dp3043
ssI42
(dp3044
I0
(dp3045
ssI43
(dp3046
I0
(dp3047
ssI44
(dp3048
I0
(dp3049
ssI45
(dp3050
I0
(dp3051
ssI46
(dp3052
I0
(dp3053
ssI47
(dp3054
I0
(dp3055
ssI48
(dp3056
I0
(dp3057
ssI49
(dp3058
I0
(dp3059
sssI26
(dp3060
I0
(dp3061
I0
(dp3062
ssI1
(dp3063
I0
(dp3064
ssI2
(dp3065
I0
(dp3066
ssI3
(dp3067
I0
(dp3068
ssI4
(dp3069
I0
(dp3070
ssI5
(dp3071
I0
(dp3072
ssI6
(dp3073
I0
(dp3074
ssI7
(dp3075
I0
(dp3076
ssI8
(dp3077
I0
(dp3078
ssI9
(dp3079
I0
(dp3080
ssI10
(dp3081
I0
(dp3082
ssI11
(dp3083
I0
(dp3084
ssI12
(dp3085
I0
(dp3086
ssI13
(dp3087
I0
(dp3088
ssI14
(dp3089
I0
(dp3090
ssI15
(dp3091
I0
(dp3092
ssI16
(dp3093
I0
(dp3094
ssI17
(dp3095
I0
(dp3096
ssI18
(dp3097
I0
(dp3098
ssI19
(dp3099
I0
(dp3100
ssI20
(dp3101
I0
(dp3102
ssI21
(dp3103
I0
(dp3104
ssI22
(dp3105
I0
(dp3106
ssI23
(dp3107
I0
(dp3108
ssI24
(dp3109
I0
(dp3110
ssI25
(dp3111
I0
(dp3112
ssI27
(dp3113
I0
(dp3114
ssI28
(dp3115
I0
(dp3116
ssI29
(dp3117
I0
(dp3118
ssI30
(dp3119
I0
(dp3120
ssI31
(dp3121
I0
(dp3122
ssI32
(dp3123
I0
(dp3124
ssI33
(dp3125
I0
(dp3126
ssI34
(dp3127
I0
(dp3128
ssI35
(dp3129
I0
(dp3130
ssI36
(dp3131
I0
(dp3132
ssI37
(dp3133
I0
(dp3134
ssI38
(dp3135
I0
(dp3136
ssI39
(dp3137
I0
(dp3138
ssI40
(dp3139
I0
(dp3140
ssI41
(dp3141
I0
(dp3142
ssI42
(dp3143
I0
(dp3144
ssI43
(dp3145
I0
(dp3146
ssI44
(dp3147
I0
(dp3148
ssI45
(dp3149
I0
(dp3150
ssI46
(dp3151
I0
(dp3152
ssI47
(dp3153
I0
(dp3154
ssI48
(dp3155
I0
(dp3156
ssI49
(dp3157
I0
(dp3158
sssI27
(dp3159
I0
(dp3160
I0
(dp3161
ssI1
(dp3162
I0
(dp3163
ssI2
(dp3164
I0
(dp3165
ssI3
(dp3166
I0
(dp3167
ssI4
(dp3168
I0
(dp3169
ssI5
(dp3170
I0
(dp3171
ssI6
(dp3172
I0
(dp3173
ssI7
(dp3174
I0
(dp3175
ssI8
(dp3176
I0
(dp3177
ssI9
(dp3178
I0
(dp3179
ssI10
(dp3180
I0
(dp3181
ssI11
(dp3182
I0
(dp3183
ssI12
(dp3184
I0
(dp3185
ssI13
(dp3186
I0
(dp3187
ssI14
(dp3188
I0
(dp3189
ssI15
(dp3190
I0
(dp3191
ssI16
(dp3192
I0
(dp3193
ssI17
(dp3194
I0
(dp3195
ssI18
(dp3196
I0
(dp3197
ssI19
(dp3198
I0
(dp3199
ssI20
(dp3200
I0
(dp3201
ssI21
(dp3202
I0
(dp3203
ssI22
(dp3204
I0
(dp3205
ssI23
(dp3206
I0
(dp3207
ssI24
(dp3208
I0
(dp3209
ssI25
(dp3210
I0
(dp3211
ssI26
(dp3212
I0
(dp3213
ssI28
(dp3214
I0
(dp3215
ssI29
(dp3216
I0
(dp3217
ssI30
(dp3218
I0
(dp3219
ssI31
(dp3220
I0
(dp3221
ssI32
(dp3222
I0
(dp3223
ssI33
(dp3224
I0
(dp3225
ssI34
(dp3226
I0
(dp3227
ssI35
(dp3228
I0
(dp3229
ssI36
(dp3230
I0
(dp3231
ssI37
(dp3232
I0
(dp3233
ssI38
(dp3234
I0
(dp3235
ssI39
(dp3236
I0
(dp3237
ssI40
(dp3238
I0
(dp3239
ssI41
(dp3240
I0
(dp3241
ssI42
(dp3242
I0
(dp3243
ssI43
(dp3244
I0
(dp3245
ssI44
(dp3246
I0
(dp3247
ssI45
(dp3248
I0
(dp3249
ssI46
(dp3250
I0
(dp3251
ssI47
(dp3252
I0
(dp3253
ssI48
(dp3254
I0
(dp3255
ssI49
(dp3256
I0
(dp3257
sssI28
(dp3258
I0
(dp3259
I0
(dp3260
ssI1
(dp3261
I0
(dp3262
ssI2
(dp3263
I0
(dp3264
ssI3
(dp3265
I0
(dp3266
ssI4
(dp3267
I0
(dp3268
ssI5
(dp3269
I0
(dp3270
ssI6
(dp3271
I0
(dp3272
ssI7
(dp3273
I0
(dp3274
ssI8
(dp3275
I0
(dp3276
ssI9
(dp3277
I0
(dp3278
ssI10
(dp3279
I0
(dp3280
ssI11
(dp3281
I0
(dp3282
ssI12
(dp3283
I0
(dp3284
ssI13
(dp3285
I0
(dp3286
ssI14
(dp3287
I0
(dp3288
ssI15
(dp3289
I0
(dp3290
ssI16
(dp3291
I0
(dp3292
ssI17
(dp3293
I0
(dp3294
ssI18
(dp3295
I0
(dp3296
ssI19
(dp3297
I0
(dp3298
ssI20
(dp3299
I0
(dp3300
ssI21
(dp3301
I0
(dp3302
ssI22
(dp3303
I0
(dp3304
ssI23
(dp3305
I0
(dp3306
ssI24
(dp3307
I0
(dp3308
ssI25
(dp3309
I0
(dp3310
ssI26
(dp3311
I0
(dp3312
ssI27
(dp3313
I0
(dp3314
ssI29
(dp3315
I0
(dp3316
ssI30
(dp3317
I0
(dp3318
ssI31
(dp3319
I0
(dp3320
ssI32
(dp3321
I0
(dp3322
ssI33
(dp3323
I0
(dp3324
ssI34
(dp3325
I0
(dp3326
ssI35
(dp3327
I0
(dp3328
ssI36
(dp3329
I0
(dp3330
ssI37
(dp3331
I0
(dp3332
ssI38
(dp3333
I0
(dp3334
ssI39
(dp3335
I0
(dp3336
ssI40
(dp3337
I0
(dp3338
ssI41
(dp3339
I0
(dp3340
ssI42
(dp3341
I0
(dp3342
ssI43
(dp3343
I0
(dp3344
ssI44
(dp3345
I0
(dp3346
ssI45
(dp3347
I0
(dp3348
ssI46
(dp3349
I0
(dp3350
ssI47
(dp3351
I0
(dp3352
ssI48
(dp3353
I0
(dp3354
ssI49
(dp3355
I0
(dp3356
sssI29
(dp3357
I0
(dp3358
I0
(dp3359
ssI1
(dp3360
I0
(dp3361
ssI2
(dp3362
I0
(dp3363
ssI3
(dp3364
I0
(dp3365
ssI4
(dp3366
I0
(dp3367
ssI5
(dp3368
I0
(dp3369
ssI6
(dp3370
I0
(dp3371
ssI7
(dp3372
I0
(dp3373
ssI8
(dp3374
I0
(dp3375
ssI9
(dp3376
I0
(dp3377
ssI10
(dp3378
I0
(dp3379
ssI11
(dp3380
I0
(dp3381
ssI12
(dp3382
I0
(dp3383
ssI13
(dp3384
I0
(dp3385
ssI14
(dp3386
I0
(dp3387
ssI15
(dp3388
I0
(dp3389
ssI16
(dp3390
I0
(dp3391
ssI17
(dp3392
I0
(dp3393
ssI18
(dp3394
I0
(dp3395
ssI19
(dp3396
I0
(dp3397
ssI20
(dp3398
I0
(dp3399
ssI21
(dp3400
I0
(dp3401
ssI22
(dp3402
I0
(dp3403
ssI23
(dp3404
I0
(dp3405
ssI24
(dp3406
I0
(dp3407
ssI25
(dp3408
I0
(dp3409
ssI26
(dp3410
I0
(dp3411
ssI27
(dp3412
I0
(dp3413
ssI28
(dp3414
I0
(dp3415
ssI30
(dp3416
I0
(dp3417
ssI31
(dp3418
I0
(dp3419
ssI32
(dp3420
I0
(dp3421
ssI33
(dp3422
I0
(dp3423
ssI34
(dp3424
I0
(dp3425
ssI35
(dp3426
I0
(dp3427
ssI36
(dp3428
I0
(dp3429
ssI37
(dp3430
I0
(dp3431
ssI38
(dp3432
I0
(dp3433
ssI39
(dp3434
I0
(dp3435
ssI40
(dp3436
I0
(dp3437
ssI41
(dp3438
I0
(dp3439
ssI42
(dp3440
I0
(dp3441
ssI43
(dp3442
I0
(dp3443
ssI44
(dp3444
I0
(dp3445
ssI45
(dp3446
I0
(dp3447
ssI46
(dp3448
I0
(dp3449
ssI47
(dp3450
I0
(dp3451
ssI48
(dp3452
I0
(dp3453
ssI49
(dp3454
I0
(dp3455
sssI30
(dp3456
I0
(dp3457
I0
(dp3458
ssI1
(dp3459
I0
(dp3460
ssI2
(dp3461
I0
(dp3462
ssI3
(dp3463
I0
(dp3464
ssI4
(dp3465
I0
(dp3466
ssI5
(dp3467
I0
(dp3468
ssI6
(dp3469
I0
(dp3470
ssI7
(dp3471
I0
(dp3472
ssI8
(dp3473
I0
(dp3474
ssI9
(dp3475
I0
(dp3476
ssI10
(dp3477
I0
(dp3478
ssI11
(dp3479
I0
(dp3480
ssI12
(dp3481
I0
(dp3482
ssI13
(dp3483
I0
(dp3484
ssI14
(dp3485
I0
(dp3486
ssI15
(dp3487
I0
(dp3488
ssI16
(dp3489
I0
(dp3490
ssI17
(dp3491
I0
(dp3492
ssI18
(dp3493
I0
(dp3494
ssI19
(dp3495
I0
(dp3496
ssI20
(dp3497
I0
(dp3498
ssI21
(dp3499
I0
(dp3500
ssI22
(dp3501
I0
(dp3502
ssI23
(dp3503
I0
(dp3504
ssI24
(dp3505
I0
(dp3506
ssI25
(dp3507
I0
(dp3508
ssI26
(dp3509
I0
(dp3510
ssI27
(dp3511
I0
(dp3512
ssI28
(dp3513
I0
(dp3514
ssI29
(dp3515
I0
(dp3516
ssI31
(dp3517
I0
(dp3518
ssI32
(dp3519
I0
(dp3520
ssI33
(dp3521
I0
(dp3522
ssI34
(dp3523
I0
(dp3524
ssI35
(dp3525
I0
(dp3526
ssI36
(dp3527
I0
(dp3528
ssI37
(dp3529
I0
(dp3530
ssI38
(dp3531
I0
(dp3532
ssI39
(dp3533
I0
(dp3534
ssI40
(dp3535
I0
(dp3536
ssI41
(dp3537
I0
(dp3538
ssI42
(dp3539
I0
(dp3540
ssI43
(dp3541
I0
(dp3542
ssI44
(dp3543
I0
(dp3544
ssI45
(dp3545
I0
(dp3546
ssI46
(dp3547
I0
(dp3548
ssI47
(dp3549
I0
(dp3550
ssI48
(dp3551
I0
(dp3552
ssI49
(dp3553
I0
(dp3554
sssI31
(dp3555
I0
(dp3556
I0
(dp3557
ssI1
(dp3558
I0
(dp3559
ssI2
(dp3560
I0
(dp3561
ssI3
(dp3562
I0
(dp3563
ssI4
(dp3564
I0
(dp3565
ssI5
(dp3566
I0
(dp3567
ssI6
(dp3568
I0
(dp3569
ssI7
(dp3570
I0
(dp3571
ssI8
(dp3572
I0
(dp3573
ssI9
(dp3574
I0
(dp3575
ssI10
(dp3576
I0
(dp3577
ssI11
(dp3578
I0
(dp3579
ssI12
(dp3580
I0
(dp3581
ssI13
(dp3582
I0
(dp3583
ssI14
(dp3584
I0
(dp3585
ssI15
(dp3586
I0
(dp3587
ssI16
(dp3588
I0
(dp3589
ssI17
(dp3590
I0
(dp3591
ssI18
(dp3592
I0
(dp3593
ssI19
(dp3594
I0
(dp3595
ssI20
(dp3596
I0
(dp3597
ssI21
(dp3598
I0
(dp3599
ssI22
(dp3600
I0
(dp3601
ssI23
(dp3602
I0
(dp3603
ssI24
(dp3604
I0
(dp3605
ssI25
(dp3606
I0
(dp3607
ssI26
(dp3608
I0
(dp3609
ssI27
(dp3610
I0
(dp3611
ssI28
(dp3612
I0
(dp3613
ssI29
(dp3614
I0
(dp3615
ssI30
(dp3616
I0
(dp3617
ssI32
(dp3618
I0
(dp3619
ssI33
(dp3620
I0
(dp3621
ssI34
(dp3622
I0
(dp3623
ssI35
(dp3624
I0
(dp3625
ssI36
(dp3626
I0
(dp3627
ssI37
(dp3628
I0
(dp3629
ssI38
(dp3630
I0
(dp3631
ssI39
(dp3632
I0
(dp3633
ssI40
(dp3634
I0
(dp3635
ssI41
(dp3636
I0
(dp3637
ssI42
(dp3638
I0
(dp3639
ssI43
(dp3640
I0
(dp3641
ssI44
(dp3642
I0
(dp3643
ssI45
(dp3644
I0
(dp3645
ssI46
(dp3646
I0
(dp3647
ssI47
(dp3648
I0
(dp3649
ssI48
(dp3650
I0
(dp3651
ssI49
(dp3652
I0
(dp3653
sssI32
(dp3654
I0
(dp3655
I0
(dp3656
ssI1
(dp3657
I0
(dp3658
ssI2
(dp3659
I0
(dp3660
ssI3
(dp3661
I0
(dp3662
ssI4
(dp3663
I0
(dp3664
ssI5
(dp3665
I0
(dp3666
ssI6
(dp3667
I0
(dp3668
ssI7
(dp3669
I0
(dp3670
ssI8
(dp3671
I0
(dp3672
ssI9
(dp3673
I0
(dp3674
ssI10
(dp3675
I0
(dp3676
ssI11
(dp3677
I0
(dp3678
ssI12
(dp3679
I0
(dp3680
ssI13
(dp3681
I0
(dp3682
ssI14
(dp3683
I0
(dp3684
ssI15
(dp3685
I0
(dp3686
ssI16
(dp3687
I0
(dp3688
ssI17
(dp3689
I0
(dp3690
ssI18
(dp3691
I0
(dp3692
ssI19
(dp3693
I0
(dp3694
ssI20
(dp3695
I0
(dp3696
ssI21
(dp3697
I0
(dp3698
ssI22
(dp3699
I0
(dp3700
ssI23
(dp3701
I0
(dp3702
ssI24
(dp3703
I0
(dp3704
ssI25
(dp3705
I0
(dp3706
ssI26
(dp3707
I0
(dp3708
ssI27
(dp3709
I0
(dp3710
ssI28
(dp3711
I0
(dp3712
ssI29
(dp3713
I0
(dp3714
ssI30
(dp3715
I0
(dp3716
ssI31
(dp3717
I0
(dp3718
ssI33
(dp3719
I0
(dp3720
ssI34
(dp3721
I0
(dp3722
ssI35
(dp3723
I0
(dp3724
ssI36
(dp3725
I0
(dp3726
ssI37
(dp3727
I0
(dp3728
ssI38
(dp3729
I0
(dp3730
ssI39
(dp3731
I0
(dp3732
ssI40
(dp3733
I0
(dp3734
ssI41
(dp3735
I0
(dp3736
ssI42
(dp3737
I0
(dp3738
ssI43
(dp3739
I0
(dp3740
ssI44
(dp3741
I0
(dp3742
ssI45
(dp3743
I0
(dp3744
ssI46
(dp3745
I0
(dp3746
ssI47
(dp3747
I0
(dp3748
ssI48
(dp3749
I0
(dp3750
ssI49
(dp3751
I0
(dp3752
sssI33
(dp3753
I0
(dp3754
I0
(dp3755
ssI1
(dp3756
I0
(dp3757
ssI2
(dp3758
I0
(dp3759
ssI3
(dp3760
I0
(dp3761
ssI4
(dp3762
I0
(dp3763
ssI5
(dp3764
I0
(dp3765
ssI6
(dp3766
I0
(dp3767
ssI7
(dp3768
I0
(dp3769
ssI8
(dp3770
I0
(dp3771
ssI9
(dp3772
I0
(dp3773
ssI10
(dp3774
I0
(dp3775
ssI11
(dp3776
I0
(dp3777
ssI12
(dp3778
I0
(dp3779
ssI13
(dp3780
I0
(dp3781
ssI14
(dp3782
I0
(dp3783
ssI15
(dp3784
I0
(dp3785
ssI16
(dp3786
I0
(dp3787
ssI17
(dp3788
I0
(dp3789
ssI18
(dp3790
I0
(dp3791
ssI19
(dp3792
I0
(dp3793
ssI20
(dp3794
I0
(dp3795
ssI21
(dp3796
I0
(dp3797
ssI22
(dp3798
I0
(dp3799
ssI23
(dp3800
I0
(dp3801
ssI24
(dp3802
I0
(dp3803
ssI25
(dp3804
I0
(dp3805
ssI26
(dp3806
I0
(dp3807
ssI27
(dp3808
I0
(dp3809
ssI28
(dp3810
I0
(dp3811
ssI29
(dp3812
I0
(dp3813
ssI30
(dp3814
I0
(dp3815
ssI31
(dp3816
I0
(dp3817
ssI32
(dp3818
I0
(dp3819
ssI34
(dp3820
I0
(dp3821
ssI35
(dp3822
I0
(dp3823
ssI36
(dp3824
I0
(dp3825
ssI37
(dp3826
I0
(dp3827
ssI38
(dp3828
I0
(dp3829
ssI39
(dp3830
I0
(dp3831
ssI40
(dp3832
I0
(dp3833
ssI41
(dp3834
I0
(dp3835
ssI42
(dp3836
I0
(dp3837
ssI43
(dp3838
I0
(dp3839
ssI44
(dp3840
I0
(dp3841
ssI45
(dp3842
I0
(dp3843
ssI46
(dp3844
I0
(dp3845
ssI47
(dp3846
I0
(dp3847
ssI48
(dp3848
I0
(dp3849
ssI49
(dp3850
I0
(dp3851
sssI34
(dp3852
I0
(dp3853
I0
(dp3854
ssI1
(dp3855
I0
(dp3856
ssI2
(dp3857
I0
(dp3858
ssI3
(dp3859
I0
(dp3860
ssI4
(dp3861
I0
(dp3862
ssI5
(dp3863
I0
(dp3864
ssI6
(dp3865
I0
(dp3866
ssI7
(dp3867
I0
(dp3868
ssI8
(dp3869
I0
(dp3870
ssI9
(dp3871
I0
(dp3872
ssI10
(dp3873
I0
(dp3874
ssI11
(dp3875
I0
(dp3876
ssI12
(dp3877
I0
(dp3878
ssI13
(dp3879
I0
(dp3880
ssI14
(dp3881
I0
(dp3882
ssI15
(dp3883
I0
(dp3884
ssI16
(dp3885
I0
(dp3886
ssI17
(dp3887
I0
(dp3888
ssI18
(dp3889
I0
(dp3890
ssI19
(dp3891
I0
(dp3892
ssI20
(dp3893
I0
(dp3894
ssI21
(dp3895
I0
(dp3896
ssI22
(dp3897
I0
(dp3898
ssI23
(dp3899
I0
(dp3900
ssI24
(dp3901
I0
(dp3902
ssI25
(dp3903
I0
(dp3904
ssI26
(dp3905
I0
(dp3906
ssI27
(dp3907
I0
(dp3908
ssI28
(dp3909
I0
(dp3910
ssI29
(dp3911
I0
(dp3912
ssI30
(dp3913
I0
(dp3914
ssI31
(dp3915
I0
(dp3916
ssI32
(dp3917
I0
(dp3918
ssI33
(dp3919
I0
(dp3920
ssI35
(dp3921
I0
(dp3922
ssI36
(dp3923
I0
(dp3924
ssI37
(dp3925
I0
(dp3926
ssI38
(dp3927
I0
(dp3928
ssI39
(dp3929
I0
(dp3930
ssI40
(dp3931
I0
(dp3932
ssI41
(dp3933
I0
(dp3934
ssI42
(dp3935
I0
(dp3936
ssI43
(dp3937
I0
(dp3938
ssI44
(dp3939
I0
(dp3940
ssI45
(dp3941
I0
(dp3942
ssI46
(dp3943
I0
(dp3944
ssI47
(dp3945
I0
(dp3946
ssI48
(dp3947
I0
(dp3948
ssI49
(dp3949
I0
(dp3950
sssI35
(dp3951
I0
(dp3952
I0
(dp3953
ssI1
(dp3954
I0
(dp3955
ssI2
(dp3956
I0
(dp3957
ssI3
(dp3958
I0
(dp3959
ssI4
(dp3960
I0
(dp3961
ssI5
(dp3962
I0
(dp3963
ssI6
(dp3964
I0
(dp3965
ssI7
(dp3966
I0
(dp3967
ssI8
(dp3968
I0
(dp3969
ssI9
(dp3970
I0
(dp3971
ssI10
(dp3972
I0
(dp3973
ssI11
(dp3974
I0
(dp3975
ssI12
(dp3976
I0
(dp3977
ssI13
(dp3978
I0
(dp3979
ssI14
(dp3980
I0
(dp3981
ssI15
(dp3982
I0
(dp3983
ssI16
(dp3984
I0
(dp3985
ssI17
(dp3986
I0
(dp3987
ssI18
(dp3988
I0
(dp3989
ssI19
(dp3990
I0
(dp3991
ssI20
(dp3992
I0
(dp3993
ssI21
(dp3994
I0
(dp3995
ssI22
(dp3996
I0
(dp3997
ssI23
(dp3998
I0
(dp3999
ssI24
(dp4000
I0
(dp4001
ssI25
(dp4002
I0
(dp4003
ssI26
(dp4004
I0
(dp4005
ssI27
(dp4006
I0
(dp4007
ssI28
(dp4008
I0
(dp4009
ssI29
(dp4010
I0
(dp4011
ssI30
(dp4012
I0
(dp4013
ssI31
(dp4014
I0
(dp4015
ssI32
(dp4016
I0
(dp4017
ssI33
(dp4018
I0
(dp4019
ssI34
(dp4020
I0
(dp4021
ssI36
(dp4022
I0
(dp4023
ssI37
(dp4024
I0
(dp4025
ssI38
(dp4026
I0
(dp4027
ssI39
(dp4028
I0
(dp4029
ssI40
(dp4030
I0
(dp4031
ssI41
(dp4032
I0
(dp4033
ssI42
(dp4034
I0
(dp4035
ssI43
(dp4036
I0
(dp4037
ssI44
(dp4038
I0
(dp4039
ssI45
(dp4040
I0
(dp4041
ssI46
(dp4042
I0
(dp4043
ssI47
(dp4044
I0
(dp4045
ssI48
(dp4046
I0
(dp4047
ssI49
(dp4048
I0
(dp4049
sssI36
(dp4050
I0
(dp4051
I0
(dp4052
ssI1
(dp4053
I0
(dp4054
ssI2
(dp4055
I0
(dp4056
ssI3
(dp4057
I0
(dp4058
ssI4
(dp4059
I0
(dp4060
ssI5
(dp4061
I0
(dp4062
ssI6
(dp4063
I0
(dp4064
ssI7
(dp4065
I0
(dp4066
ssI8
(dp4067
I0
(dp4068
ssI9
(dp4069
I0
(dp4070
ssI10
(dp4071
I0
(dp4072
ssI11
(dp4073
I0
(dp4074
ssI12
(dp4075
I0
(dp4076
ssI13
(dp4077
I0
(dp4078
ssI14
(dp4079
I0
(dp4080
ssI15
(dp4081
I0
(dp4082
ssI16
(dp4083
I0
(dp4084
ssI17
(dp4085
I0
(dp4086
ssI18
(dp4087
I0
(dp4088
ssI19
(dp4089
I0
(dp4090
ssI20
(dp4091
I0
(dp4092
ssI21
(dp4093
I0
(dp4094
ssI22
(dp4095
I0
(dp4096
ssI23
(dp4097
I0
(dp4098
ssI24
(dp4099
I0
(dp4100
ssI25
(dp4101
I0
(dp4102
ssI26
(dp4103
I0
(dp4104
ssI27
(dp4105
I0
(dp4106
ssI28
(dp4107
I0
(dp4108
ssI29
(dp4109
I0
(dp4110
ssI30
(dp4111
I0
(dp4112
ssI31
(dp4113
I0
(dp4114
ssI32
(dp4115
I0
(dp4116
ssI33
(dp4117
I0
(dp4118
ssI34
(dp4119
I0
(dp4120
ssI35
(dp4121
I0
(dp4122
ssI37
(dp4123
I0
(dp4124
ssI38
(dp4125
I0
(dp4126
ssI39
(dp4127
I0
(dp4128
ssI40
(dp4129
I0
(dp4130
ssI41
(dp4131
I0
(dp4132
ssI42
(dp4133
I0
(dp4134
ssI43
(dp4135
I0
(dp4136
ssI44
(dp4137
I0
(dp4138
ssI45
(dp4139
I0
(dp4140
ssI46
(dp4141
I0
(dp4142
ssI47
(dp4143
I0
(dp4144
ssI48
(dp4145
I0
(dp4146
ssI49
(dp4147
I0
(dp4148
sssI37
(dp4149
I0
(dp4150
I0
(dp4151
ssI1
(dp4152
I0
(dp4153
ssI2
(dp4154
I0
(dp4155
ssI3
(dp4156
I0
(dp4157
ssI4
(dp4158
I0
(dp4159
ssI5
(dp4160
I0
(dp4161
ssI6
(dp4162
I0
(dp4163
ssI7
(dp4164
I0
(dp4165
ssI8
(dp4166
I0
(dp4167
ssI9
(dp4168
I0
(dp4169
ssI10
(dp4170
I0
(dp4171
ssI11
(dp4172
I0
(dp4173
ssI12
(dp4174
I0
(dp4175
ssI13
(dp4176
I0
(dp4177
ssI14
(dp4178
I0
(dp4179
ssI15
(dp4180
I0
(dp4181
ssI16
(dp4182
I0
(dp4183
ssI17
(dp4184
I0
(dp4185
ssI18
(dp4186
I0
(dp4187
ssI19
(dp4188
I0
(dp4189
ssI20
(dp4190
I0
(dp4191
ssI21
(dp4192
I0
(dp4193
ssI22
(dp4194
I0
(dp4195
ssI23
(dp4196
I0
(dp4197
ssI24
(dp4198
I0
(dp4199
ssI25
(dp4200
I0
(dp4201
ssI26
(dp4202
I0
(dp4203
ssI27
(dp4204
I0
(dp4205
ssI28
(dp4206
I0
(dp4207
ssI29
(dp4208
I0
(dp4209
ssI30
(dp4210
I0
(dp4211
ssI31
(dp4212
I0
(dp4213
ssI32
(dp4214
I0
(dp4215
ssI33
(dp4216
I0
(dp4217
ssI34
(dp4218
I0
(dp4219
ssI35
(dp4220
I0
(dp4221
ssI36
(dp4222
I0
(dp4223
ssI38
(dp4224
I0
(dp4225
ssI39
(dp4226
I0
(dp4227
ssI40
(dp4228
I0
(dp4229
ssI41
(dp4230
I0
(dp4231
ssI42
(dp4232
I0
(dp4233
ssI43
(dp4234
I0
(dp4235
ssI44
(dp4236
I0
(dp4237
ssI45
(dp4238
I0
(dp4239
ssI46
(dp4240
I0
(dp4241
ssI47
(dp4242
I0
(dp4243
ssI48
(dp4244
I0
(dp4245
ssI49
(dp4246
I0
(dp4247
sssI38
(dp4248
I0
(dp4249
I0
(dp4250
ssI1
(dp4251
I0
(dp4252
ssI2
(dp4253
I0
(dp4254
ssI3
(dp4255
I0
(dp4256
ssI4
(dp4257
I0
(dp4258
ssI5
(dp4259
I0
(dp4260
ssI6
(dp4261
I0
(dp4262
ssI7
(dp4263
I0
(dp4264
ssI8
(dp4265
I0
(dp4266
ssI9
(dp4267
I0
(dp4268
ssI10
(dp4269
I0
(dp4270
ssI11
(dp4271
I0
(dp4272
ssI12
(dp4273
I0
(dp4274
ssI13
(dp4275
I0
(dp4276
ssI14
(dp4277
I0
(dp4278
ssI15
(dp4279
I0
(dp4280
ssI16
(dp4281
I0
(dp4282
ssI17
(dp4283
I0
(dp4284
ssI18
(dp4285
I0
(dp4286
ssI19
(dp4287
I0
(dp4288
ssI20
(dp4289
I0
(dp4290
ssI21
(dp4291
I0
(dp4292
ssI22
(dp4293
I0
(dp4294
ssI23
(dp4295
I0
(dp4296
ssI24
(dp4297
I0
(dp4298
ssI25
(dp4299
I0
(dp4300
ssI26
(dp4301
I0
(dp4302
ssI27
(dp4303
I0
(dp4304
ssI28
(dp4305
I0
(dp4306
ssI29
(dp4307
I0
(dp4308
ssI30
(dp4309
I0
(dp4310
ssI31
(dp4311
I0
(dp4312
ssI32
(dp4313
I0
(dp4314
ssI33
(dp4315
I0
(dp4316
ssI34
(dp4317
I0
(dp4318
ssI35
(dp4319
I0
(dp4320
ssI36
(dp4321
I0
(dp4322
ssI37
(dp4323
I0
(dp4324
ssI39
(dp4325
I0
(dp4326
ssI40
(dp4327
I0
(dp4328
ssI41
(dp4329
I0
(dp4330
ssI42
(dp4331
I0
(dp4332
ssI43
(dp4333
I0
(dp4334
ssI44
(dp4335
I0
(dp4336
ssI45
(dp4337
I0
(dp4338
ssI46
(dp4339
I0
(dp4340
ssI47
(dp4341
I0
(dp4342
ssI48
(dp4343
I0
(dp4344
ssI49
(dp4345
I0
(dp4346
sssI39
(dp4347
I0
(dp4348
I0
(dp4349
ssI1
(dp4350
I0
(dp4351
ssI2
(dp4352
I0
(dp4353
ssI3
(dp4354
I0
(dp4355
ssI4
(dp4356
I0
(dp4357
ssI5
(dp4358
I0
(dp4359
ssI6
(dp4360
I0
(dp4361
ssI7
(dp4362
I0
(dp4363
ssI8
(dp4364
I0
(dp4365
ssI9
(dp4366
I0
(dp4367
ssI10
(dp4368
I0
(dp4369
ssI11
(dp4370
I0
(dp4371
ssI12
(dp4372
I0
(dp4373
ssI13
(dp4374
I0
(dp4375
ssI14
(dp4376
I0
(dp4377
ssI15
(dp4378
I0
(dp4379
ssI16
(dp4380
I0
(dp4381
ssI17
(dp4382
I0
(dp4383
ssI18
(dp4384
I0
(dp4385
ssI19
(dp4386
I0
(dp4387
ssI20
(dp4388
I0
(dp4389
ssI21
(dp4390
I0
(dp4391
ssI22
(dp4392
I0
(dp4393
ssI23
(dp4394
I0
(dp4395
ssI24
(dp4396
I0
(dp4397
ssI25
(dp4398
I0
(dp4399
ssI26
(dp4400
I0
(dp4401
ssI27
(dp4402
I0
(dp4403
ssI28
(dp4404
I0
(dp4405
ssI29
(dp4406
I0
(dp4407
ssI30
(dp4408
I0
(dp4409
ssI31
(dp4410
I0
(dp4411
ssI32
(dp4412
I0
(dp4413
ssI33
(dp4414
I0
(dp4415
ssI34
(dp4416
I0
(dp4417
ssI35
(dp4418
I0
(dp4419
ssI36
(dp4420
I0
(dp4421
ssI37
(dp4422
I0
(dp4423
ssI38
(dp4424
I0
(dp4425
ssI40
(dp4426
I0
(dp4427
ssI41
(dp4428
I0
(dp4429
ssI42
(dp4430
I0
(dp4431
ssI43
(dp4432
I0
(dp4433
ssI44
(dp4434
I0
(dp4435
ssI45
(dp4436
I0
(dp4437
ssI46
(dp4438
I0
(dp4439
ssI47
(dp4440
I0
(dp4441
ssI48
(dp4442
I0
(dp4443
ssI49
(dp4444
I0
(dp4445
sssI40
(dp4446
I0
(dp4447
I0
(dp4448
ssI1
(dp4449
I0
(dp4450
ssI2
(dp4451
I0
(dp4452
ssI3
(dp4453
I0
(dp4454
ssI4
(dp4455
I0
(dp4456
ssI5
(dp4457
I0
(dp4458
ssI6
(dp4459
I0
(dp4460
ssI7
(dp4461
I0
(dp4462
ssI8
(dp4463
I0
(dp4464
ssI9
(dp4465
I0
(dp4466
ssI10
(dp4467
I0
(dp4468
ssI11
(dp4469
I0
(dp4470
ssI12
(dp4471
I0
(dp4472
ssI13
(dp4473
I0
(dp4474
ssI14
(dp4475
I0
(dp4476
ssI15
(dp4477
I0
(dp4478
ssI16
(dp4479
I0
(dp4480
ssI17
(dp4481
I0
(dp4482
ssI18
(dp4483
I0
(dp4484
ssI19
(dp4485
I0
(dp4486
ssI20
(dp4487
I0
(dp4488
ssI21
(dp4489
I0
(dp4490
ssI22
(dp4491
I0
(dp4492
ssI23
(dp4493
I0
(dp4494
ssI24
(dp4495
I0
(dp4496
ssI25
(dp4497
I0
(dp4498
ssI26
(dp4499
I0
(dp4500
ssI27
(dp4501
I0
(dp4502
ssI28
(dp4503
I0
(dp4504
ssI29
(dp4505
I0
(dp4506
ssI30
(dp4507
I0
(dp4508
ssI31
(dp4509
I0
(dp4510
ssI32
(dp4511
I0
(dp4512
ssI33
(dp4513
I0
(dp4514
ssI34
(dp4515
I0
(dp4516
ssI35
(dp4517
I0
(dp4518
ssI36
(dp4519
I0
(dp4520
ssI37
(dp4521
I0
(dp4522
ssI38
(dp4523
I0
(dp4524
ssI39
(dp4525
I0
(dp4526
ssI41
(dp4527
I0
(dp4528
ssI42
(dp4529
I0
(dp4530
ssI43
(dp4531
I0
(dp4532
ssI44
(dp4533
I0
(dp4534
ssI45
(dp4535
I0
(dp4536
ssI46
(dp4537
I0
(dp4538
ssI47
(dp4539
I0
(dp4540
ssI48
(dp4541
I0
(dp4542
ssI49
(dp4543
I0
(dp4544
sssI41
(dp4545
I0
(dp4546
I0
(dp4547
ssI1
(dp4548
I0
(dp4549
ssI2
(dp4550
I0
(dp4551
ssI3
(dp4552
I0
(dp4553
ssI4
(dp4554
I0
(dp4555
ssI5
(dp4556
I0
(dp4557
ssI6
(dp4558
I0
(dp4559
ssI7
(dp4560
I0
(dp4561
ssI8
(dp4562
I0
(dp4563
ssI9
(dp4564
I0
(dp4565
ssI10
(dp4566
I0
(dp4567
ssI11
(dp4568
I0
(dp4569
ssI12
(dp4570
I0
(dp4571
ssI13
(dp4572
I0
(dp4573
ssI14
(dp4574
I0
(dp4575
ssI15
(dp4576
I0
(dp4577
ssI16
(dp4578
I0
(dp4579
ssI17
(dp4580
I0
(dp4581
ssI18
(dp4582
I0
(dp4583
ssI19
(dp4584
I0
(dp4585
ssI20
(dp4586
I0
(dp4587
ssI21
(dp4588
I0
(dp4589
ssI22
(dp4590
I0
(dp4591
ssI23
(dp4592
I0
(dp4593
ssI24
(dp4594
I0
(dp4595
ssI25
(dp4596
I0
(dp4597
ssI26
(dp4598
I0
(dp4599
ssI27
(dp4600
I0
(dp4601
ssI28
(dp4602
I0
(dp4603
ssI29
(dp4604
I0
(dp4605
ssI30
(dp4606
I0
(dp4607
ssI31
(dp4608
I0
(dp4609
ssI32
(dp4610
I0
(dp4611
ssI33
(dp4612
I0
(dp4613
ssI34
(dp4614
I0
(dp4615
ssI35
(dp4616
I0
(dp4617
ssI36
(dp4618
I0
(dp4619
ssI37
(dp4620
I0
(dp4621
ssI38
(dp4622
I0
(dp4623
ssI39
(dp4624
I0
(dp4625
ssI40
(dp4626
I0
(dp4627
ssI42
(dp4628
I0
(dp4629
ssI43
(dp4630
I0
(dp4631
ssI44
(dp4632
I0
(dp4633
ssI45
(dp4634
I0
(dp4635
ssI46
(dp4636
I0
(dp4637
ssI47
(dp4638
I0
(dp4639
ssI48
(dp4640
I0
(dp4641
ssI49
(dp4642
I0
(dp4643
sssI42
(dp4644
I0
(dp4645
I0
(dp4646
ssI1
(dp4647
I0
(dp4648
ssI2
(dp4649
I0
(dp4650
ssI3
(dp4651
I0
(dp4652
ssI4
(dp4653
I0
(dp4654
ssI5
(dp4655
I0
(dp4656
ssI6
(dp4657
I0
(dp4658
ssI7
(dp4659
I0
(dp4660
ssI8
(dp4661
I0
(dp4662
ssI9
(dp4663
I0
(dp4664
ssI10
(dp4665
I0
(dp4666
ssI11
(dp4667
I0
(dp4668
ssI12
(dp4669
I0
(dp4670
ssI13
(dp4671
I0
(dp4672
ssI14
(dp4673
I0
(dp4674
ssI15
(dp4675
I0
(dp4676
ssI16
(dp4677
I0
(dp4678
ssI17
(dp4679
I0
(dp4680
ssI18
(dp4681
I0
(dp4682
ssI19
(dp4683
I0
(dp4684
ssI20
(dp4685
I0
(dp4686
ssI21
(dp4687
I0
(dp4688
ssI22
(dp4689
I0
(dp4690
ssI23
(dp4691
I0
(dp4692
ssI24
(dp4693
I0
(dp4694
ssI25
(dp4695
I0
(dp4696
ssI26
(dp4697
I0
(dp4698
ssI27
(dp4699
I0
(dp4700
ssI28
(dp4701
I0
(dp4702
ssI29
(dp4703
I0
(dp4704
ssI30
(dp4705
I0
(dp4706
ssI31
(dp4707
I0
(dp4708
ssI32
(dp4709
I0
(dp4710
ssI33
(dp4711
I0
(dp4712
ssI34
(dp4713
I0
(dp4714
ssI35
(dp4715
I0
(dp4716
ssI36
(dp4717
I0
(dp4718
ssI37
(dp4719
I0
(dp4720
ssI38
(dp4721
I0
(dp4722
ssI39
(dp4723
I0
(dp4724
ssI40
(dp4725
I0
(dp4726
ssI41
(dp4727
I0
(dp4728
ssI43
(dp4729
I0
(dp4730
ssI44
(dp4731
I0
(dp4732
ssI45
(dp4733
I0
(dp4734
ssI46
(dp4735
I0
(dp4736
ssI47
(dp4737
I0
(dp4738
ssI48
(dp4739
I0
(dp4740
ssI49
(dp4741
I0
(dp4742
sssI43
(dp4743
I0
(dp4744
I0
(dp4745
ssI1
(dp4746
I0
(dp4747
ssI2
(dp4748
I0
(dp4749
ssI3
(dp4750
I0
(dp4751
ssI4
(dp4752
I0
(dp4753
ssI5
(dp4754
I0
(dp4755
ssI6
(dp4756
I0
(dp4757
ssI7
(dp4758
I0
(dp4759
ssI8
(dp4760
I0
(dp4761
ssI9
(dp4762
I0
(dp4763
ssI10
(dp4764
I0
(dp4765
ssI11
(dp4766
I0
(dp4767
ssI12
(dp4768
I0
(dp4769
ssI13
(dp4770
I0
(dp4771
ssI14
(dp4772
I0
(dp4773
ssI15
(dp4774
I0
(dp4775
ssI16
(dp4776
I0
(dp4777
ssI17
(dp4778
I0
(dp4779
ssI18
(dp4780
I0
(dp4781
ssI19
(dp4782
I0
(dp4783
ssI20
(dp4784
I0
(dp4785
ssI21
(dp4786
I0
(dp4787
ssI22
(dp4788
I0
(dp4789
ssI23
(dp4790
I0
(dp4791
ssI24
(dp4792
I0
(dp4793
ssI25
(dp4794
I0
(dp4795
ssI26
(dp4796
I0
(dp4797
ssI27
(dp4798
I0
(dp4799
ssI28
(dp4800
I0
(dp4801
ssI29
(dp4802
I0
(dp4803
ssI30
(dp4804
I0
(dp4805
ssI31
(dp4806
I0
(dp4807
ssI32
(dp4808
I0
(dp4809
ssI33
(dp4810
I0
(dp4811
ssI34
(dp4812
I0
(dp4813
ssI35
(dp4814
I0
(dp4815
ssI36
(dp4816
I0
(dp4817
ssI37
(dp4818
I0
(dp4819
ssI38
(dp4820
I0
(dp4821
ssI39
(dp4822
I0
(dp4823
ssI40
(dp4824
I0
(dp4825
ssI41
(dp4826
I0
(dp4827
ssI42
(dp4828
I0
(dp4829
ssI44
(dp4830
I0
(dp4831
ssI45
(dp4832
I0
(dp4833
ssI46
(dp4834
I0
(dp4835
ssI47
(dp4836
I0
(dp4837
ssI48
(dp4838
I0
(dp4839
ssI49
(dp4840
I0
(dp4841
sssI44
(dp4842
I0
(dp4843
I0
(dp4844
ssI1
(dp4845
I0
(dp4846
ssI2
(dp4847
I0
(dp4848
ssI3
(dp4849
I0
(dp4850
ssI4
(dp4851
I0
(dp4852
ssI5
(dp4853
I0
(dp4854
ssI6
(dp4855
I0
(dp4856
ssI7
(dp4857
I0
(dp4858
ssI8
(dp4859
I0
(dp4860
ssI9
(dp4861
I0
(dp4862
ssI10
(dp4863
I0
(dp4864
ssI11
(dp4865
I0
(dp4866
ssI12
(dp4867
I0
(dp4868
ssI13
(dp4869
I0
(dp4870
ssI14
(dp4871
I0
(dp4872
ssI15
(dp4873
I0
(dp4874
ssI16
(dp4875
I0
(dp4876
ssI17
(dp4877
I0
(dp4878
ssI18
(dp4879
I0
(dp4880
ssI19
(dp4881
I0
(dp4882
ssI20
(dp4883
I0
(dp4884
ssI21
(dp4885
I0
(dp4886
ssI22
(dp4887
I0
(dp4888
ssI23
(dp4889
I0
(dp4890
ssI24
(dp4891
I0
(dp4892
ssI25
(dp4893
I0
(dp4894
ssI26
(dp4895
I0
(dp4896
ssI27
(dp4897
I0
(dp4898
ssI28
(dp4899
I0
(dp4900
ssI29
(dp4901
I0
(dp4902
ssI30
(dp4903
I0
(dp4904
ssI31
(dp4905
I0
(dp4906
ssI32
(dp4907
I0
(dp4908
ssI33
(dp4909
I0
(dp4910
ssI34
(dp4911
I0
(dp4912
ssI35
(dp4913
I0
(dp4914
ssI36
(dp4915
I0
(dp4916
ssI37
(dp4917
I0
(dp4918
ssI38
(dp4919
I0
(dp4920
ssI39
(dp4921
I0
(dp4922
ssI40
(dp4923
I0
(dp4924
ssI41
(dp4925
I0
(dp4926
ssI42
(dp4927
I0
(dp4928
ssI43
(dp4929
I0
(dp4930
ssI45
(dp4931
I0
(dp4932
ssI46
(dp4933
I0
(dp4934
ssI47
(dp4935
I0
(dp4936
ssI48
(dp4937
I0
(dp4938
ssI49
(dp4939
I0
(dp4940
sssI45
(dp4941
I0
(dp4942
I0
(dp4943
ssI1
(dp4944
I0
(dp4945
ssI2
(dp4946
I0
(dp4947
ssI3
(dp4948
I0
(dp4949
ssI4
(dp4950
I0
(dp4951
ssI5
(dp4952
I0
(dp4953
ssI6
(dp4954
I0
(dp4955
ssI7
(dp4956
I0
(dp4957
ssI8
(dp4958
I0
(dp4959
ssI9
(dp4960
I0
(dp4961
ssI10
(dp4962
I0
(dp4963
ssI11
(dp4964
I0
(dp4965
ssI12
(dp4966
I0
(dp4967
ssI13
(dp4968
I0
(dp4969
ssI14
(dp4970
I0
(dp4971
ssI15
(dp4972
I0
(dp4973
ssI16
(dp4974
I0
(dp4975
ssI17
(dp4976
I0
(dp4977
ssI18
(dp4978
I0
(dp4979
ssI19
(dp4980
I0
(dp4981
ssI20
(dp4982
I0
(dp4983
ssI21
(dp4984
I0
(dp4985
ssI22
(dp4986
I0
(dp4987
ssI23
(dp4988
I0
(dp4989
ssI24
(dp4990
I0
(dp4991
ssI25
(dp4992
I0
(dp4993
ssI26
(dp4994
I0
(dp4995
ssI27
(dp4996
I0
(dp4997
ssI28
(dp4998
I0
(dp4999
ssI29
(dp5000
I0
(dp5001
ssI30
(dp5002
I0
(dp5003
ssI31
(dp5004
I0
(dp5005
ssI32
(dp5006
I0
(dp5007
ssI33
(dp5008
I0
(dp5009
ssI34
(dp5010
I0
(dp5011
ssI35
(dp5012
I0
(dp5013
ssI36
(dp5014
I0
(dp5015
ssI37
(dp5016
I0
(dp5017
ssI38
(dp5018
I0
(dp5019
ssI39
(dp5020
I0
(dp5021
ssI40
(dp5022
I0
(dp5023
ssI41
(dp5024
I0
(dp5025
ssI42
(dp5026
I0
(dp5027
ssI43
(dp5028
I0
(dp5029
ssI44
(dp5030
I0
(dp5031
ssI46
(dp5032
I0
(dp5033
ssI47
(dp5034
I0
(dp5035
ssI48
(dp5036
I0
(dp5037
ssI49
(dp5038
I0
(dp5039
sssI46
(dp5040
I0
(dp5041
I0
(dp5042
ssI1
(dp5043
I0
(dp5044
ssI2
(dp5045
I0
(dp5046
ssI3
(dp5047
I0
(dp5048
ssI4
(dp5049
I0
(dp5050
ssI5
(dp5051
I0
(dp5052
ssI6
(dp5053
I0
(dp5054
ssI7
(dp5055
I0
(dp5056
ssI8
(dp5057
I0
(dp5058
ssI9
(dp5059
I0
(dp5060
ssI10
(dp5061
I0
(dp5062
ssI11
(dp5063
I0
(dp5064
ssI12
(dp5065
I0
(dp5066
ssI13
(dp5067
I0
(dp5068
ssI14
(dp5069
I0
(dp5070
ssI15
(dp5071
I0
(dp5072
ssI16
(dp5073
I0
(dp5074
ssI17
(dp5075
I0
(dp5076
ssI18
(dp5077
I0
(dp5078
ssI19
(dp5079
I0
(dp5080
ssI20
(dp5081
I0
(dp5082
ssI21
(dp5083
I0
(dp5084
ssI22
(dp5085
I0
(dp5086
ssI23
(dp5087
I0
(dp5088
ssI24
(dp5089
I0
(dp5090
ssI25
(dp5091
I0
(dp5092
ssI26
(dp5093
I0
(dp5094
ssI27
(dp5095
I0
(dp5096
ssI28
(dp5097
I0
(dp5098
ssI29
(dp5099
I0
(dp5100
ssI30
(dp5101
I0
(dp5102
ssI31
(dp5103
I0
(dp5104
ssI32
(dp5105
I0
(dp5106
ssI33
(dp5107
I0
(dp5108
ssI34
(dp5109
I0
(dp5110
ssI35
(dp5111
I0
(dp5112
ssI36
(dp5113
I0
(dp5114
ssI37
(dp5115
I0
(dp5116
ssI38
(dp5117
I0
(dp5118
ssI39
(dp5119
I0
(dp5120
ssI40
(dp5121
I0
(dp5122
ssI41
(dp5123
I0
(dp5124
ssI42
(dp5125
I0
(dp5126
ssI43
(dp5127
I0
(dp5128
ssI44
(dp5129
I0
(dp5130
ssI45
(dp5131
I0
(dp5132
ssI47
(dp5133
I0
(dp5134
ssI48
(dp5135
I0
(dp5136
ssI49
(dp5137
I0
(dp5138
sssI47
(dp5139
I0
(dp5140
I0
(dp5141
ssI1
(dp5142
I0
(dp5143
ssI2
(dp5144
I0
(dp5145
ssI3
(dp5146
I0
(dp5147
ssI4
(dp5148
I0
(dp5149
ssI5
(dp5150
I0
(dp5151
ssI6
(dp5152
I0
(dp5153
ssI7
(dp5154
I0
(dp5155
ssI8
(dp5156
I0
(dp5157
ssI9
(dp5158
I0
(dp5159
ssI10
(dp5160
I0
(dp5161
ssI11
(dp5162
I0
(dp5163
ssI12
(dp5164
I0
(dp5165
ssI13
(dp5166
I0
(dp5167
ssI14
(dp5168
I0
(dp5169
ssI15
(dp5170
I0
(dp5171
ssI16
(dp5172
I0
(dp5173
ssI17
(dp5174
I0
(dp5175
ssI18
(dp5176
I0
(dp5177
ssI19
(dp5178
I0
(dp5179
ssI20
(dp5180
I0
(dp5181
ssI21
(dp5182
I0
(dp5183
ssI22
(dp5184
I0
(dp5185
ssI23
(dp5186
I0
(dp5187
ssI24
(dp5188
I0
(dp5189
ssI25
(dp5190
I0
(dp5191
ssI26
(dp5192
I0
(dp5193
ssI27
(dp5194
I0
(dp5195
ssI28
(dp5196
I0
(dp5197
ssI29
(dp5198
I0
(dp5199
ssI30
(dp5200
I0
(dp5201
ssI31
(dp5202
I0
(dp5203
ssI32
(dp5204
I0
(dp5205
ssI33
(dp5206
I0
(dp5207
ssI34
(dp5208
I0
(dp5209
ssI35
(dp5210
I0
(dp5211
ssI36
(dp5212
I0
(dp5213
ssI37
(dp5214
I0
(dp5215
ssI38
(dp5216
I0
(dp5217
ssI39
(dp5218
I0
(dp5219
ssI40
(dp5220
I0
(dp5221
ssI41
(dp5222
I0
(dp5223
ssI42
(dp5224
I0
(dp5225
ssI43
(dp5226
I0
(dp5227
ssI44
(dp5228
I0
(dp5229
ssI45
(dp5230
I0
(dp5231
ssI46
(dp5232
I0
(dp5233
ssI48
(dp5234
I0
(dp5235
ssI49
(dp5236
I0
(dp5237
sssI48
(dp5238
I0
(dp5239
I0
(dp5240
ssI1
(dp5241
I0
(dp5242
ssI2
(dp5243
I0
(dp5244
ssI3
(dp5245
I0
(dp5246
ssI4
(dp5247
I0
(dp5248
ssI5
(dp5249
I0
(dp5250
ssI6
(dp5251
I0
(dp5252
ssI7
(dp5253
I0
(dp5254
ssI8
(dp5255
I0
(dp5256
ssI9
(dp5257
I0
(dp5258
ssI10
(dp5259
I0
(dp5260
ssI11
(dp5261
I0
(dp5262
ssI12
(dp5263
I0
(dp5264
ssI13
(dp5265
I0
(dp5266
ssI14
(dp5267
I0
(dp5268
ssI15
(dp5269
I0
(dp5270
ssI16
(dp5271
I0
(dp5272
ssI17
(dp5273
I0
(dp5274
ssI18
(dp5275
I0
(dp5276
ssI19
(dp5277
I0
(dp5278
ssI20
(dp5279
I0
(dp5280
ssI21
(dp5281
I0
(dp5282
ssI22
(dp5283
I0
(dp5284
ssI23
(dp5285
I0
(dp5286
ssI24
(dp5287
I0
(dp5288
ssI25
(dp5289
I0
(dp5290
ssI26
(dp5291
I0
(dp5292
ssI27
(dp5293
I0
(dp5294
ssI28
(dp5295
I0
(dp5296
ssI29
(dp5297
I0
(dp5298
ssI30
(dp5299
I0
(dp5300
ssI31
(dp5301
I0
(dp5302
ssI32
(dp5303
I0
(dp5304
ssI33
(dp5305
I0
(dp5306
ssI34
(dp5307
I0
(dp5308
ssI35
(dp5309
I0
(dp5310
ssI36
(dp5311
I0
(dp5312
ssI37
(dp5313
I0
(dp5314
ssI38
(dp5315
I0
(dp5316
ssI39
(dp5317
I0
(dp5318
ssI40
(dp5319
I0
(dp5320
ssI41
(dp5321
I0
(dp5322
ssI42
(dp5323
I0
(dp5324
ssI43
(dp5325
I0
(dp5326
ssI44
(dp5327
I0
(dp5328
ssI45
(dp5329
I0
(dp5330
ssI46
(dp5331
I0
(dp5332
ssI47
(dp5333
I0
(dp5334
ssI49
(dp5335
I0
(dp5336
sssI49
(dp5337
I0
(dp5338
I0
(dp5339
ssI1
(dp5340
I0
(dp5341
ssI2
(dp5342
I0
(dp5343
ssI3
(dp5344
I0
(dp5345
ssI4
(dp5346
I0
(dp5347
ssI5
(dp5348
I0
(dp5349
ssI6
(dp5350
I0
(dp5351
ssI7
(dp5352
I0
(dp5353
ssI8
(dp5354
I0
(dp5355
ssI9
(dp5356
I0
(dp5357
ssI10
(dp5358
I0
(dp5359
ssI11
(dp5360
I0
(dp5361
ssI12
(dp5362
I0
(dp5363
ssI13
(dp5364
I0
(dp5365
ssI14
(dp5366
I0
(dp5367
ssI15
(dp5368
I0
(dp5369
ssI16
(dp5370
I0
(dp5371
ssI17
(dp5372
I0
(dp5373
ssI18
(dp5374
I0
(dp5375
ssI19
(dp5376
I0
(dp5377
ssI20
(dp5378
I0
(dp5379
ssI21
(dp5380
I0
(dp5381
ssI22
(dp5382
I0
(dp5383
ssI23
(dp5384
I0
(dp5385
ssI24
(dp5386
I0
(dp5387
ssI25
(dp5388
I0
(dp5389
ssI26
(dp5390
I0
(dp5391
ssI27
(dp5392
I0
(dp5393
ssI28
(dp5394
I0
(dp5395
ssI29
(dp5396
I0
(dp5397
ssI30
(dp5398
I0
(dp5399
ssI31
(dp5400
I0
(dp5401
ssI32
(dp5402
I0
(dp5403
ssI33
(dp5404
I0
(dp5405
ssI34
(dp5406
I0
(dp5407
ssI35
(dp5408
I0
(dp5409
ssI36
(dp5410
I0
(dp5411
ssI37
(dp5412
I0
(dp5413
ssI38
(dp5414
I0
(dp5415
ssI39
(dp5416
I0
(dp5417
ssI40
(dp5418
I0
(dp5419
ssI41
(dp5420
I0
(dp5421
ssI42
(dp5422
I0
(dp5423
ssI43
(dp5424
I0
(dp5425
ssI44
(dp5426
I0
(dp5427
ssI45
(dp5428
I0
(dp5429
ssI46
(dp5430
I0
(dp5431
ssI47
(dp5432
I0
(dp5433
ssI48
(dp5434
I0
(dp5435
ssssg375
g485
sg376
(dp5436
I0
(dp5437
I1
g586
sI2
g685
sI3
g784
sI4
g883
sI5
g982
sI6
g1081
sI7
g1180
sI8
g1279
sI9
g1378
sI10
g1477
sI11
g1576
sI12
g1675
sI13
g1774
sI14
g1873
sI15
g1972
sI16
g2071
sI17
g2170
sI18
g2269
sI19
g2368
sI20
g2467
sI21
g2566
sI22
g2665
sI23
g2764
sI24
g2863
sI25
g2962
sI26
g3061
sI27
g3160
sI28
g3259
sI29
g3358
sI30
g3457
sI31
g3556
sI32
g3655
sI33
g3754
sI34
g3853
sI35
g3952
sI36
g4051
sI37
g4150
sI38
g4249
sI39
g4348
sI40
g4447
sI41
g4546
sI42
g4645
sI43
g4744
sI44
g4843
sI45
g4942
sI46
g5041
sI47
g5140
sI48
g5239
sI49
g5338
ssI1
(dp5438
I0
g487
sI2
g687
sI3
g786
sI4
g885
sI5
g984
sI6
g1083
sI7
g1182
sI8
g1281
sI9
g1380
sI10
g1479
sI11
g1578
sI12
g1677
sI13
g1776
sI14
g1875
sI15
g1974
sI16
g2073
sI17
g2172
sI18
g2271
sI19
g2370
sI20
g2469
sI21
g2568
sI22
g2667
sI23
g2766
sI24
g2865
sI25
g2964
sI26
g3063
sI27
g3162
sI28
g3261
sI29
g3360
sI30
g3459
sI31
g3558
sI32
g3657
sI33
g3756
sI34
g3855
sI35
g3954
sI36
g4053
sI37
g4152
sI38
g4251
sI39
g4350
sI40
g4449
sI41
g4548
sI42
g4647
sI43
g4746
sI44
g4845
sI45
g4944
sI46
g5043
sI47
g5142
sI48
g5241
sI49
g5340
ssI2
(dp5439
I0
g489
sI1
g588
sI3
g788
sI4
g887
sI5
g986
sI6
g1085
sI7
g1184
sI8
g1283
sI9
g1382
sI10
g1481
sI11
g1580
sI12
g1679
sI13
g1778
sI14
g1877
sI15
g1976
sI16
g2075
sI17
g2174
sI18
g2273
sI19
g2372
sI20
g2471
sI21
g2570
sI22
g2669
sI23
g2768
sI24
g2867
sI25
g2966
sI26
g3065
sI27
g3164
sI28
g3263
sI29
g3362
sI30
g3461
sI31
g3560
sI32
g3659
sI33
g3758
sI34
g3857
sI35
g3956
sI36
g4055
sI37
g4154
sI38
g4253
sI39
g4352
sI40
g4451
sI41
g4550
sI42
g4649
sI43
g4748
sI44
g4847
sI45
g4946
sI46
g5045
sI47
g5144
sI48
g5243
sI49
g5342
ssI3
(dp5440
I0
g491
sI1
g590
sI2
g689
sI4
g889
sI5
g988
sI6
g1087
sI7
g1186
sI8
g1285
sI9
g1384
sI10
g1483
sI11
g1582
sI12
g1681
sI13
g1780
sI14
g1879
sI15
g1978
sI16
g2077
sI17
g2176
sI18
g2275
sI19
g2374
sI20
g2473
sI21
g2572
sI22
g2671
sI23
g2770
sI24
g2869
sI25
g2968
sI26
g3067
sI27
g3166
sI28
g3265
sI29
g3364
sI30
g3463
sI31
g3562
sI32
g3661
sI33
g3760
sI34
g3859
sI35
g3958
sI36
g4057
sI37
g4156
sI38
g4255
sI39
g4354
sI40
g4453
sI41
g4552
sI42
g4651
sI43
g4750
sI44
g4849
sI45
g4948
sI46
g5047
sI47
g5146
sI48
g5245
sI49
g5344
ssI4
(dp5441
I0
g493
sI1
g592
sI2
g691
sI3
g790
sI5
g990
sI6
g1089
sI7
g1188
sI8
g1287
sI9
g1386
sI10
g1485
sI11
g1584
sI12
g1683
sI13
g1782
sI14
g1881
sI15
g1980
sI16
g2079
sI17
g2178
sI18
g2277
sI19
g2376
sI20
g2475
sI21
g2574
sI22
g2673
sI23
g2772
sI24
g2871
sI25
g2970
sI26
g3069
sI27
g3168
sI28
g3267
sI29
g3366
sI30
g3465
sI31
g3564
sI32
g3663
sI33
g3762
sI34
g3861
sI35
g3960
sI36
g4059
sI37
g4158
sI38
g4257
sI39
g4356
sI40
g4455
sI41
g4554
sI42
g4653
sI43
g4752
sI44
g4851
sI45
g4950
sI46
g5049
sI47
g5148
sI48
g5247
sI49
g5346
ssI5
(dp5442
I0
g495
sI1
g594
sI2
g693
sI3
g792
sI4
g891
sI6
g1091
sI7
g1190
sI8
g1289
sI9
g1388
sI10
g1487
sI11
g1586
sI12
g1685
sI13
g1784
sI14
g1883
sI15
g1982
sI16
g2081
sI17
g2180
sI18
g2279
sI19
g2378
sI20
g2477
sI21
g2576
sI22
g2675
sI23
g2774
sI24
g2873
sI25
g2972
sI26
g3071
sI27
g3170
sI28
g3269
sI29
g3368
sI30
g3467
sI31
g3566
sI32
g3665
sI33
g3764
sI34
g3863
sI35
g3962
sI36
g4061
sI37
g4160
sI38
g4259
sI39
g4358
sI40
g4457
sI41
g4556
sI42
g4655
sI43
g4754
sI44
g4853
sI45
g4952
sI46
g5051
sI47
g5150
sI48
g5249
sI49
g5348
ssI6
(dp5443
I0
g497
sI1
g596
sI2
g695
sI3
g794
sI4
g893
sI5
g992
sI7
g1192
sI8
g1291
sI9
g1390
sI10
g1489
sI11
g1588
sI12
g1687
sI13
g1786
sI14
g1885
sI15
g1984
sI16
g2083
sI17
g2182
sI18
g2281
sI19
g2380
sI20
g2479
sI21
g2578
sI22
g2677
sI23
g2776
sI24
g2875
sI25
g2974
sI26
g3073
sI27
g3172
sI28
g3271
sI29
g3370
sI30
g3469
sI31
g3568
sI32
g3667
sI33
g3766
sI34
g3865
sI35
g3964
sI36
g4063
sI37
g4162
sI38
g4261
sI39
g4360
sI40
g4459
sI41
g4558
sI42
g4657
sI43
g4756
sI44
g4855
sI45
g4954
sI46
g5053
sI47
g5152
sI48
g5251
sI49
g5350
ssI7
(dp5444
I0
g499
sI1
g598
sI2
g697
sI3
g796
sI4
g895
sI5
g994
sI6
g1093
sI8
g1293
sI9
g1392
sI10
g1491
sI11
g1590
sI12
g1689
sI13
g1788
sI14
g1887
sI15
g1986
sI16
g2085
sI17
g2184
sI18
g2283
sI19
g2382
sI20
g2481
sI21
g2580
sI22
g2679
sI23
g2778
sI24
g2877
sI25
g2976
sI26
g3075
sI27
g3174
sI28
g3273
sI29
g3372
sI30
g3471
sI31
g3570
sI32
g3669
sI33
g3768
sI34
g3867
sI35
g3966
sI36
g4065
sI37
g4164
sI38
g4263
sI39
g4362
sI40
g4461
sI41
g4560
sI42
g4659
sI43
g4758
sI44
g4857
sI45
g4956
sI46
g5055
sI47
g5154
sI48
g5253
sI49
g5352
ssI8
(dp5445
I0
g501
sI1
g600
sI2
g699
sI3
g798
sI4
g897
sI5
g996
sI6
g1095
sI7
g1194
sI9
g1394
sI10
g1493
sI11
g1592
sI12
g1691
sI13
g1790
sI14
g1889
sI15
g1988
sI16
g2087
sI17
g2186
sI18
g2285
sI19
g2384
sI20
g2483
sI21
g2582
sI22
g2681
sI23
g2780
sI24
g2879
sI25
g2978
sI26
g3077
sI27
g3176
sI28
g3275
sI29
g3374
sI30
g3473
sI31
g3572
sI32
g3671
sI33
g3770
sI34
g3869
sI35
g3968
sI36
g4067
sI37
g4166
sI38
g4265
sI39
g4364
sI40
g4463
sI41
g4562
sI42
g4661
sI43
g4760
sI44
g4859
sI45
g4958
sI46
g5057
sI47
g5156
sI48
g5255
sI49
g5354
ssI9
(dp5446
I0
g503
sI1
g602
sI2
g701
sI3
g800
sI4
g899
sI5
g998
sI6
g1097
sI7
g1196
sI8
g1295
sI10
g1495
sI11
g1594
sI12
g1693
sI13
g1792
sI14
g1891
sI15
g1990
sI16
g2089
sI17
g2188
sI18
g2287
sI19
g2386
sI20
g2485
sI21
g2584
sI22
g2683
sI23
g2782
sI24
g2881
sI25
g2980
sI26
g3079
sI27
g3178
sI28
g3277
sI29
g3376
sI30
g3475
sI31
g3574
sI32
g3673
sI33
g3772
sI34
g3871
sI35
g3970
sI36
g4069
sI37
g4168
sI38
g4267
sI39
g4366
sI40
g4465
sI41
g4564
sI42
g4663
sI43
g4762
sI44
g4861
sI45
g4960
sI46
g5059
sI47
g5158
sI48
g5257
sI49
g5356
ssI10
(dp5447
I0
g505
sI1
g604
sI2
g703
sI3
g802
sI4
g901
sI5
g1000
sI6
g1099
sI7
g1198
sI8
g1297
sI9
g1396
sI11
g1596
sI12
g1695
sI13
g1794
sI14
g1893
sI15
g1992
sI16
g2091
sI17
g2190
sI18
g2289
sI19
g2388
sI20
g2487
sI21
g2586
sI22
g2685
sI23
g2784
sI24
g2883
sI25
g2982
sI26
g3081
sI27
g3180
sI28
g3279
sI29
g3378
sI30
g3477
sI31
g3576
sI32
g3675
sI33
g3774
sI34
g3873
sI35
g3972
sI36
g4071
sI37
g4170
sI38
g4269
sI39
g4368
sI40
g4467
sI41
g4566
sI42
g4665
sI43
g4764
sI44
g4863
sI45
g4962
sI46
g5061
sI47
g5160
sI48
g5259
sI49
g5358
ssI11
(dp5448
I0
g507
sI1
g606
sI2
g705
sI3
g804
sI4
g903
sI5
g1002
sI6
g1101
sI7
g1200
sI8
g1299
sI9
g1398
sI10
g1497
sI12
g1697
sI13
g1796
sI14
g1895
sI15
g1994
sI16
g2093
sI17
g2192
sI18
g2291
sI19
g2390
sI20
g2489
sI21
g2588
sI22
g2687
sI23
g2786
sI24
g2885
sI25
g2984
sI26
g3083
sI27
g3182
sI28
g3281
sI29
g3380
sI30
g3479
sI31
g3578
sI32
g3677
sI33
g3776
sI34
g3875
sI35
g3974
sI36
g4073
sI37
g4172
sI38
g4271
sI39
g4370
sI40
g4469
sI41
g4568
sI42
g4667
sI43
g4766
sI44
g4865
sI45
g4964
sI46
g5063
sI47
g5162
sI48
g5261
sI49
g5360
ssI12
(dp5449
I0
g509
sI1
g608
sI2
g707
sI3
g806
sI4
g905
sI5
g1004
sI6
g1103
sI7
g1202
sI8
g1301
sI9
g1400
sI10
g1499
sI11
g1598
sI13
g1798
sI14
g1897
sI15
g1996
sI16
g2095
sI17
g2194
sI18
g2293
sI19
g2392
sI20
g2491
sI21
g2590
sI22
g2689
sI23
g2788
sI24
g2887
sI25
g2986
sI26
g3085
sI27
g3184
sI28
g3283
sI29
g3382
sI30
g3481
sI31
g3580
sI32
g3679
sI33
g3778
sI34
g3877
sI35
g3976
sI36
g4075
sI37
g4174
sI38
g4273
sI39
g4372
sI40
g4471
sI41
g4570
sI42
g4669
sI43
g4768
sI44
g4867
sI45
g4966
sI46
g5065
sI47
g5164
sI48
g5263
sI49
g5362
ssI13
(dp5450
I0
g511
sI1
g610
sI2
g709
sI3
g808
sI4
g907
sI5
g1006
sI6
g1105
sI7
g1204
sI8
g1303
sI9
g1402
sI10
g1501
sI11
g1600
sI12
g1699
sI14
g1899
sI15
g1998
sI16
g2097
sI17
g2196
sI18
g2295
sI19
g2394
sI20
g2493
sI21
g2592
sI22
g2691
sI23
g2790
sI24
g2889
sI25
g2988
sI26
g3087
sI27
g3186
sI28
g3285
sI29
g3384
sI30
g3483
sI31
g3582
sI32
g3681
sI33
g3780
sI34
g3879
sI35
g3978
sI36
g4077
sI37
g4176
sI38
g4275
sI39
g4374
sI40
g4473
sI41
g4572
sI42
g4671
sI43
g4770
sI44
g4869
sI45
g4968
sI46
g5067
sI47
g5166
sI48
g5265
sI49
g5364
ssI14
(dp5451
I0
g513
sI1
g612
sI2
g711
sI3
g810
sI4
g909
sI5
g1008
sI6
g1107
sI7
g1206
sI8
g1305
sI9
g1404
sI10
g1503
sI11
g1602
sI12
g1701
sI13
g1800
sI15
g2000
sI16
g2099
sI17
g2198
sI18
g2297
sI19
g2396
sI20
g2495
sI21
g2594
sI22
g2693
sI23
g2792
sI24
g2891
sI25
g2990
sI26
g3089
sI27
g3188
sI28
g3287
sI29
g3386
sI30
g3485
sI31
g3584
sI32
g3683
sI33
g3782
sI34
g3881
sI35
g3980
sI36
g4079
sI37
g4178
sI38
g4277
sI39
g4376
sI40
g4475
sI41
g4574
sI42
g4673
sI43
g4772
sI44
g4871
sI45
g4970
sI46
g5069
sI47
g5168
sI48
g5267
sI49
g5366
ssI15
(dp5452
I0
g515
sI1
g614
sI2
g713
sI3
g812
sI4
g911
sI5
g1010
sI6
g1109
sI7
g1208
sI8
g1307
sI9
g1406
sI10
g1505
sI11
g1604
sI12
g1703
sI13
g1802
sI14
g1901
sI16
g2101
sI17
g2200
sI18
g2299
sI19
g2398
sI20
g2497
sI21
g2596
sI22
g2695
sI23
g2794
sI24
g2893
sI25
g2992
sI26
g3091
sI27
g3190
sI28
g3289
sI29
g3388
sI30
g3487
sI31
g3586
sI32
g3685
sI33
g3784
sI34
g3883
sI35
g3982
sI36
g4081
sI37
g4180
sI38
g4279
sI39
g4378
sI40
g4477
sI41
g4576
sI42
g4675
sI43
g4774
sI44
g4873
sI45
g4972
sI46
g5071
sI47
g5170
sI48
g5269
sI49
g5368
ssI16
(dp5453
I0
g517
sI1
g616
sI2
g715
sI3
g814
sI4
g913
sI5
g1012
sI6
g1111
sI7
g1210
sI8
g1309
sI9
g1408
sI10
g1507
sI11
g1606
sI12
g1705
sI13
g1804
sI14
g1903
sI15
g2002
sI17
g2202
sI18
g2301
sI19
g2400
sI20
g2499
sI21
g2598
sI22
g2697
sI23
g2796
sI24
g2895
sI25
g2994
sI26
g3093
sI27
g3192
sI28
g3291
sI29
g3390
sI30
g3489
sI31
g3588
sI32
g3687
sI33
g3786
sI34
g3885
sI35
g3984
sI36
g4083
sI37
g4182
sI38
g4281
sI39
g4380
sI40
g4479
sI41
g4578
sI42
g4677
sI43
g4776
sI44
g4875
sI45
g4974
sI46
g5073
sI47
g5172
sI48
g5271
sI49
g5370
ssI17
(dp5454
I0
g519
sI1
g618
sI2
g717
sI3
g816
sI4
g915
sI5
g1014
sI6
g1113
sI7
g1212
sI8
g1311
sI9
g1410
sI10
g1509
sI11
g1608
sI12
g1707
sI13
g1806
sI14
g1905
sI15
g2004
sI16
g2103
sI18
g2303
sI19
g2402
sI20
g2501
sI21
g2600
sI22
g2699
sI23
g2798
sI24
g2897
sI25
g2996
sI26
g3095
sI27
g3194
sI28
g3293
sI29
g3392
sI30
g3491
sI31
g3590
sI32
g3689
sI33
g3788
sI34
g3887
sI35
g3986
sI36
g4085
sI37
g4184
sI38
g4283
sI39
g4382
sI40
g4481
sI41
g4580
sI42
g4679
sI43
g4778
sI44
g4877
sI45
g4976
sI46
g5075
sI47
g5174
sI48
g5273
sI49
g5372
ssI18
(dp5455
I0
g521
sI1
g620
sI2
g719
sI3
g818
sI4
g917
sI5
g1016
sI6
g1115
sI7
g1214
sI8
g1313
sI9
g1412
sI10
g1511
sI11
g1610
sI12
g1709
sI13
g1808
sI14
g1907
sI15
g2006
sI16
g2105
sI17
g2204
sI19
g2404
sI20
g2503
sI21
g2602
sI22
g2701
sI23
g2800
sI24
g2899
sI25
g2998
sI26
g3097
sI27
g3196
sI28
g3295
sI29
g3394
sI30
g3493
sI31
g3592
sI32
g3691
sI33
g3790
sI34
g3889
sI35
g3988
sI36
g4087
sI37
g4186
sI38
g4285
sI39
g4384
sI40
g4483
sI41
g4582
sI42
g4681
sI43
g4780
sI44
g4879
sI45
g4978
sI46
g5077
sI47
g5176
sI48
g5275
sI49
g5374
ssI19
(dp5456
I0
g523
sI1
g622
sI2
g721
sI3
g820
sI4
g919
sI5
g1018
sI6
g1117
sI7
g1216
sI8
g1315
sI9
g1414
sI10
g1513
sI11
g1612
sI12
g1711
sI13
g1810
sI14
g1909
sI15
g2008
sI16
g2107
sI17
g2206
sI18
g2305
sI20
g2505
sI21
g2604
sI22
g2703
sI23
g2802
sI24
g2901
sI25
g3000
sI26
g3099
sI27
g3198
sI28
g3297
sI29
g3396
sI30
g3495
sI31
g3594
sI32
g3693
sI33
g3792
sI34
g3891
sI35
g3990
sI36
g4089
sI37
g4188
sI38
g4287
sI39
g4386
sI40
g4485
sI41
g4584
sI42
g4683
sI43
g4782
sI44
g4881
sI45
g4980
sI46
g5079
sI47
g5178
sI48
g5277
sI49
g5376
ssI20
(dp5457
I0
g525
sI1
g624
sI2
g723
sI3
g822
sI4
g921
sI5
g1020
sI6
g1119
sI7
g1218
sI8
g1317
sI9
g1416
sI10
g1515
sI11
g1614
sI12
g1713
sI13
g1812
sI14
g1911
sI15
g2010
sI16
g2109
sI17
g2208
sI18
g2307
sI19
g2406
sI21
g2606
sI22
g2705
sI23
g2804
sI24
g2903
sI25
g3002
sI26
g3101
sI27
g3200
sI28
g3299
sI29
g3398
sI30
g3497
sI31
g3596
sI32
g3695
sI33
g3794
sI34
g3893
sI35
g3992
sI36
g4091
sI37
g4190
sI38
g4289
sI39
g4388
sI40
g4487
sI41
g4586
sI42
g4685
sI43
g4784
sI44
g4883
sI45
g4982
sI46
g5081
sI47
g5180
sI48
g5279
sI49
g5378
ssI21
(dp5458
I0
g527
sI1
g626
sI2
g725
sI3
g824
sI4
g923
sI5
g1022
sI6
g1121
sI7
g1220
sI8
g1319
sI9
g1418
sI10
g1517
sI11
g1616
sI12
g1715
sI13
g1814
sI14
g1913
sI15
g2012
sI16
g2111
sI17
g2210
sI18
g2309
sI19
g2408
sI20
g2507
sI22
g2707
sI23
g2806
sI24
g2905
sI25
g3004
sI26
g3103
sI27
g3202
sI28
g3301
sI29
g3400
sI30
g3499
sI31
g3598
sI32
g3697
sI33
g3796
sI34
g3895
sI35
g3994
sI36
g4093
sI37
g4192
sI38
g4291
sI39
g4390
sI40
g4489
sI41
g4588
sI42
g4687
sI43
g4786
sI44
g4885
sI45
g4984
sI46
g5083
sI47
g5182
sI48
g5281
sI49
g5380
ssI22
(dp5459
I0
g529
sI1
g628
sI2
g727
sI3
g826
sI4
g925
sI5
g1024
sI6
g1123
sI7
g1222
sI8
g1321
sI9
g1420
sI10
g1519
sI11
g1618
sI12
g1717
sI13
g1816
sI14
g1915
sI15
g2014
sI16
g2113
sI17
g2212
sI18
g2311
sI19
g2410
sI20
g2509
sI21
g2608
sI23
g2808
sI24
g2907
sI25
g3006
sI26
g3105
sI27
g3204
sI28
g3303
sI29
g3402
sI30
g3501
sI31
g3600
sI32
g3699
sI33
g3798
sI34
g3897
sI35
g3996
sI36
g4095
sI37
g4194
sI38
g4293
sI39
g4392
sI40
g4491
sI41
g4590
sI42
g4689
sI43
g4788
sI44
g4887
sI45
g4986
sI46
g5085
sI47
g5184
sI48
g5283
sI49
g5382
ssI23
(dp5460
I0
g531
sI1
g630
sI2
g729
sI3
g828
sI4
g927
sI5
g1026
sI6
g1125
sI7
g1224
sI8
g1323
sI9
g1422
sI10
g1521
sI11
g1620
sI12
g1719
sI13
g1818
sI14
g1917
sI15
g2016
sI16
g2115
sI17
g2214
sI18
g2313
sI19
g2412
sI20
g2511
sI21
g2610
sI22
g2709
sI24
g2909
sI25
g3008
sI26
g3107
sI27
g3206
sI28
g3305
sI29
g3404
sI30
g3503
sI31
g3602
sI32
g3701
sI33
g3800
sI34
g3899
sI35
g3998
sI36
g4097
sI37
g4196
sI38
g4295
sI39
g4394
sI40
g4493
sI41
g4592
sI42
g4691
sI43
g4790
sI44
g4889
sI45
g4988
sI46
g5087
sI47
g5186
sI48
g5285
sI49
g5384
ssI24
(dp5461
I0
g533
sI1
g632
sI2
g731
sI3
g830
sI4
g929
sI5
g1028
sI6
g1127
sI7
g1226
sI8
g1325
sI9
g1424
sI10
g1523
sI11
g1622
sI12
g1721
sI13
g1820
sI14
g1919
sI15
g2018
sI16
g2117
sI17
g2216
sI18
g2315
sI19
g2414
sI20
g2513
sI21
g2612
sI22
g2711
sI23
g2810
sI25
g3010
sI26
g3109
sI27
g3208
sI28
g3307
sI29
g3406
sI30
g3505
sI31
g3604
sI32
g3703
sI33
g3802
sI34
g3901
sI35
g4000
sI36
g4099
sI37
g4198
sI38
g4297
sI39
g4396
sI40
g4495
sI41
g4594
sI42
g4693
sI43
g4792
sI44
g4891
sI45
g4990
sI46
g5089
sI47
g5188
sI48
g5287
sI49
g5386
ssI25
(dp5462
I0
g535
sI1
g634
sI2
g733
sI3
g832
sI4
g931
sI5
g1030
sI6
g1129
sI7
g1228
sI8
g1327
sI9
g1426
sI10
g1525
sI11
g1624
sI12
g1723
sI13
g1822
sI14
g1921
sI15
g2020
sI16
g2119
sI17
g2218
sI18
g2317
sI19
g2416
sI20
g2515
sI21
g2614
sI22
g2713
sI23
g2812
sI24
g2911
sI26
g3111
sI27
g3210
sI28
g3309
sI29
g3408
sI30
g3507
sI31
g3606
sI32
g3705
sI33
g3804
sI34
g3903
sI35
g4002
sI36
g4101
sI37
g4200
sI38
g4299
sI39
g4398
sI40
g4497
sI41
g4596
sI42
g4695
sI43
g4794
sI44
g4893
sI45
g4992
sI46
g5091
sI47
g5190
sI48
g5289
sI49
g5388
ssI26
(dp5463
I0
g537
sI1
g636
sI2
g735
sI3
g834
sI4
g933
sI5
g1032
sI6
g1131
sI7
g1230
sI8
g1329
sI9
g1428
sI10
g1527
sI11
g1626
sI12
g1725
sI13
g1824
sI14
g1923
sI15
g2022
sI16
g2121
sI17
g2220
sI18
g2319
sI19
g2418
sI20
g2517
sI21
g2616
sI22
g2715
sI23
g2814
sI24
g2913
sI25
g3012
sI27
g3212
sI28
g3311
sI29
g3410
sI30
g3509
sI31
g3608
sI32
g3707
sI33
g3806
sI34
g3905
sI35
g4004
sI36
g4103
sI37
g4202
sI38
g4301
sI39
g4400
sI40
g4499
sI41
g4598
sI42
g4697
sI43
g4796
sI44
g4895
sI45
g4994
sI46
g5093
sI47
g5192
sI48
g5291
sI49
g5390
ssI27
(dp5464
I0
g539
sI1
g638
sI2
g737
sI3
g836
sI4
g935
sI5
g1034
sI6
g1133
sI7
g1232
sI8
g1331
sI9
g1430
sI10
g1529
sI11
g1628
sI12
g1727
sI13
g1826
sI14
g1925
sI15
g2024
sI16
g2123
sI17
g2222
sI18
g2321
sI19
g2420
sI20
g2519
sI21
g2618
sI22
g2717
sI23
g2816
sI24
g2915
sI25
g3014
sI26
g3113
sI28
g3313
sI29
g3412
sI30
g3511
sI31
g3610
sI32
g3709
sI33
g3808
sI34
g3907
sI35
g4006
sI36
g4105
sI37
g4204
sI38
g4303
sI39
g4402
sI40
g4501
sI41
g4600
sI42
g4699
sI43
g4798
sI44
g4897
sI45
g4996
sI46
g5095
sI47
g5194
sI48
g5293
sI49
g5392
ssI28
(dp5465
I0
g541
sI1
g640
sI2
g739
sI3
g838
sI4
g937
sI5
g1036
sI6
g1135
sI7
g1234
sI8
g1333
sI9
g1432
sI10
g1531
sI11
g1630
sI12
g1729
sI13
g1828
sI14
g1927
sI15
g2026
sI16
g2125
sI17
g2224
sI18
g2323
sI19
g2422
sI20
g2521
sI21
g2620
sI22
g2719
sI23
g2818
sI24
g2917
sI25
g3016
sI26
g3115
sI27
g3214
sI29
g3414
sI30
g3513
sI31
g3612
sI32
g3711
sI33
g3810
sI34
g3909
sI35
g4008
sI36
g4107
sI37
g4206
sI38
g4305
sI39
g4404
sI40
g4503
sI41
g4602
sI42
g4701
sI43
g4800
sI44
g4899
sI45
g4998
sI46
g5097
sI47
g5196
sI48
g5295
sI49
g5394
ssI29
(dp5466
I0
g543
sI1
g642
sI2
g741
sI3
g840
sI4
g939
sI5
g1038
sI6
g1137
sI7
g1236
sI8
g1335
sI9
g1434
sI10
g1533
sI11
g1632
sI12
g1731
sI13
g1830
sI14
g1929
sI15
g2028
sI16
g2127
sI17
g2226
sI18
g2325
sI19
g2424
sI20
g2523
sI21
g2622
sI22
g2721
sI23
g2820
sI24
g2919
sI25
g3018
sI26
g3117
sI27
g3216
sI28
g3315
sI30
g3515
sI31
g3614
sI32
g3713
sI33
g3812
sI34
g3911
sI35
g4010
sI36
g4109
sI37
g4208
sI38
g4307
sI39
g4406
sI40
g4505
sI41
g4604
sI42
g4703
sI43
g4802
sI44
g4901
sI45
g5000
sI46
g5099
sI47
g5198
sI48
g5297
sI49
g5396
ssI30
(dp5467
I0
g545
sI1
g644
sI2
g743
sI3
g842
sI4
g941
sI5
g1040
sI6
g1139
sI7
g1238
sI8
g1337
sI9
g1436
sI10
g1535
sI11
g1634
sI12
g1733
sI13
g1832
sI14
g1931
sI15
g2030
sI16
g2129
sI17
g2228
sI18
g2327
sI19
g2426
sI20
g2525
sI21
g2624
sI22
g2723
sI23
g2822
sI24
g2921
sI25
g3020
sI26
g3119
sI27
g3218
sI28
g3317
sI29
g3416
sI31
g3616
sI32
g3715
sI33
g3814
sI34
g3913
sI35
g4012
sI36
g4111
sI37
g4210
sI38
g4309
sI39
g4408
sI40
g4507
sI41
g4606
sI42
g4705
sI43
g4804
sI44
g4903
sI45
g5002
sI46
g5101
sI47
g5200
sI48
g5299
sI49
g5398
ssI31
(dp5468
I0
g547
sI1
g646
sI2
g745
sI3
g844
sI4
g943
sI5
g1042
sI6
g1141
sI7
g1240
sI8
g1339
sI9
g1438
sI10
g1537
sI11
g1636
sI12
g1735
sI13
g1834
sI14
g1933
sI15
g2032
sI16
g2131
sI17
g2230
sI18
g2329
sI19
g2428
sI20
g2527
sI21
g2626
sI22
g2725
sI23
g2824
sI24
g2923
sI25
g3022
sI26
g3121
sI27
g3220
sI28
g3319
sI29
g3418
sI30
g3517
sI32
g3717
sI33
g3816
sI34
g3915
sI35
g4014
sI36
g4113
sI37
g4212
sI38
g4311
sI39
g4410
sI40
g4509
sI41
g4608
sI42
g4707
sI43
g4806
sI44
g4905
sI45
g5004
sI46
g5103
sI47
g5202
sI48
g5301
sI49
g5400
ssI32
(dp5469
I0
g549
sI1
g648
sI2
g747
sI3
g846
sI4
g945
sI5
g1044
sI6
g1143
sI7
g1242
sI8
g1341
sI9
g1440
sI10
g1539
sI11
g1638
sI12
g1737
sI13
g1836
sI14
g1935
sI15
g2034
sI16
g2133
sI17
g2232
sI18
g2331
sI19
g2430
sI20
g2529
sI21
g2628
sI22
g2727
sI23
g2826
sI24
g2925
sI25
g3024
sI26
g3123
sI27
g3222
sI28
g3321
sI29
g3420
sI30
g3519
sI31
g3618
sI33
g3818
sI34
g3917
sI35
g4016
sI36
g4115
sI37
g4214
sI38
g4313
sI39
g4412
sI40
g4511
sI41
g4610
sI42
g4709
sI43
g4808
sI44
g4907
sI45
g5006
sI46
g5105
sI47
g5204
sI48
g5303
sI49
g5402
ssI33
(dp5470
I0
g551
sI1
g650
sI2
g749
sI3
g848
sI4
g947
sI5
g1046
sI6
g1145
sI7
g1244
sI8
g1343
sI9
g1442
sI10
g1541
sI11
g1640
sI12
g1739
sI13
g1838
sI14
g1937
sI15
g2036
sI16
g2135
sI17
g2234
sI18
g2333
sI19
g2432
sI20
g2531
sI21
g2630
sI22
g2729
sI23
g2828
sI24
g2927
sI25
g3026
sI26
g3125
sI27
g3224
sI28
g3323
sI29
g3422
sI30
g3521
sI31
g3620
sI32
g3719
sI34
g3919
sI35
g4018
sI36
g4117
sI37
g4216
sI38
g4315
sI39
g4414
sI40
g4513
sI41
g4612
sI42
g4711
sI43
g4810
sI44
g4909
sI45
g5008
sI46
g5107
sI47
g5206
sI48
g5305
sI49
g5404
ssI34
(dp5471
I0
g553
sI1
g652
sI2
g751
sI3
g850
sI4
g949
sI5
g1048
sI6
g1147
sI7
g1246
sI8
g1345
sI9
g1444
sI10
g1543
sI11
g1642
sI12
g1741
sI13
g1840
sI14
g1939
sI15
g2038
sI16
g2137
sI17
g2236
sI18
g2335
sI19
g2434
sI20
g2533
sI21
g2632
sI22
g2731
sI23
g2830
sI24
g2929
sI25
g3028
sI26
g3127
sI27
g3226
sI28
g3325
sI29
g3424
sI30
g3523
sI31
g3622
sI32
g3721
sI33
g3820
sI35
g4020
sI36
g4119
sI37
g4218
sI38
g4317
sI39
g4416
sI40
g4515
sI41
g4614
sI42
g4713
sI43
g4812
sI44
g4911
sI45
g5010
sI46
g5109
sI47
g5208
sI48
g5307
sI49
g5406
ssI35
(dp5472
I0
g555
sI1
g654
sI2
g753
sI3
g852
sI4
g951
sI5
g1050
sI6
g1149
sI7
g1248
sI8
g1347
sI9
g1446
sI10
g1545
sI11
g1644
sI12
g1743
sI13
g1842
sI14
g1941
sI15
g2040
sI16
g2139
sI17
g2238
sI18
g2337
sI19
g2436
sI20
g2535
sI21
g2634
sI22
g2733
sI23
g2832
sI24
g2931
sI25
g3030
sI26
g3129
sI27
g3228
sI28
g3327
sI29
g3426
sI30
g3525
sI31
g3624
sI32
g3723
sI33
g3822
sI34
g3921
sI36
g4121
sI37
g4220
sI38
g4319
sI39
g4418
sI40
g4517
sI41
g4616
sI42
g4715
sI43
g4814
sI44
g4913
sI45
g5012
sI46
g5111
sI47
g5210
sI48
g5309
sI49
g5408
ssI36
(dp5473
I0
g557
sI1
g656
sI2
g755
sI3
g854
sI4
g953
sI5
g1052
sI6
g1151
sI7
g1250
sI8
g1349
sI9
g1448
sI10
g1547
sI11
g1646
sI12
g1745
sI13
g1844
sI14
g1943
sI15
g2042
sI16
g2141
sI17
g2240
sI18
g2339
sI19
g2438
sI20
g2537
sI21
g2636
sI22
g2735
sI23
g2834
sI24
g2933
sI25
g3032
sI26
g3131
sI27
g3230
sI28
g3329
sI29
g3428
sI30
g3527
sI31
g3626
sI32
g3725
sI33
g3824
sI34
g3923
sI35
g4022
sI37
g4222
sI38
g4321
sI39
g4420
sI40
g4519
sI41
g4618
sI42
g4717
sI43
g4816
sI44
g4915
sI45
g5014
sI46
g5113
sI47
g5212
sI48
g5311
sI49
g5410
ssI37
(dp5474
I0
g559
sI1
g658
sI2
g757
sI3
g856
sI4
g955
sI5
g1054
sI6
g1153
sI7
g1252
sI8
g1351
sI9
g1450
sI10
g1549
sI11
g1648
sI12
g1747
sI13
g1846
sI14
g1945
sI15
g2044
sI16
g2143
sI17
g2242
sI18
g2341
sI19
g2440
sI20
g2539
sI21
g2638
sI22
g2737
sI23
g2836
sI24
g2935
sI25
g3034
sI26
g3133
sI27
g3232
sI28
g3331
sI29
g3430
sI30
g3529
sI31
g3628
sI32
g3727
sI33
g3826
sI34
g3925
sI35
g4024
sI36
g4123
sI38
g4323
sI39
g4422
sI40
g4521
sI41
g4620
sI42
g4719
sI43
g4818
sI44
g4917
sI45
g5016
sI46
g5115
sI47
g5214
sI48
g5313
sI49
g5412
ssI38
(dp5475
I0
g561
sI1
g660
sI2
g759
sI3
g858
sI4
g957
sI5
g1056
sI6
g1155
sI7
g1254
sI8
g1353
sI9
g1452
sI10
g1551
sI11
g1650
sI12
g1749
sI13
g1848
sI14
g1947
sI15
g2046
sI16
g2145
sI17
g2244
sI18
g2343
sI19
g2442
sI20
g2541
sI21
g2640
sI22
g2739
sI23
g2838
sI24
g2937
sI25
g3036
sI26
g3135
sI27
g3234
sI28
g3333
sI29
g3432
sI30
g3531
sI31
g3630
sI32
g3729
sI33
g3828
sI34
g3927
sI35
g4026
sI36
g4125
sI37
g4224
sI39
g4424
sI40
g4523
sI41
g4622
sI42
g4721
sI43
g4820
sI44
g4919
sI45
g5018
sI46
g5117
sI47
g5216
sI48
g5315
sI49
g5414
ssI39
(dp5476
I0
g563
sI1
g662
sI2
g761
sI3
g860
sI4
g959
sI5
g1058
sI6
g1157
sI7
g1256
sI8
g1355
sI9
g1454
sI10
g1553
sI11
g1652
sI12
g1751
sI13
g1850
sI14
g1949
sI15
g2048
sI16
g2147
sI17
g2246
sI18
g2345
sI19
g2444
sI20
g2543
sI21
g2642
sI22
g2741
sI23
g2840
sI24
g2939
sI25
g3038
sI26
g3137
sI27
g3236
sI28
g3335
sI29
g3434
sI30
g3533
sI31
g3632
sI32
g3731
sI33
g3830
sI34
g3929
sI35
g4028
sI36
g4127
sI37
g4226
sI38
g4325
sI40
g4525
sI41
g4624
sI42
g4723
sI43
g4822
sI44
g4921
sI45
g5020
sI46
g5119
sI47
g5218
sI48
g5317
sI49
g5416
ssI40
(dp5477
I0
g565
sI1
g664
sI2
g763
sI3
g862
sI4
g961
sI5
g1060
sI6
g1159
sI7
g1258
sI8
g1357
sI9
g1456
sI10
g1555
sI11
g1654
sI12
g1753
sI13
g1852
sI14
g1951
sI15
g2050
sI16
g2149
sI17
g2248
sI18
g2347
sI19
g2446
sI20
g2545
sI21
g2644
sI22
g2743
sI23
g2842
sI24
g2941
sI25
g3040
sI26
g3139
sI27
g3238
sI28
g3337
sI29
g3436
sI30
g3535
sI31
g3634
sI32
g3733
sI33
g3832
sI34
g3931
sI35
g4030
sI36
g4129
sI37
g4228
sI38
g4327
sI39
g4426
sI41
g4626
sI42
g4725
sI43
g4824
sI44
g4923
sI45
g5022
sI46
g5121
sI47
g5220
sI48
g5319
sI49
g5418
ssI41
(dp5478
I0
g567
sI1
g666
sI2
g765
sI3
g864
sI4
g963
sI5
g1062
sI6
g1161
sI7
g1260
sI8
g1359
sI9
g1458
sI10
g1557
sI11
g1656
sI12
g1755
sI13
g1854
sI14
g1953
sI15
g2052
sI16
g2151
sI17
g2250
sI18
g2349
sI19
g2448
sI20
g2547
sI21
g2646
sI22
g2745
sI23
g2844
sI24
g2943
sI25
g3042
sI26
g3141
sI27
g3240
sI28
g3339
sI29
g3438
sI30
g3537
sI31
g3636
sI32
g3735
sI33
g3834
sI34
g3933
sI35
g4032
sI36
g4131
sI37
g4230
sI38
g4329
sI39
g4428
sI40
g4527
sI42
g4727
sI43
g4826
sI44
g4925
sI45
g5024
sI46
g5123
sI47
g5222
sI48
g5321
sI49
g5420
ssI42
(dp5479
I0
g569
sI1
g668
sI2
g767
sI3
g866
sI4
g965
sI5
g1064
sI6
g1163
sI7
g1262
sI8
g1361
sI9
g1460
sI10
g1559
sI11
g1658
sI12
g1757
sI13
g1856
sI14
g1955
sI15
g2054
sI16
g2153
sI17
g2252
sI18
g2351
sI19
g2450
sI20
g2549
sI21
g2648
sI22
g2747
sI23
g2846
sI24
g2945
sI25
g3044
sI26
g3143
sI27
g3242
sI28
g3341
sI29
g3440
sI30
g3539
sI31
g3638
sI32
g3737
sI33
g3836
sI34
g3935
sI35
g4034
sI36
g4133
sI37
g4232
sI38
g4331
sI39
g4430
sI40
g4529
sI41
g4628
sI43
g4828
sI44
g4927
sI45
g5026
sI46
g5125
sI47
g5224
sI48
g5323
sI49
g5422
ssI43
(dp5480
I0
g571
sI1
g670
sI2
g769
sI3
g868
sI4
g967
sI5
g1066
sI6
g1165
sI7
g1264
sI8
g1363
sI9
g1462
sI10
g1561
sI11
g1660
sI12
g1759
sI13
g1858
sI14
g1957
sI15
g2056
sI16
g2155
sI17
g2254
sI18
g2353
sI19
g2452
sI20
g2551
sI21
g2650
sI22
g2749
sI23
g2848
sI24
g2947
sI25
g3046
sI26
g3145
sI27
g3244
sI28
g3343
sI29
g3442
sI30
g3541
sI31
g3640
sI32
g3739
sI33
g3838
sI34
g3937
sI35
g4036
sI36
g4135
sI37
g4234
sI38
g4333
sI39
g4432
sI40
g4531
sI41
g4630
sI42
g4729
sI44
g4929
sI45
g5028
sI46
g5127
sI47
g5226
sI48
g5325
sI49
g5424
ssI44
(dp5481
I0
g573
sI1
g672
sI2
g771
sI3
g870
sI4
g969
sI5
g1068
sI6
g1167
sI7
g1266
sI8
g1365
sI9
g1464
sI10
g1563
sI11
g1662
sI12
g1761
sI13
g1860
sI14
g1959
sI15
g2058
sI16
g2157
sI17
g2256
sI18
g2355
sI19
g2454
sI20
g2553
sI21
g2652
sI22
g2751
sI23
g2850
sI24
g2949
sI25
g3048
sI26
g3147
sI27
g3246
sI28
g3345
sI29
g3444
sI30
g3543
sI31
g3642
sI32
g3741
sI33
g3840
sI34
g3939
sI35
g4038
sI36
g4137
sI37
g4236
sI38
g4335
sI39
g4434
sI40
g4533
sI41
g4632
sI42
g4731
sI43
g4830
sI45
g5030
sI46
g5129
sI47
g5228
sI48
g5327
sI49
g5426
ssI45
(dp5482
I0
g575
sI1
g674
sI2
g773
sI3
g872
sI4
g971
sI5
g1070
sI6
g1169
sI7
g1268
sI8
g1367
sI9
g1466
sI10
g1565
sI11
g1664
sI12
g1763
sI13
g1862
sI14
g1961
sI15
g2060
sI16
g2159
sI17
g2258
sI18
g2357
sI19
g2456
sI20
g2555
sI21
g2654
sI22
g2753
sI23
g2852
sI24
g2951
sI25
g3050
sI26
g3149
sI27
g3248
sI28
g3347
sI29
g3446
sI30
g3545
sI31
g3644
sI32
g3743
sI33
g3842
sI34
g3941
sI35
g4040
sI36
g4139
sI37
g4238
sI38
g4337
sI39
g4436
sI40
g4535
sI41
g4634
sI42
g4733
sI43
g4832
sI44
g4931
sI46
g5131
sI47
g5230
sI48
g5329
sI49
g5428
ssI46
(dp5483
I0
g577
sI1
g676
sI2
g775
sI3
g874
sI4
g973
sI5
g1072
sI6
g1171
sI7
g1270
sI8
g1369
sI9
g1468
sI10
g1567
sI11
g1666
sI12
g1765
sI13
g1864
sI14
g1963
sI15
g2062
sI16
g2161
sI17
g2260
sI18
g2359
sI19
g2458
sI20
g2557
sI21
g2656
sI22
g2755
sI23
g2854
sI24
g2953
sI25
g3052
sI26
g3151
sI27
g3250
sI28
g3349
sI29
g3448
sI30
g3547
sI31
g3646
sI32
g3745
sI33
g3844
sI34
g3943
sI35
g4042
sI36
g4141
sI37
g4240
sI38
g4339
sI39
g4438
sI40
g4537
sI41
g4636
sI42
g4735
sI43
g4834
sI44
g4933
sI45
g5032
sI47
g5232
sI48
g5331
sI49
g5430
ssI47
(dp5484
I0
g579
sI1
g678
sI2
g777
sI3
g876
sI4
g975
sI5
g1074
sI6
g1173
sI7
g1272
sI8
g1371
sI9
g1470
sI10
g1569
sI11
g1668
sI12
g1767
sI13
g1866
sI14
g1965
sI15
g2064
sI16
g2163
sI17
g2262
sI18
g2361
sI19
g2460
sI20
g2559
sI21
g2658
sI22
g2757
sI23
g2856
sI24
g2955
sI25
g3054
sI26
g3153
sI27
g3252
sI28
g3351
sI29
g3450
sI30
g3549
sI31
g3648
sI32
g3747
sI33
g3846
sI34
g3945
sI35
g4044
sI36
g4143
sI37
g4242
sI38
g4341
sI39
g4440
sI40
g4539
sI41
g4638
sI42
g4737
sI43
g4836
sI44
g4935
sI45
g5034
sI46
g5133
sI48
g5333
sI49
g5432
ssI48
(dp5485
I0
g581
sI1
g680
sI2
g779
sI3
g878
sI4
g977
sI5
g1076
sI6
g1175
sI7
g1274
sI8
g1373
sI9
g1472
sI10
g1571
sI11
g1670
sI12
g1769
sI13
g1868
sI14
g1967
sI15
g2066
sI16
g2165
sI17
g2264
sI18
g2363
sI19
g2462
sI20
g2561
sI21
g2660
sI22
g2759
sI23
g2858
sI24
g2957
sI25
g3056
sI26
g3155
sI27
g3254
sI28
g3353
sI29
g3452
sI30
g3551
sI31
g3650
sI32
g3749
sI33
g3848
sI34
g3947
sI35
g4046
sI36
g4145
sI37
g4244
sI38
g4343
sI39
g4442
sI40
g4541
sI41
g4640
sI42
g4739
sI43
g4838
sI44
g4937
sI45
g5036
sI46
g5135
sI47
g5234
sI49
g5434
ssI49
(dp5486
I0
g583
sI1
g682
sI2
g781
sI3
g880
sI4
g979
sI5
g1078
sI6
g1177
sI7
g1276
sI8
g1375
sI9
g1474
sI10
g1573
sI11
g1672
sI12
g1771
sI13
g1870
sI14
g1969
sI15
g2068
sI16
g2167
sI17
g2266
sI18
g2365
sI19
g2464
sI20
g2563
sI21
g2662
sI22
g2761
sI23
g2860
sI24
g2959
sI25
g3058
sI26
g3157
sI27
g3256
sI28
g3355
sI29
g3454
sI30
g3553
sI31
g3652
sI32
g3751
sI33
g3850
sI34
g3949
sI35
g4048
sI36
g4147
sI37
g4246
sI38
g4345
sI39
g4444
sI40
g4543
sI41
g4642
sI42
g4741
sI43
g4840
sI44
g4939
sI45
g5038
sI46
g5137
sI47
g5236
sI48
g5335
sssg428
g485
sbag1
(cnetworkx.classes.multigraph
MultiGraph
p5487
g3
Ntp5488
Rp5489
(dp5490
g7
(dp5491
I0
(dp5492
S'neibor'
p5493
(lp5494
I1
aI2
aI3
aI4
aI5
aI6
aI7
aI8
aI10
aI12
aI15
aI16
aI18
aI20
aI21
aI24
aI25
aI27
aI28
aI30
aI31
aI32
aI33
aI34
aI35
aI37
aI38
aI42
aI44
aI45
aI46
aI49
asS'dirty'
p5495
I0
ssI1
(dp5496
g5493
(lp5497
I0
aI2
aI3
aI4
aI5
aI6
aI7
aI8
aI9
aI10
aI13
aI16
aI17
aI18
aI19
aI21
aI22
aI23
aI24
aI25
aI26
aI28
aI29
aI30
aI31
aI32
aI33
aI35
aI36
aI37
aI38
aI40
aI41
aI42
aI44
aI46
aI47
aI48
aI49
asg5495
I0
ssI2
(dp5498
g5493
(lp5499
I0
aI1
aI3
aI5
aI6
aI7
aI9
aI12
aI13
aI14
aI15
aI17
aI19
aI20
aI21
aI23
aI24
aI26
aI28
aI29
aI32
aI36
aI38
aI39
aI40
aI43
aI46
aI47
asg5495
I0
ssI3
(dp5500
g5493
(lp5501
I0
aI1
aI2
aI6
aI8
aI9
aI10
aI12
aI14
aI15
aI16
aI20
aI24
aI25
aI28
aI29
aI30
aI34
aI36
aI38
aI39
aI40
aI41
aI42
aI43
aI45
aI46
aI47
aI48
aI49
asg5495
I0
ssI4
(dp5502
g5493
(lp5503
I0
aI1
aI6
aI33
aI40
aI9
aI10
aI11
aI13
aI47
aI16
aI8
aI21
aI39
aI27
aI29
asg5495
I0
ssI5
(dp5504
g5493
(lp5505
I0
aI1
aI2
aI35
aI6
aI38
aI7
aI8
aI10
aI11
aI13
aI14
aI20
aI21
aI24
aI30
aI37
asg5495
I0
ssI6
(dp5506
g5493
(lp5507
I0
aI1
aI2
aI3
aI4
aI5
aI7
aI9
aI13
aI15
aI17
aI19
aI20
aI22
aI24
aI25
aI30
aI32
aI33
aI34
aI35
aI41
aI42
aI43
aI45
aI46
aI47
aI49
asg5495
I0
ssI7
(dp5508
g5493
(lp5509
I0
aI1
aI2
aI5
aI6
aI9
aI10
aI11
aI12
aI14
aI16
aI17
aI18
aI19
aI20
aI22
aI24
aI31
aI32
aI34
aI35
aI41
aI43
aI45
asg5495
I0
ssI8
(dp5510
g5493
(lp5511
I0
aI1
aI3
aI4
aI5
aI16
aI32
aI11
aI45
aI14
aI13
aI48
aI17
aI46
aI25
aI24
aI39
aI15
aI30
asg5495
I0
ssI9
(dp5512
g5493
(lp5513
I1
aI2
aI3
aI4
aI6
aI7
aI10
aI12
aI13
aI14
aI16
aI17
aI20
aI21
aI22
aI23
aI26
aI27
aI30
aI33
aI34
aI35
aI36
aI37
aI38
aI39
aI40
aI43
aI44
aI45
asg5495
I0
ssI10
(dp5514
g5493
(lp5515
I0
aI1
aI3
aI4
aI5
aI38
aI7
aI9
aI13
aI14
aI48
aI18
aI20
aI32
aI22
aI23
aI27
aI30
aI16
asg5495
I0
ssI11
(dp5516
g5493
(lp5517
I33
aI35
aI4
aI5
aI38
aI7
aI8
aI12
aI39
aI44
aI13
aI46
aI47
aI48
aI20
aI22
aI36
aI27
aI29
aI37
asg5495
I0
ssI12
(dp5518
g5493
(lp5519
I0
aI2
aI3
aI7
aI9
aI11
aI34
aI13
aI43
aI18
aI21
aI45
aI39
aI15
asg5495
I0
ssI13
(dp5520
g5493
(lp5521
I1
aI2
aI4
aI5
aI6
aI8
aI9
aI10
aI11
aI12
aI17
aI18
aI19
aI21
aI22
aI23
aI24
aI25
aI27
aI29
aI30
aI31
aI32
aI33
aI34
aI35
aI36
aI38
aI39
aI41
aI42
aI45
aI46
aI49
asg5495
I0
ssI14
(dp5522
g5493
(lp5523
I33
aI2
aI3
aI5
aI16
aI7
aI8
aI9
aI10
aI39
aI34
aI29
aI48
aI40
aI19
aI20
aI22
aI26
aI15
aI42
aI31
asg5495
I0
ssI15
(dp5524
g5493
(lp5525
I0
aI33
aI2
aI3
aI36
aI6
aI17
aI8
aI41
aI43
aI12
aI45
aI14
aI49
aI35
aI22
aI31
asg5495
I0
ssI16
(dp5526
g5493
(lp5527
I0
aI1
aI3
aI4
aI7
aI8
aI9
aI10
aI14
aI17
aI19
aI20
aI22
aI26
aI31
aI34
aI37
aI38
aI44
aI45
aI47
aI49
asg5495
I0
ssI17
(dp5528
g5493
(lp5529
I1
aI2
aI36
aI6
aI7
aI8
aI9
aI39
aI44
aI13
aI46
aI15
aI16
asg5495
I0
ssI18
(dp5530
g5493
(lp5531
I0
aI1
aI36
aI33
aI7
aI10
aI12
aI13
aI46
aI47
aI32
aI22
aI23
aI25
aI28
aI42
aI30
aI21
asg5495
I0
ssI19
(dp5532
g5493
(lp5533
I1
aI2
aI36
aI37
aI6
aI7
aI41
aI44
aI13
aI14
aI16
aI46
aI25
aI27
aI28
aI21
asg5495
I0
ssI20
(dp5534
g5493
(lp5535
I0
aI2
aI3
aI5
aI6
aI7
aI9
aI10
aI11
aI14
aI16
aI49
aI46
aI25
aI42
aI37
asg5495
I0
ssI21
(dp5536
g5493
(lp5537
I0
aI1
aI2
aI4
aI5
aI33
aI9
aI43
aI12
aI13
aI46
aI44
aI18
aI19
aI41
aI24
aI27
aI29
aI30
asg5495
I0
ssI22
(dp5538
g5493
(lp5539
I32
aI1
aI35
aI48
aI6
aI7
aI9
aI10
aI11
aI44
aI13
aI14
aI15
aI16
aI18
aI23
aI27
aI42
asg5495
I0
ssI23
(dp5540
g5493
(lp5541
I32
aI1
aI2
aI35
aI37
aI40
aI9
aI10
aI43
aI29
aI13
aI45
aI18
aI22
aI24
aI26
aI47
aI28
aI42
aI31
asg5495
I0
ssI24
(dp5542
g5493
(lp5543
I0
aI1
aI2
aI3
aI32
aI5
aI6
aI7
aI8
aI44
aI13
aI45
aI34
aI21
aI23
aI30
asg5495
I0
ssI25
(dp5544
g5493
(lp5545
I0
aI1
aI3
aI36
aI6
aI8
aI42
aI13
aI47
aI18
aI19
aI20
aI28
aI29
asg5495
I0
ssI26
(dp5546
g5493
(lp5547
I1
aI2
aI38
aI9
aI43
aI14
aI16
aI46
aI23
asg5495
I0
ssI27
(dp5548
g5493
(lp5549
I0
aI43
aI4
aI40
aI9
aI10
aI11
aI13
aI48
aI19
aI21
aI22
aI36
aI30
asg5495
I0
ssI28
(dp5550
g5493
(lp5551
I0
aI1
aI2
aI3
aI37
aI35
aI42
aI43
aI44
aI46
aI49
aI18
aI19
aI23
aI25
aI29
asg5495
I0
ssI29
(dp5552
g5493
(lp5553
I1
aI2
aI3
aI4
aI11
aI13
aI14
aI34
aI35
aI21
aI23
aI25
aI28
aI31
asg5495
I0
ssI30
(dp5554
g5493
(lp5555
I0
aI1
aI3
aI5
aI6
aI8
aI9
aI10
aI13
aI18
aI21
aI24
aI27
aI31
aI33
aI34
aI38
aI40
aI43
aI44
aI45
aI46
aI49
asg5495
I0
ssI31
(dp5556
g5493
(lp5557
I0
aI1
aI32
aI7
aI43
aI44
aI13
aI14
aI15
aI16
aI23
aI47
aI29
aI30
asg5495
I0
ssI32
(dp5558
g5493
(lp5559
I0
aI1
aI2
aI38
aI6
aI7
aI8
aI10
aI13
aI49
aI18
aI22
aI23
aI24
aI31
asg5495
I0
ssI33
(dp5560
g5493
(lp5561
I0
aI1
aI34
aI4
aI37
aI6
aI9
aI11
aI13
aI14
aI15
aI18
aI21
aI36
aI30
asg5495
I0
ssI34
(dp5562
g5493
(lp5563
I0
aI33
aI3
aI36
aI6
aI7
aI40
aI9
aI42
aI12
aI13
aI14
aI47
aI16
aI48
aI41
aI24
aI29
aI30
asg5495
I0
ssI35
(dp5564
g5493
(lp5565
I0
aI1
aI5
aI6
aI7
aI40
aI9
aI42
aI11
aI13
aI15
aI22
aI23
aI38
aI28
aI29
asg5495
I0
ssI36
(dp5566
g5493
(lp5567
I1
aI2
aI3
aI37
aI33
aI9
aI42
aI11
aI13
aI47
aI15
aI34
aI17
aI18
aI19
aI25
aI27
asg5495
I0
ssI37
(dp5568
g5493
(lp5569
I0
aI1
aI36
aI5
aI38
aI33
aI9
aI11
aI16
aI19
aI20
aI41
aI23
aI39
aI28
asg5495
I0
ssI38
(dp5570
g5493
(lp5571
I0
aI1
aI2
aI3
aI5
aI32
aI40
aI9
aI10
aI11
aI13
aI47
aI16
aI35
aI41
aI26
aI30
aI37
asg5495
I0
ssI39
(dp5572
g5493
(lp5573
I2
aI3
aI4
aI37
aI49
aI8
aI9
aI11
aI12
aI13
aI14
aI45
aI17
aI46
aI40
asg5495
I0
ssI40
(dp5574
g5493
(lp5575
I1
aI2
aI3
aI4
aI38
aI39
aI9
aI34
aI14
aI35
aI23
aI27
aI30
asg5495
I0
ssI41
(dp5576
g5493
(lp5577
I1
aI34
aI3
aI37
aI6
aI7
aI42
aI13
aI46
aI15
aI19
aI21
aI38
asg5495
I0
ssI42
(dp5578
g5493
(lp5579
I0
aI1
aI34
aI3
aI36
aI6
aI41
aI13
aI14
aI47
aI48
aI18
aI35
aI20
aI22
aI23
aI25
aI28
asg5495
I0
ssI43
(dp5580
g5493
(lp5581
I2
aI3
aI6
aI7
aI9
aI12
aI15
aI21
aI23
aI26
aI27
aI28
aI30
aI31
asg5495
I0
ssI44
(dp5582
g5493
(lp5583
I0
aI1
aI49
aI9
aI11
aI16
aI17
aI19
aI21
aI22
aI24
aI28
aI30
aI31
asg5495
I0
ssI45
(dp5584
g5493
(lp5585
I0
aI3
aI6
aI7
aI8
aI9
aI39
aI12
aI13
aI46
aI15
aI16
aI23
aI24
aI30
asg5495
I0
ssI46
(dp5586
g5493
(lp5587
I0
aI1
aI2
aI3
aI49
aI6
aI39
aI8
aI41
aI11
aI13
aI45
aI17
aI18
aI19
aI20
aI21
aI26
aI28
aI30
asg5495
I0
ssI47
(dp5588
g5493
(lp5589
I1
aI2
aI3
aI4
aI38
aI6
aI48
aI42
aI11
aI34
aI16
aI18
aI23
aI25
aI36
aI31
asg5495
I0
ssI48
(dp5590
g5493
(lp5591
I1
aI34
aI3
aI8
aI10
aI11
aI14
aI47
aI22
aI27
aI42
asg5495
I0
ssI49
(dp5592
g5493
(lp5593
I0
aI1
aI3
aI6
aI32
aI39
aI44
aI13
aI46
aI15
aI16
aI20
aI28
aI30
asg5495
I0
sssg59
(dp5594
sg375
(dp5595
I0
(dp5596
I1
(dp5597
I0
(dp5598
sI1
(dp5599
sI2
(dp5600
sI3
(dp5601
ssI2
(dp5602
I0
(dp5603
sI1
(dp5604
ssI3
(dp5605
I0
(dp5606
ssI4
(dp5607
I0
(dp5608
sI1
(dp5609
ssI5
(dp5610
I0
(dp5611
sI1
(dp5612
sI2
(dp5613
sI3
(dp5614
ssI6
(dp5615
I0
(dp5616
sI1
(dp5617
ssI7
(dp5618
I0
(dp5619
ssI8
(dp5620
I0
(dp5621
ssI10
(dp5622
I0
(dp5623
sI1
(dp5624
ssI12
(dp5625
I0
(dp5626
sI1
(dp5627
ssI15
(dp5628
I0
(dp5629
sI1
(dp5630
sI2
(dp5631
ssI16
(dp5632
I0
(dp5633
ssI18
(dp5634
I0
(dp5635
sI1
(dp5636
sI2
(dp5637
sI3
(dp5638
sI4
(dp5639
sI5
(dp5640
ssI20
(dp5641
I0
(dp5642
sI1
(dp5643
ssI21
(dp5644
I0
(dp5645
sI1
(dp5646
ssI24
(dp5647
I0
(dp5648
ssI25
(dp5649
I0
(dp5650
ssI27
(dp5651
I0
(dp5652
sI1
(dp5653
ssI28
(dp5654
I0
(dp5655
ssI30
(dp5656
I0
(dp5657
ssI31
(dp5658
I0
(dp5659
ssI32
(dp5660
I0
(dp5661
sI1
(dp5662
ssI33
(dp5663
I0
(dp5664
ssI34
(dp5665
I0
(dp5666
ssI35
(dp5667
I0
(dp5668
ssI37
(dp5669
I0
(dp5670
ssI38
(dp5671
I0
(dp5672
ssI42
(dp5673
I0
(dp5674
ssI44
(dp5675
I0
(dp5676
ssI45
(dp5677
I0
(dp5678
sI1
(dp5679
ssI46
(dp5680
I0
(dp5681
ssI49
(dp5682
I0
(dp5683
sI1
(dp5684
sssI1
(dp5685
I0
g5597
sI2
(dp5686
I0
(dp5687
sI1
(dp5688
sI2
(dp5689
ssI3
(dp5690
I0
(dp5691
sI1
(dp5692
ssI4
(dp5693
I0
(dp5694
sI1
(dp5695
ssI5
(dp5696
I0
(dp5697
sI1
(dp5698
ssI6
(dp5699
I0
(dp5700
ssI7
(dp5701
I0
(dp5702
sI1
(dp5703
sI2
(dp5704
ssI8
(dp5705
I0
(dp5706
ssI9
(dp5707
I0
(dp5708
sI1
(dp5709
ssI10
(dp5710
I0
(dp5711
sI1
(dp5712
ssI13
(dp5713
I0
(dp5714
sI1
(dp5715
ssI16
(dp5716
I0
(dp5717
sI1
(dp5718
ssI17
(dp5719
I0
(dp5720
sI1
(dp5721
sI2
(dp5722
sI3
(dp5723
ssI18
(dp5724
I0
(dp5725
sI1
(dp5726
sI2
(dp5727
sI3
(dp5728
ssI19
(dp5729
I0
(dp5730
ssI21
(dp5731
I0
(dp5732
sI1
(dp5733
sI2
(dp5734
ssI22
(dp5735
I0
(dp5736
sI1
(dp5737
ssI23
(dp5738
I0
(dp5739
ssI24
(dp5740
I0
(dp5741
sI1
(dp5742
sI2
(dp5743
ssI25
(dp5744
I0
(dp5745
ssI26
(dp5746
I0
(dp5747
sI1
(dp5748
ssI28
(dp5749
I0
(dp5750
sI1
(dp5751
ssI29
(dp5752
I0
(dp5753
ssI30
(dp5754
I0
(dp5755
ssI31
(dp5756
I0
(dp5757
ssI32
(dp5758
I0
(dp5759
ssI33
(dp5760
I0
(dp5761
ssI35
(dp5762
I0
(dp5763
ssI36
(dp5764
I0
(dp5765
sI1
(dp5766
ssI37
(dp5767
I0
(dp5768
ssI38
(dp5769
I0
(dp5770
ssI40
(dp5771
I0
(dp5772
sI1
(dp5773
ssI41
(dp5774
I0
(dp5775
ssI42
(dp5776
I0
(dp5777
ssI44
(dp5778
I0
(dp5779
sI1
(dp5780
sI2
(dp5781
ssI46
(dp5782
I0
(dp5783
ssI47
(dp5784
I0
(dp5785
ssI48
(dp5786
I0
(dp5787
ssI49
(dp5788
I0
(dp5789
sssI2
(dp5790
I0
g5602
sI1
g5686
sI3
(dp5791
I0
(dp5792
sI1
(dp5793
ssI5
(dp5794
I0
(dp5795
ssI6
(dp5796
I0
(dp5797
sI1
(dp5798
ssI7
(dp5799
I0
(dp5800
sI1
(dp5801
ssI9
(dp5802
I0
(dp5803
sI1
(dp5804
ssI12
(dp5805
I0
(dp5806
ssI13
(dp5807
I0
(dp5808
ssI14
(dp5809
I0
(dp5810
ssI15
(dp5811
I0
(dp5812
sI1
(dp5813
ssI17
(dp5814
I0
(dp5815
ssI19
(dp5816
I0
(dp5817
ssI20
(dp5818
I0
(dp5819
ssI21
(dp5820
I0
(dp5821
sI1
(dp5822
ssI23
(dp5823
I0
(dp5824
sI1
(dp5825
ssI24
(dp5826
I0
(dp5827
sI1
(dp5828
ssI26
(dp5829
I0
(dp5830
ssI28
(dp5831
I0
(dp5832
ssI29
(dp5833
I0
(dp5834
sI1
(dp5835
ssI32
(dp5836
I0
(dp5837
ssI36
(dp5838
I0
(dp5839
sI1
(dp5840
ssI38
(dp5841
I0
(dp5842
sI1
(dp5843
ssI39
(dp5844
I0
(dp5845
sI1
(dp5846
ssI40
(dp5847
I0
(dp5848
ssI43
(dp5849
I0
(dp5850
ssI46
(dp5851
I0
(dp5852
sI1
(dp5853
ssI47
(dp5854
I0
(dp5855
sI1
(dp5856
sI2
(dp5857
sI3
(dp5858
sssI3
(dp5859
I0
g5605
sI1
g5690
sI2
g5791
sI6
(dp5860
I0
(dp5861
sI1
(dp5862
ssI8
(dp5863
I0
(dp5864
sI1
(dp5865
ssI9
(dp5866
I0
(dp5867
sI1
(dp5868
ssI10
(dp5869
I0
(dp5870
ssI12
(dp5871
I0
(dp5872
ssI14
(dp5873
I0
(dp5874
ssI15
(dp5875
I0
(dp5876
ssI16
(dp5877
I0
(dp5878
ssI20
(dp5879
I0
(dp5880
ssI24
(dp5881
I0
(dp5882
ssI25
(dp5883
I0
(dp5884
ssI28
(dp5885
I0
(dp5886
sI1
(dp5887
ssI29
(dp5888
I0
(dp5889
ssI30
(dp5890
I0
(dp5891
ssI34
(dp5892
I0
(dp5893
sI1
(dp5894
ssI36
(dp5895
I0
(dp5896
ssI38
(dp5897
I0
(dp5898
ssI39
(dp5899
I0
(dp5900
sI1
(dp5901
ssI40
(dp5902
I0
(dp5903
sI1
(dp5904
ssI41
(dp5905
I0
(dp5906
ssI42
(dp5907
I0
(dp5908
ssI43
(dp5909
I0
(dp5910
ssI45
(dp5911
I0
(dp5912
sI1
(dp5913
ssI46
(dp5914
I0
(dp5915
ssI47
(dp5916
I0
(dp5917
ssI48
(dp5918
I0
(dp5919
ssI49
(dp5920
I0
(dp5921
sssI4
(dp5922
I0
g5607
sI1
g5693
sI6
(dp5923
I0
(dp5924
ssI33
(dp5925
I0
(dp5926
ssI40
(dp5927
I0
(dp5928
sI1
(dp5929
ssI9
(dp5930
I0
(dp5931
ssI10
(dp5932
I0
(dp5933
ssI11
(dp5934
I0
(dp5935
ssI13
(dp5936
I0
(dp5937
sI1
(dp5938
ssI47
(dp5939
I0
(dp5940
ssI16
(dp5941
I0
(dp5942
ssI8
(dp5943
I0
(dp5944
ssI21
(dp5945
I0
(dp5946
ssI39
(dp5947
I0
(dp5948
sI1
(dp5949
ssI27
(dp5950
I0
(dp5951
ssI29
(dp5952
I0
(dp5953
sssI5
(dp5954
I0
g5610
sI1
g5696
sI2
g5794
sI35
(dp5955
I0
(dp5956
sI1
(dp5957
ssI6
(dp5958
I0
(dp5959
ssI38
(dp5960
I0
(dp5961
ssI7
(dp5962
I0
(dp5963
ssI8
(dp5964
I0
(dp5965
ssI10
(dp5966
I0
(dp5967
ssI11
(dp5968
I0
(dp5969
ssI13
(dp5970
I0
(dp5971
ssI14
(dp5972
I0
(dp5973
ssI20
(dp5974
I0
(dp5975
ssI21
(dp5976
I0
(dp5977
ssI24
(dp5978
I0
(dp5979
ssI30
(dp5980
I0
(dp5981
ssI37
(dp5982
I0
(dp5983
sssI6
(dp5984
I0
g5615
sI1
g5699
sI2
g5796
sI3
g5860
sI4
g5923
sI5
g5958
sI7
(dp5985
I0
(dp5986
sI1
(dp5987
ssI9
(dp5988
I0
(dp5989
sI1
(dp5990
ssI13
(dp5991
I0
(dp5992
ssI15
(dp5993
I0
(dp5994
ssI17
(dp5995
I0
(dp5996
ssI19
(dp5997
I0
(dp5998
sI1
(dp5999
ssI20
(dp6000
I0
(dp6001
ssI22
(dp6002
I0
(dp6003
ssI24
(dp6004
I0
(dp6005
sI1
(dp6006
sI2
(dp6007
ssI25
(dp6008
I0
(dp6009
ssI30
(dp6010
I0
(dp6011
ssI32
(dp6012
I0
(dp6013
ssI33
(dp6014
I0
(dp6015
ssI34
(dp6016
I0
(dp6017
sI1
(dp6018
ssI35
(dp6019
I0
(dp6020
ssI41
(dp6021
I0
(dp6022
ssI42
(dp6023
I0
(dp6024
sI1
(dp6025
sI2
(dp6026
ssI43
(dp6027
I0
(dp6028
ssI45
(dp6029
I0
(dp6030
ssI46
(dp6031
I0
(dp6032
ssI47
(dp6033
I0
(dp6034
ssI49
(dp6035
I0
(dp6036
sI1
(dp6037
sssI7
(dp6038
I0
g5618
sI1
g5701
sI2
g5799
sI5
g5962
sI6
g5985
sI9
(dp6039
I0
(dp6040
ssI10
(dp6041
I0
(dp6042
ssI11
(dp6043
I0
(dp6044
ssI12
(dp6045
I0
(dp6046
sI1
(dp6047
ssI14
(dp6048
I0
(dp6049
sI1
(dp6050
ssI16
(dp6051
I0
(dp6052
ssI17
(dp6053
I0
(dp6054
ssI18
(dp6055
I0
(dp6056
ssI19
(dp6057
I0
(dp6058
ssI20
(dp6059
I0
(dp6060
ssI22
(dp6061
I0
(dp6062
ssI24
(dp6063
I0
(dp6064
sI1
(dp6065
ssI31
(dp6066
I0
(dp6067
sI1
(dp6068
ssI32
(dp6069
I0
(dp6070
ssI34
(dp6071
I0
(dp6072
ssI35
(dp6073
I0
(dp6074
ssI41
(dp6075
I0
(dp6076
sI1
(dp6077
ssI43
(dp6078
I0
(dp6079
ssI45
(dp6080
I0
(dp6081
sssI8
(dp6082
I0
g5620
sI1
g5705
sI45
(dp6083
I0
(dp6084
ssI3
g5863
sI48
(dp6085
I0
(dp6086
ssI5
g5964
sI32
(dp6087
I0
(dp6088
ssI11
(dp6089
I0
(dp6090
ssI13
(dp6091
I0
(dp6092
ssI14
(dp6093
I0
(dp6094
ssI15
(dp6095
I0
(dp6096
ssI16
(dp6097
I0
(dp6098
ssI17
(dp6099
I0
(dp6100
ssI4
g5943
sI46
(dp6101
I0
(dp6102
ssI39
(dp6103
I0
(dp6104
ssI24
(dp6105
I0
(dp6106
ssI25
(dp6107
I0
(dp6108
ssI30
(dp6109
I0
(dp6110
sI1
(dp6111
sI2
(dp6112
sssI9
(dp6113
I1
g5707
sI2
g5802
sI3
g5866
sI4
g5930
sI6
g5988
sI7
g6039
sI10
(dp6114
I0
(dp6115
sI1
(dp6116
ssI12
(dp6117
I0
(dp6118
ssI13
(dp6119
I0
(dp6120
ssI14
(dp6121
I0
(dp6122
ssI16
(dp6123
I0
(dp6124
ssI17
(dp6125
I0
(dp6126
ssI20
(dp6127
I0
(dp6128
ssI21
(dp6129
I0
(dp6130
ssI22
(dp6131
I0
(dp6132
sI1
(dp6133
ssI23
(dp6134
I0
(dp6135
ssI26
(dp6136
I0
(dp6137
sI1
(dp6138
sI2
(dp6139
ssI27
(dp6140
I0
(dp6141
ssI30
(dp6142
I0
(dp6143
ssI33
(dp6144
I0
(dp6145
ssI34
(dp6146
I0
(dp6147
sI1
(dp6148
sI2
(dp6149
ssI35
(dp6150
I0
(dp6151
ssI36
(dp6152
I0
(dp6153
sI1
(dp6154
ssI37
(dp6155
I0
(dp6156
ssI38
(dp6157
I0
(dp6158
ssI39
(dp6159
I0
(dp6160
sI1
(dp6161
sI2
(dp6162
ssI40
(dp6163
I0
(dp6164
sI1
(dp6165
ssI43
(dp6166
I0
(dp6167
ssI44
(dp6168
I0
(dp6169
ssI45
(dp6170
I0
(dp6171
sI1
(dp6172
sssI10
(dp6173
I0
g5622
sI1
g5710
sI3
g5869
sI4
g5932
sI5
g5966
sI38
(dp6174
I0
(dp6175
ssI7
g6041
sI9
g6114
sI13
(dp6176
I0
(dp6177
sI1
(dp6178
sI2
(dp6179
ssI14
(dp6180
I0
(dp6181
ssI48
(dp6182
I0
(dp6183
ssI18
(dp6184
I0
(dp6185
ssI20
(dp6186
I0
(dp6187
ssI32
(dp6188
I0
(dp6189
ssI22
(dp6190
I0
(dp6191
ssI23
(dp6192
I0
(dp6193
ssI27
(dp6194
I0
(dp6195
ssI30
(dp6196
I0
(dp6197
ssI16
(dp6198
I0
(dp6199
sssI11
(dp6200
I33
(dp6201
I0
(dp6202
sI1
(dp6203
ssI35
(dp6204
I0
(dp6205
ssI4
g5934
sI5
g5968
sI38
(dp6206
I0
(dp6207
ssI39
(dp6208
I0
(dp6209
ssI8
g6089
sI44
(dp6210
I0
(dp6211
ssI7
g6043
sI12
(dp6212
I0
(dp6213
ssI13
(dp6214
I0
(dp6215
ssI46
(dp6216
I0
(dp6217
ssI47
(dp6218
I0
(dp6219
ssI48
(dp6220
I0
(dp6221
ssI20
(dp6222
I0
(dp6223
ssI22
(dp6224
I0
(dp6225
ssI36
(dp6226
I0
(dp6227
ssI27
(dp6228
I0
(dp6229
sI1
(dp6230
ssI29
(dp6231
I0
(dp6232
ssI37
(dp6233
I0
(dp6234
sssI12
(dp6235
I0
g5625
sI34
(dp6236
I0
(dp6237
ssI43
(dp6238
I0
(dp6239
ssI7
g6045
sI9
g6117
sI11
g6212
sI2
g5805
sI13
(dp6240
I0
(dp6241
ssI18
(dp6242
I0
(dp6243
ssI3
g5871
sI21
(dp6244
I0
(dp6245
sI1
(dp6246
ssI45
(dp6247
I0
(dp6248
ssI39
(dp6249
I0
(dp6250
ssI15
(dp6251
I0
(dp6252
sssI13
(dp6253
I1
g5713
sI2
g5807
sI4
g5936
sI5
g5970
sI6
g5991
sI8
g6091
sI9
g6119
sI10
g6176
sI11
g6214
sI12
g6240
sI17
(dp6254
I0
(dp6255
ssI18
(dp6256
I0
(dp6257
ssI19
(dp6258
I0
(dp6259
ssI21
(dp6260
I0
(dp6261
sI1
(dp6262
ssI22
(dp6263
I0
(dp6264
ssI23
(dp6265
I0
(dp6266
ssI24
(dp6267
I0
(dp6268
ssI25
(dp6269
I0
(dp6270
sI1
(dp6271
ssI27
(dp6272
I0
(dp6273
ssI29
(dp6274
I0
(dp6275
ssI30
(dp6276
I0
(dp6277
sI1
(dp6278
sI2
(dp6279
ssI31
(dp6280
I0
(dp6281
ssI32
(dp6282
I0
(dp6283
sI1
(dp6284
sI2
(dp6285
ssI33
(dp6286
I0
(dp6287
ssI34
(dp6288
I0
(dp6289
sI1
(dp6290
ssI35
(dp6291
I0
(dp6292
ssI36
(dp6293
I0
(dp6294
ssI38
(dp6295
I0
(dp6296
ssI39
(dp6297
I0
(dp6298
ssI41
(dp6299
I0
(dp6300
sI1
(dp6301
ssI42
(dp6302
I0
(dp6303
sI1
(dp6304
sI2
(dp6305
ssI45
(dp6306
I0
(dp6307
sI1
(dp6308
ssI46
(dp6309
I0
(dp6310
ssI49
(dp6311
I0
(dp6312
sssI14
(dp6313
I48
(dp6314
I0
(dp6315
ssI2
g5809
sI3
g5873
sI33
(dp6316
I0
(dp6317
ssI7
g6048
sI8
g6093
sI9
g6121
sI42
(dp6318
I0
(dp6319
sI1
(dp6320
ssI39
(dp6321
I0
(dp6322
ssI29
(dp6323
I0
(dp6324
ssI34
(dp6325
I0
(dp6326
sI1
(dp6327
ssI15
(dp6328
I0
(dp6329
sI1
(dp6330
ssI16
(dp6331
I0
(dp6332
ssI40
(dp6333
I0
(dp6334
ssI19
(dp6335
I0
(dp6336
sI1
(dp6337
ssI20
(dp6338
I0
(dp6339
ssI22
(dp6340
I0
(dp6341
ssI26
(dp6342
I0
(dp6343
ssI5
g5972
sI10
g6180
sI31
(dp6344
I0
(dp6345
sssI15
(dp6346
I0
g5628
sI33
(dp6347
I0
(dp6348
ssI2
g5811
sI35
(dp6349
I0
(dp6350
ssI36
(dp6351
I0
(dp6352
ssI6
g5993
sI49
(dp6353
I0
(dp6354
ssI8
g6095
sI41
(dp6355
I0
(dp6356
ssI43
(dp6357
I0
(dp6358
ssI12
g6251
sI45
(dp6359
I0
(dp6360
ssI14
g6328
sI17
(dp6361
I0
(dp6362
ssI3
g5875
sI22
(dp6363
I0
(dp6364
ssI31
(dp6365
I0
(dp6366
sssI16
(dp6367
I0
g5632
sI1
g5716
sI3
g5877
sI4
g5941
sI7
g6051
sI8
g6097
sI9
g6123
sI10
g6198
sI14
g6331
sI17
(dp6368
I0
(dp6369
ssI19
(dp6370
I0
(dp6371
sI1
(dp6372
ssI20
(dp6373
I0
(dp6374
ssI22
(dp6375
I0
(dp6376
ssI26
(dp6377
I0
(dp6378
ssI31
(dp6379
I0
(dp6380
ssI34
(dp6381
I0
(dp6382
ssI37
(dp6383
I0
(dp6384
sI1
(dp6385
ssI38
(dp6386
I0
(dp6387
sI1
(dp6388
ssI44
(dp6389
I0
(dp6390
ssI45
(dp6391
I0
(dp6392
ssI47
(dp6393
I0
(dp6394
ssI49
(dp6395
I0
(dp6396
sssI17
(dp6397
I1
g5719
sI2
g5814
sI36
(dp6398
I0
(dp6399
ssI6
g5995
sI39
(dp6400
I0
(dp6401
ssI8
g6099
sI9
g6125
sI7
g6053
sI44
(dp6402
I0
(dp6403
ssI13
g6254
sI46
(dp6404
I0
(dp6405
ssI15
g6361
sI16
g6368
ssI18
(dp6406
I0
g5634
sI1
g5724
sI36
(dp6407
I0
(dp6408
ssI33
(dp6409
I0
(dp6410
sI1
(dp6411
ssI7
g6055
sI42
(dp6412
I0
(dp6413
ssI12
g6242
sI13
g6256
sI46
(dp6414
I0
(dp6415
ssI47
(dp6416
I0
(dp6417
ssI32
(dp6418
I0
(dp6419
ssI22
(dp6420
I0
(dp6421
ssI23
(dp6422
I0
(dp6423
ssI25
(dp6424
I0
(dp6425
sI1
(dp6426
sI2
(dp6427
sI3
(dp6428
ssI28
(dp6429
I0
(dp6430
ssI10
g6184
sI30
(dp6431
I0
(dp6432
ssI21
(dp6433
I0
(dp6434
sssI19
(dp6435
I1
g5729
sI2
g5816
sI36
(dp6436
I0
(dp6437
ssI37
(dp6438
I0
(dp6439
ssI6
g5997
sI7
g6057
sI41
(dp6440
I0
(dp6441
ssI44
(dp6442
I0
(dp6443
ssI13
g6258
sI14
g6335
sI16
g6370
sI46
(dp6444
I0
(dp6445
sI1
(dp6446
ssI25
(dp6447
I0
(dp6448
ssI27
(dp6449
I0
(dp6450
ssI28
(dp6451
I0
(dp6452
sI1
(dp6453
ssI21
(dp6454
I0
(dp6455
sssI20
(dp6456
I0
g5641
sI2
g5818
sI3
g5879
sI37
(dp6457
I0
(dp6458
ssI6
g6000
sI7
g6059
sI9
g6127
sI42
(dp6459
I0
(dp6460
ssI11
g6222
sI46
(dp6461
I0
(dp6462
ssI16
g6373
sI49
(dp6463
I0
(dp6464
ssI14
g6338
sI25
(dp6465
I0
(dp6466
ssI10
g6186
sI5
g5974
ssI21
(dp6467
I0
g5644
sI33
(dp6468
I0
(dp6469
sI1
(dp6470
ssI2
g5820
sI4
g5945
sI5
g5976
sI1
g5731
sI41
(dp6471
I0
(dp6472
ssI43
(dp6473
I0
(dp6474
ssI12
g6244
sI13
g6260
sI46
(dp6475
I0
(dp6476
ssI44
(dp6477
I0
(dp6478
ssI18
g6433
sI19
g6454
sI9
g6129
sI24
(dp6479
I0
(dp6480
sI1
(dp6481
ssI27
(dp6482
I0
(dp6483
ssI29
(dp6484
I0
(dp6485
ssI30
(dp6486
I0
(dp6487
sssI22
(dp6488
I32
(dp6489
I0
(dp6490
ssI1
g5735
sI35
(dp6491
I0
(dp6492
ssI6
g6002
sI7
g6061
sI9
g6131
sI10
g6190
sI11
g6224
sI44
(dp6493
I0
(dp6494
ssI13
g6263
sI14
g6340
sI15
g6363
sI48
(dp6495
I0
(dp6496
sI1
(dp6497
sI2
(dp6498
sI3
(dp6499
ssI18
g6420
sI23
(dp6500
I0
(dp6501
ssI27
(dp6502
I0
(dp6503
ssI42
(dp6504
I0
(dp6505
ssI16
g6375
ssI23
(dp6506
I32
(dp6507
I0
(dp6508
ssI1
g5738
sI2
g5823
sI35
(dp6509
I0
(dp6510
ssI37
(dp6511
I0
(dp6512
sI1
(dp6513
sI2
(dp6514
ssI40
(dp6515
I0
(dp6516
ssI9
g6134
sI10
g6192
sI43
(dp6517
I0
(dp6518
sI1
(dp6519
ssI45
(dp6520
I0
(dp6521
ssI13
g6265
sI18
g6422
sI42
(dp6522
I0
(dp6523
ssI22
g6500
sI24
(dp6524
I0
(dp6525
ssI26
(dp6526
I0
(dp6527
ssI47
(dp6528
I0
(dp6529
ssI28
(dp6530
I0
(dp6531
ssI29
(dp6532
I0
(dp6533
sI1
(dp6534
ssI31
(dp6535
I0
(dp6536
sssI24
(dp6537
I32
(dp6538
I0
(dp6539
ssI1
g5740
sI2
g5826
sI3
g5881
sI5
g5978
sI6
g6004
sI7
g6063
sI8
g6105
sI45
(dp6540
I0
(dp6541
ssI44
(dp6542
I0
(dp6543
ssI34
(dp6544
I0
(dp6545
ssI13
g6267
sI21
g6479
sI23
g6524
sI30
(dp6546
I0
(dp6547
ssI0
g5647
ssI25
(dp6548
I0
g5649
sI1
g5744
sI3
g5883
sI36
(dp6549
I0
(dp6550
ssI6
g6008
sI8
g6107
sI42
(dp6551
I0
(dp6552
ssI13
g6269
sI47
(dp6553
I0
(dp6554
ssI18
g6424
sI19
g6447
sI20
g6465
sI28
(dp6555
I0
(dp6556
ssI29
(dp6557
I0
(dp6558
sssI26
(dp6559
I1
g5746
sI2
g5829
sI38
(dp6560
I0
(dp6561
ssI9
g6136
sI43
(dp6562
I0
(dp6563
ssI14
g6342
sI16
g6377
sI46
(dp6564
I0
(dp6565
ssI23
g6526
ssI27
(dp6566
I0
g5651
sI43
(dp6567
I0
(dp6568
ssI4
g5950
sI40
(dp6569
I0
(dp6570
ssI9
g6140
sI10
g6194
sI11
g6228
sI13
g6272
sI48
(dp6571
I0
(dp6572
ssI19
g6449
sI21
g6482
sI22
g6502
sI36
(dp6573
I0
(dp6574
ssI30
(dp6575
I0
(dp6576
sssI28
(dp6577
I0
g5654
sI1
g5749
sI2
g5831
sI3
g5885
sI37
(dp6578
I0
(dp6579
ssI19
g6451
sI42
(dp6580
I0
(dp6581
ssI43
(dp6582
I0
(dp6583
ssI44
(dp6584
I0
(dp6585
ssI46
(dp6586
I0
(dp6587
ssI49
(dp6588
I0
(dp6589
ssI18
g6429
sI35
(dp6590
I0
(dp6591
ssI23
g6530
sI25
g6555
sI29
(dp6592
I0
(dp6593
sI1
(dp6594
sssI29
(dp6595
I1
g5752
sI2
g5833
sI3
g5888
sI4
g5952
sI11
g6231
sI34
(dp6596
I0
(dp6597
ssI14
g6323
sI13
g6274
sI35
(dp6598
I0
(dp6599
ssI21
g6484
sI23
g6532
sI25
g6557
sI28
g6592
sI31
(dp6600
I0
(dp6601
sssI30
(dp6602
I0
g5656
sI1
g5754
sI3
g5890
sI5
g5980
sI6
g6010
sI8
g6109
sI9
g6142
sI10
g6196
sI13
g6276
sI18
g6431
sI21
g6486
sI24
g6546
sI27
g6575
sI31
(dp6603
I0
(dp6604
ssI33
(dp6605
I0
(dp6606
ssI34
(dp6607
I0
(dp6608
sI1
(dp6609
ssI38
(dp6610
I0
(dp6611
sI1
(dp6612
ssI40
(dp6613
I0
(dp6614
ssI43
(dp6615
I0
(dp6616
sI1
(dp6617
ssI44
(dp6618
I0
(dp6619
ssI45
(dp6620
I0
(dp6621
sI1
(dp6622
sI2
(dp6623
ssI46
(dp6624
I0
(dp6625
ssI49
(dp6626
I0
(dp6627
sssI31
(dp6628
I0
g5658
sI1
g5756
sI32
(dp6629
I0
(dp6630
ssI7
g6066
sI43
(dp6631
I0
(dp6632
ssI44
(dp6633
I0
(dp6634
ssI13
g6280
sI14
g6344
sI47
(dp6635
I0
(dp6636
ssI16
g6379
sI23
g6535
sI15
g6365
sI29
g6600
sI30
g6603
ssI32
(dp6637
I0
g5660
sI1
g5758
sI2
g5836
sI6
g6012
sI38
(dp6638
I0
(dp6639
ssI7
g6069
sI8
g6087
sI10
g6188
sI13
g6282
sI49
(dp6640
I0
(dp6641
ssI18
g6418
sI22
g6489
sI23
g6507
sI24
g6538
sI31
g6629
ssI33
(dp6642
I0
g5663
sI1
g5760
sI34
(dp6643
I0
(dp6644
ssI4
g5925
sI37
(dp6645
I0
(dp6646
ssI6
g6014
sI9
g6144
sI11
g6201
sI13
g6286
sI14
g6316
sI15
g6347
sI18
g6409
sI21
g6468
sI36
(dp6647
I0
(dp6648
ssI30
g6605
ssI34
(dp6649
I0
g5665
sI33
g6643
sI3
g5892
sI36
(dp6650
I0
(dp6651
sI1
(dp6652
sI2
(dp6653
ssI6
g6016
sI48
(dp6654
I0
(dp6655
sI1
(dp6656
ssI40
(dp6657
I0
(dp6658
sI1
(dp6659
ssI9
g6146
sI42
(dp6660
I0
(dp6661
ssI7
g6071
sI12
g6236
sI13
g6288
sI14
g6325
sI47
(dp6662
I0
(dp6663
ssI16
g6381
sI41
(dp6664
I0
(dp6665
sI1
(dp6666
ssI24
g6544
sI29
g6596
sI30
g6607
ssI35
(dp6667
I0
g5667
sI1
g5762
sI6
g6019
sI38
(dp6668
I0
(dp6669
ssI7
g6073
sI40
(dp6670
I0
(dp6671
ssI9
g6150
sI42
(dp6672
I0
(dp6673
ssI11
g6204
sI13
g6291
sI15
g6349
sI22
g6491
sI23
g6509
sI28
g6590
sI29
g6598
sI5
g5955
ssI36
(dp6674
I33
g6647
sI2
g5838
sI3
g5895
sI37
(dp6675
I0
(dp6676
sI1
(dp6677
ssI1
g5764
sI9
g6152
sI42
(dp6678
I0
(dp6679
ssI11
g6226
sI13
g6293
sI34
g6650
sI47
(dp6680
I0
(dp6681
ssI15
g6351
sI17
g6398
sI18
g6407
sI19
g6436
sI25
g6549
sI27
g6573
ssI37
(dp6682
I0
g5669
sI1
g5767
sI11
g6233
sI36
g6675
sI5
g5982
sI38
(dp6683
I0
(dp6684
ssI33
g6645
sI41
(dp6685
I0
(dp6686
ssI39
(dp6687
I0
(dp6688
sI1
(dp6689
sI2
(dp6690
ssI16
g6383
sI19
g6438
sI20
g6457
sI23
g6511
sI9
g6155
sI28
g6578
ssI38
(dp6691
I0
g5671
sI1
g5769
sI2
g5841
sI35
g6668
sI5
g5960
sI32
g6638
sI40
(dp6692
I0
(dp6693
ssI9
g6157
sI10
g6174
sI11
g6206
sI13
g6295
sI47
(dp6694
I0
(dp6695
ssI16
g6386
sI3
g5897
sI41
(dp6696
I0
(dp6697
ssI26
g6560
sI30
g6610
sI37
g6683
ssI39
(dp6698
I2
g5844
sI3
g5899
sI4
g5947
sI37
g6687
sI49
(dp6699
I0
(dp6700
ssI40
(dp6701
I0
(dp6702
ssI9
g6159
sI11
g6208
sI12
g6249
sI45
(dp6703
I0
(dp6704
sI1
(dp6705
ssI46
(dp6706
I0
(dp6707
sI1
(dp6708
ssI13
g6297
sI17
g6400
sI14
g6321
sI8
g6103
ssI40
(dp6709
I1
g5771
sI34
g6657
sI3
g5902
sI4
g5927
sI38
g6692
sI39
g6701
sI9
g6163
sI2
g5847
sI14
g6333
sI35
g6670
sI23
g6515
sI27
g6569
sI30
g6613
ssI41
(dp6710
I1
g5774
sI34
g6664
sI3
g5905
sI37
g6685
sI38
g6696
sI7
g6075
sI42
(dp6711
I0
(dp6712
ssI13
g6299
sI46
(dp6713
I0
(dp6714
ssI15
g6355
sI19
g6440
sI21
g6471
sI6
g6021
ssI42
(dp6715
I0
g5673
sI1
g5776
sI34
g6660
sI3
g5907
sI36
g6678
sI6
g6023
sI41
g6711
sI13
g6302
sI14
g6318
sI47
(dp6716
I0
(dp6717
ssI48
(dp6718
I0
(dp6719
ssI18
g6412
sI35
g6672
sI20
g6459
sI22
g6504
sI23
g6522
sI25
g6551
sI28
g6580
ssI43
(dp6720
I2
g5849
sI3
g5909
sI6
g6027
sI7
g6078
sI9
g6166
sI12
g6238
sI15
g6357
sI21
g6473
sI23
g6517
sI26
g6562
sI27
g6567
sI28
g6582
sI30
g6615
sI31
g6631
ssI44
(dp6721
I0
g5675
sI1
g5778
sI17
g6402
sI9
g6168
sI11
g6210
sI16
g6389
sI49
(dp6722
I0
(dp6723
sI1
(dp6724
ssI19
g6442
sI21
g6477
sI22
g6493
sI24
g6542
sI28
g6584
sI30
g6618
sI31
g6633
ssI45
(dp6725
I0
g5677
sI3
g5911
sI6
g6029
sI39
g6703
sI8
g6083
sI9
g6170
sI7
g6080
sI12
g6247
sI13
g6306
sI46
(dp6726
I0
(dp6727
ssI15
g6359
sI16
g6391
sI23
g6520
sI24
g6540
sI30
g6620
ssI46
(dp6728
I0
g5680
sI1
g5782
sI2
g5851
sI3
g5914
sI17
g6404
sI6
g6031
sI39
g6706
sI8
g6101
sI41
g6713
sI11
g6216
sI13
g6309
sI45
g6726
sI49
(dp6729
I0
(dp6730
ssI18
g6414
sI19
g6444
sI20
g6461
sI21
g6475
sI26
g6564
sI28
g6586
sI30
g6624
ssI47
(dp6731
I16
g6393
sI2
g5854
sI3
g5916
sI4
g5939
sI38
g6694
sI6
g6033
sI1
g5784
sI42
g6716
sI11
g6218
sI34
g6662
sI48
(dp6732
I0
(dp6733
ssI18
g6416
sI23
g6528
sI25
g6553
sI36
g6680
sI31
g6635
ssI48
(dp6734
I1
g5786
sI34
g6654
sI3
g5918
sI8
g6085
sI42
g6718
sI11
g6220
sI14
g6314
sI47
g6732
sI22
g6495
sI27
g6571
sI10
g6182
ssI49
(dp6735
I0
g5682
sI1
g5788
sI3
g5920
sI6
g6035
sI32
g6640
sI39
g6699
sI44
g6722
sI13
g6311
sI46
g6729
sI15
g6353
sI16
g6395
sI20
g6463
sI28
g6588
sI30
g6626
sssg428
g5595
sba.