(lp0
I48
aI64
aI83
aI87
aI93
aI99
aI99
aI100
aI100
aI100
aI100
aI100
aI100
aI100
aI100
a.(lp0
I12
aI11
aI14
aI13
aI16
aI11
aI11
aI8
aI7
aI7
aI7
aI7
aI6
aI6
aI6
a.(lp0
I24
aI86
aI100
aI100
aI100
aI100
aI100
aI100
aI100
aI100
aI100
aI100
aI100
aI100
aI100
a.(lp0
I7
aI8
aI7
aI6
aI5
aI5
aI5
aI5
aI5
aI5
aI4
aI4
aI4
aI4
aI4
a.(lp0
I61
aI100
aI100
aI100
aI100
aI100
aI100
aI100
aI100
aI100
aI100
aI100
aI100
aI100
aI100
a.(lp0
I6
aI5
aI4
aI3
aI3
aI3
aI3
aI3
aI3
aI3
aI3
aI3
aI3
aI3
aI3
a.(lp0
I100
aI100
aI100
aI100
aI100
aI100
aI100
aI100
aI100
aI100
aI100
aI100
aI100
aI100
aI100
a.(lp0
I12
aI8
aI8
aI8
aI8
aI8
aI8
aI8
aI7
aI7
aI6
aI6
aI5
aI5
aI4
a.