(lp0
I29
aI53
aI82
aI87
aI100
aI100
aI100
aI100
aI100
aI100
aI100
aI100
aI100
aI100
aI100
a.(lp0
I11
aI22
aI18
aI18
aI14
aI13
aI11
aI11
aI10
aI10
aI9
aI9
aI9
aI9
aI9
a.(lp0
I37
aI49
aI86
aI100
aI100
aI100
aI100
aI100
aI100
aI100
aI100
aI100
aI100
aI100
aI100
a.(lp0
I6
aI8
aI9
aI6
aI6
aI5
aI5
aI5
aI5
aI5
aI5
aI5
aI5
aI5
aI5
a.(lp0
I46
aI67
aI100
aI100
aI100
aI100
aI100
aI100
aI100
aI100
aI100
aI100
aI100
aI100
aI100
a.(lp0
I5
aI5
aI6
aI5
aI4
aI4
aI4
aI4
aI4
aI4
aI4
aI4
aI3
aI3
aI3
a.(lp0
I100
aI100
aI100
aI100
aI100
aI100
aI100
aI100
aI100
aI100
aI100
aI100
aI100
aI100
aI100
a.(lp0
I15
aI12
aI12
aI12
aI10
aI10
aI10
aI10
aI10
aI10
aI10
aI9
aI9
aI7
aI7
a.