(lp0
I2
aI3
aI5
aI6
aI16
aI19
aI78
aI84
aI100
aI100
aI100
aI100
aI100
aI100
aI100
a.(lp0
I4
aI5
aI5
aI7
aI14
aI17
aI28
aI27
aI26
aI24
aI22
aI22
aI21
aI19
aI19
a.(lp0
I1
aI2
aI4
aI7
aI100
aI100
aI100
aI100
aI100
aI100
aI100
aI100
aI100
aI100
aI100
a.(lp0
I3
aI4
aI5
aI8
aI9
aI8
aI7
aI7
aI7
aI6
aI6
aI6
aI6
aI6
aI6
a.(lp0
I34
aI34
aI36
aI37
aI100
aI100
aI100
aI100
aI100
aI100
aI100
aI100
aI100
aI100
aI100
a.(lp0
I5
aI5
aI7
aI8
aI7
aI6
aI6
aI6
aI6
aI6
aI5
aI5
aI5
aI5
aI5
a.(lp0
I1
aI2
aI4
aI7
aI12
aI69
aI100
aI100
aI100
aI100
aI100
aI100
aI100
aI100
aI100
a.(lp0
I3
aI3
aI6
aI7
aI9
aI11
aI11
aI10
aI9
aI8
aI7
aI7
aI7
aI7
aI7
a.(lp0
I1
aI100
aI100
aI100
aI100
aI100
aI100
aI100
aI100
aI100
aI100
aI100
aI100
aI100
aI100
a.(lp0
I2
aI30
aI30
aI30
aI30
aI30
aI29
aI24
aI22
aI22
aI22
aI22
aI21
aI20
aI20
a.