(lp0
I121
aI203
aI265
aI315
aI374
aI394
aI413
aI452
aI462
aI472
aI472
aI480
aI480
aI480
aI490
aI499
aI499
aI499
aI499
aI499
aI499
aI499
aI499
aI499
aI499
aI499
aI499
aI499
aI499
aI499
a.(lp0
I24
aI37
aI48
aI55
aI65
aI67
aI67
aI71
aI70
aI70
aI68
aI67
aI65
aI64
aI64
aI63
aI62
aI60
aI60
aI58
aI57
aI57
aI57
aI57
aI56
aI55
aI54
aI53
aI53
aI53
a.(lp0
I83
aI155
aI186
aI247
aI316
aI356
aI386
aI396
aI425
aI435
aI446
aI472
aI481
aI481
aI490
aI499
aI499
aI499
aI499
aI499
aI499
aI499
aI499
aI499
aI499
aI499
aI499
aI499
aI499
aI500
a.(lp0
I11
aI18
aI20
aI24
aI28
aI28
aI29
aI28
aI28
aI28
aI27
aI27
aI26
aI24
aI23
aI23
aI22
aI22
aI21
aI20
aI20
aI20
aI19
aI19
aI19
aI19
aI19
aI19
aI19
aI19
a.(lp0
I28
aI92
aI500
aI500
aI500
aI499
aI499
aI500
aI499
aI500
aI499
aI499
aI499
aI499
aI499
aI499
aI499
aI499
aI500
aI500
aI500
aI499
aI499
aI499
aI499
aI499
aI499
aI499
aI499
aI499
a.(lp0
I21
aI37
aI33
aI24
aI25
aI27
aI29
aI19
aI18
aI19
aI17
aI21
aI22
aI16
aI20
aI18
aI18
aI18
aI18
aI18
aI18
aI18
aI19
aI17
aI17
aI17
aI17
aI17
aI17
aI19
a.