(lp0
I23
aI41
aI58
aI63
aI73
aI82
aI88
aI97
aI100
aI100
aI100
aI100
aI100
aI100
aI100
a.(lp0
I9
aI12
aI16
aI17
aI18
aI19
aI19
aI19
aI17
aI16
aI15
aI15
aI14
aI14
aI14
a.(lp0
I25
aI82
aI100
aI100
aI100
aI100
aI100
aI100
aI100
aI100
aI100
aI100
aI100
aI100
aI100
a.(lp0
I7
aI10
aI7
aI6
aI5
aI5
aI5
aI5
aI5
aI5
aI5
aI4
aI4
aI4
aI4
a.(lp0
I24
aI100
aI100
aI100
aI100
aI100
aI100
aI100
aI100
aI100
aI100
aI100
aI100
aI100
aI100
a.(lp0
I6
aI6
aI5
aI4
aI4
aI4
aI4
aI3
aI3
aI3
aI3
aI3
aI3
aI3
aI3
a.(lp0
I100
aI100
aI100
aI100
aI100
aI100
aI100
aI100
aI100
aI100
aI100
aI100
aI100
aI100
aI100
a.(lp0
I20
aI17
aI17
aI17
aI17
aI17
aI17
aI16
aI16
aI16
aI15
aI14
aI14
aI14
aI14
a.