(lp0
(lp1
I0
aa.(lp0
(lp1
I15
aa.(lp0
(lp1
I0
aa.(lp0
(lp1
I0
aa.(lp0
(lp1
I0
aa.(lp0
(lp1
I0
aa.(lp0
(lp1
I0
aa.(lp0
(lp1
I0
aa.(lp0
(lp1
I0
aa.(lp0
(lp1
I0
aa.(lp0
(lp1
I0
aa.(lp0
(lp1
I2
aa.(lp0
(lp1
I2
aa.(lp0
(lp1
I4
aa.(lp0
(lp1
I41
aa.(lp0
(lp1
I41
aa.(lp0
(lp1
I41
aa.(lp0
(lp1
I166
aa.(lp0
(lp1
I166
aa.(lp0
(lp1
I166
aa.(lp0
(lp1
I166
aa.(lp0
(lp1
I167
aa.(lp0
(lp1
I166
aa.(lp0
(lp1
I166
aa.(lp0
(lp1
I166
aa.(lp0
(lp1
I166
aa.(lp0
(lp1
I0
aa.(lp0
(lp1
I166
aa.(lp0
(lp1
I0
aa.(lp0
(lp1
I166
aa.(lp0
(lp1
I0
aa.(lp0
(lp1
I166
aa.(lp0
(lp1
I166
aa.(lp0
(lp1
I166
aa.(lp0
(lp1
I166
aa.(lp0
(lp1
I166
aa.(lp0
(lp1
I0
aa.(lp0
(lp1
I166
aa.(lp0
(lp1
I1
aa.(lp0
(lp1
I13
aa.(lp0
(lp1
I19
aa.(lp0
(lp1
I19
aa.(lp0
(lp1
I21
aa.(lp0
(lp1
I21
aa.(lp0
(lp1
I21
aa.(lp0
(lp1
I117
aa.(lp0
(lp1
I169
aa.(lp0
(lp1
I163
aa.(lp0
(lp1
I159
aa.(lp0
(lp1
I159
aa.(lp0
(lp1
I159
aa.(lp0
(lp1
I163
aa.(lp0
(lp1
I169
aa.(lp0
(lp1
I169
aa.(lp0
(lp1
I169
aa.(lp0
(lp1
I170
aa.(lp0
(lp1
I170
aa.(lp0
(lp1
I62
aa.(lp0
(lp1
I7
aa.(lp0
(lp1
I117
aa.(lp0
(lp1
I169
aa.(lp0
(lp1
I69
aa.(lp0
(lp1
I69
aa.(lp0
(lp1
I74
aa.(lp0
(lp1
I23
aa.(lp0
(lp1
I23
aa.(lp0
(lp1
I23
aa.(lp0
(lp1
I23
aa.(lp0
(lp1
I23
aa.(lp0
(lp1
I23
aa.(lp0
(lp1
I23
aa.(lp0
(lp1
I23
aI7
aa.(lp0
(lp1
I23
aI23
aa.(lp0
(lp1
I23
aI23
aa.(lp0
(lp1
I23
aI23
aa.(lp0
(lp1
I23
aI23
aa.(lp0
(lp1
I23
aI23
aI23
aI23
aI23
aI23
aI23
aI23
aI23
aI23
aa.(lp0
(lp1
I23
aI68
aI74
aI74
aI74
aI74
aI74
aI74
aI74
aI74
aa.(lp0
(lp1
I32
aI50
aI51
aI50
aI50
aI50
aI50
aI50
aI50
aI50
aa.(lp0
(lp1
I46
aI44
aI44
aI44
aI44
aI44
aI44
aI44
aI44
aI44
aa.(lp0
(lp1
I46
aI44
aI44
aI44
aI44
aI44
aI44
aI44
aI44
aI44
aa.(lp0
(lp1
I18
aI82
aI90
aI84
aI84
aI84
aI84
aI84
aI84
aI84
aa.(lp0
(lp1
I18
aI82
aI90
aI84
aI84
aI84
aI84
aI84
aI84
aI84
aa.(lp0
(lp1
I40
aI41
aI41
aI41
aI41
aI41
aI41
aI41
aI41
aI41
aa.(lp0
(lp1
I46
aI44
aI44
aI44
aI44
aI44
aI44
aI44
aI44
aI44
aa.(lp0
(lp1
I20
aI39
aI44
aI44
aI44
aI44
aI44
aI44
aI44
aI44
aa.(lp0
(lp1
I20
aI39
aI44
aI44
aI44
aI44
aI44
aI44
aI44
aI44
aa.(lp0
(lp1
I20
aI40
aI39
aI39
aI39
aI39
aI39
aI39
aI39
aI39
aa.(lp0
(lp1
I22
aI70
aI74
aI74
aI74
aI74
aI74
aI74
aI74
aI74
aa.(lp0
(lp1
I22
aI70
aI74
aI74
aI74
aI74
aI74
aI74
aI74
aI74
aI74
aI74
aa.(lp0
(lp1
I36
aI51
aI53
aI52
aI52
aI52
aI52
aI52
aI52
aI52
aI52
aI52
aI52
aI52
aI52
aa.(lp0
(lp1
I44
aI44
aI44
aI44
aI44
aI44
aI44
aI44
aI44
aI44
aI44
aI44
aI44
aI44
aI44
aa.(lp0
(lp1
I22
aa.(lp0
(lp1
I70
aa.(lp0
(lp1
I74
aa.(lp0
(lp1
I74
aa.(lp0
(lp1
I74
aa.(lp0
(lp1
I74
aa.(lp0
(lp1
I74
aa.(lp0
(lp1
I74
aa.(lp0
(lp1
I74
aa.(lp0
(lp1
I74
aa.(lp0
(lp1
I74
aa.(lp0
(lp1
I74
aa.(lp0
(lp1
I74
aa.(lp0
(lp1
I74
aa.(lp0
(lp1
I74
aa.(lp0
(lp1
I22
aa.(lp0
(lp1
I22
aa.(lp0
(lp1
I22
aI70
aI74
aI74
aI74
aI74
aI74
aI74
aI74
aI74
aa.(lp0
(lp1
I36
aI51
aI53
aI52
aI52
aI52
aI52
aI52
aI52
aI52
aa.(lp0
(lp1
I44
aI44
aI44
aI44
aI44
aI44
aI44
aI44
aI44
aI44
aa.(lp0
(lp1
I44
aI44
aI44
aI44
aI44
aI44
aI44
aI44
aI44
aI44
aa.(lp0
(lp1
I69
aI77
aI77
aI77
aI77
aI77
aI77
aI77
aI77
aI77
aa.(lp0
(lp1
I69
aI77
aI77
aI77
aI77
aI77
aI77
aI77
aI77
aI77
aa.(lp0
(lp1
I5
aI11
aI13
aI15
aI15
aI16
aI16
aI16
aI16
aI16
aa.(lp0
(lp1
I20
aI40
aI39
aI39
aI39
aI39
aI39
aI39
aI39
aI39
aa.(lp0
(lp1
I22
aa.(lp0
(lp1
I21
aa.(lp0
(lp1
I21
aa.(lp0
(lp1
I21
aa.(lp0
(lp1
I69
aa.(lp0
(lp1
I53
aa.(lp0
(lp1
I21
aI69
aI53
aI53
aI53
aI53
aI53
aI53
aI53
aI53
aa.(lp0
(lp1
I35
aI50
aI54
aI54
aI54
aI54
aI54
aI54
aI54
aI54
aa.(lp0
(lp1
I43
aI43
aI43
aI43
aI43
aI43
aI43
aI43
aI43
aI43
aa.(lp0
(lp1
I76
aI81
aI80
aI80
aI80
aI80
aI80
aI80
aI81
aI81
aa.(lp0
(lp1
I4
aI10
aI12
aI15
aI15
aI16
aI16
aI16
aI16
aI16
aa.(lp0
(lp1
I26
aI38
aI43
aI43
aI43
aI43
aI43
aI43
aI43
aI43
aa.(lp0
(lp1
I0
aI0
aI0
aI0
aI0
aI0
aI1
aI4
aI13
aI21
aI26
aI33
aI47
aI53
aI52
aI53
aI57
aI62
aI65
aI69
aI73
aI53
aI53
aI53
aI53
aa.(lp0
(lp1
I3
aI3
aI3
aI3
aI3
aI3
aI169
aI169
aI169
aI169
aI169
aI169
aI169
aI169
aI169
aI169
aI169
aI169
aI169
aI169
aI169
aI169
aI169
aI169
aI169
aa.(lp0
(lp1
I0
aI0
aI0
aI0
aI0
aI0
aI1
aI4
aI13
aI21
aI26
aI33
aI47
aI53
aI52
aI53
aI57
aI62
aI65
aI69
aI73
aI53
aI53
aI53
aI53
aa.(lp0
(lp1
I0
aI0
aI0
aI0
aI0
aI0
aI1
aI4
aI13
aI21
aI26
aI33
aI47
aI53
aI52
aI53
aI57
aI62
aI65
aI69
aI73
aI53
aI53
aI53
aI53
aa.(lp0
(lp1
I0
aI0
aI0
aI0
aI0
aI5
aI26
aI26
aI30
aI35
aI37
aI40
aI42
aI44
aI46
aI48
aI48
aI49
aI50
aI50
aI51
aI53
aI55
aI55
aI55
aa.(lp0
(lp1
I0
aI0
aI0
aI0
aI4
aI7
aI15
aI25
aI42
aI43
aI44
aI46
aI45
aI45
aI45
aI45
aI43
aI43
aI43
aI43
aI43
aI43
aI43
aI43
aI43
aa.(lp0
(lp1
I0
aI0
aI0
aI0
aI0
aI0
aI0
aI0
aI3
aI4
aI5
aI6
aI7
aI8
aI8
aI9
aI9
aI10
aI10
aI10
aI10
aI10
aI10
aI10
aI11
aa.(lp0
(lp1
I0
aI0
aI0
aI0
aI0
aI0
aI0
aI0
aI3
aI4
aI5
aI6
aI7
aI8
aI8
aI9
aI9
aI10
aI10
aI10
aI10
aI10
aI10
aI10
aI11
aI11
aI12
aI12
aI12
aI12
aI12
aI13
aI14
aI14
aI14
aI14
aI14
aI14
aI15
aI15
aa.(lp0
(lp1
I0
aI0
aI0
aI0
aI1
aI3
aI4
aI13
aI17
aI26
aI23
aI34
aI33
aI38
aI41
aI35
aI37
aI39
aI39
aI38
aI39
aI40
aI40
aI40
aI40
aI39
aI39
aI43
aI43
aI43
aI43
aI43
aI43
aI43
aI43
aI43
aI43
aI43
aI43
aI43
aa.(lp0
(lp1
I2
aa.(lp0
(lp1
I0
aa.(lp0
(lp1
I0
aa.(lp0
(lp1
I0
aa.(lp0
(lp1
I57
aa.(lp0
(lp1
I55
aa.(lp0
(lp1
I53
aa.(lp0
(lp1
I37
aa.(lp0
(lp1
I0
aI0
aI0
aI0
aI0
aI5
aI23
aI28
aI30
aI37
aa.