(lp0
I25
aI37
aI60
aI70
aI78
aI83
aI87
aI94
aI94
aI97
aI100
aI100
aI100
aI100
aI100
a.(lp0
I9
aI14
aI22
aI17
aI18
aI19
aI19
aI19
aI18
aI18
aI17
aI16
aI16
aI15
aI16
a.(lp0
I17
aI38
aI55
aI63
aI75
aI89
aI93
aI96
aI100
aI100
aI100
aI100
aI100
aI100
aI100
a.(lp0
I5
aI12
aI15
aI15
aI15
aI15
aI15
aI14
aI13
aI13
aI13
aI12
aI11
aI11
aI11
a.(lp0
I100
aI100
aI100
aI100
aI100
aI100
aI100
aI100
aI100
aI100
aI100
aI100
aI100
aI100
aI100
a.(lp0
I19
aI13
aI14
aI13
aI12
aI12
aI12
aI12
aI12
aI12
aI11
aI11
aI10
aI10
aI10
a.