(lp0
I1
aI10
aI10
aI17
a.(lp0
I1
aI13
aI30
aI30
a.(lp0
I3
aI10
aI11
aI22
a.(lp0
I3
aI10
aI11
aI22
a.(lp0
I5
aI9
aI28
aI30
a.(lp0
I7
aI30
aI30
aI30
a.(lp0
I7
aI11
aI24
aI12
a.(lp0
I7
aI11
aI24
aI12
a.(lp0
I1
aI4
aI6
aI15
a.(lp0
I2
aI6
aI30
aI30
a.(lp0
I2
aI6
aI7
aI16
a.(lp0
I2
aI6
aI7
aI16
a.