(lp0
I2
aI4
aI7
aI9
aI14
aI14
aI24
aI28
aI31
aI37
aI39
aI41
aI47
aI60
aI60
aI78
aI86
aI82
aI100
aI108
aI121
aI132
aI144
aI149
aI150
a.(lp0
I2
aI33
aI9
aI14
aI24
aI30
aI140
aI140
aI144
aI149
aI150
aI150
aI150
aI150
aI150
aI150
aI150
aI150
aI150
aI150
aI150
aI150
aI150
aI150
aI150
a.(lp0
I4
aI7
aI12
aI18
aI21
aI26
aI83
aI62
aI64
aI70
aI85
aI75
aI87
aI96
aI133
aI147
aI150
aI150
aI150
aI150
aI150
aI150
aI150
aI150
aI150
a.(lp0
I3
aI8
aI40
aI24
aI112
aI148
aI149
aI150
aI150
aI150
aI150
aI150
aI150
aI150
aI150
aI150
aI150
aI150
aI150
aI150
aI150
aI150
aI150
aI150
aI150
a.(lp0
I1
aI3
aI5
aI7
aI10
aI13
aI18
aI16
aI20
aI24
aI28
aI29
aI34
aI40
aI40
aI43
aI48
aI51
aI56
aI63
aI71
aI71
aI85
aI88
aI107
a.(lp0
I1
aI4
aI6
aI10
aI10
aI18
aI22
aI25
aI34
aI114
aI143
aI149
aI150
aI149
aI150
aI150
aI150
aI150
aI150
aI150
aI150
aI150
aI150
aI150
aI150
a.