(lp0
I12
aI14
aI14
aI14
a.(lp0
I6
aI6
aI5
aI5
a.(lp0
I3
aI30
aI30
aI30
a.(lp0
I2
aI5
aI5
aI4
a.(lp0
I3
aI12
aI12
aI14
a.(lp0
I2
aI5
aI5
aI5
a.(lp0
I2
aI5
aI30
aI30
a.(lp0
I2
aI2
aI5
aI5
a.(lp0
I7
aI12
aI14
aI14
a.(lp0
I8
aI5
aI5
aI5
a.(lp0
I7
aI30
aI30
aI30
a.(lp0
I6
aI9
aI6
aI6
a.(lp0
I12
aI12
aI12
aI14
a.(lp0
I5
aI5
aI5
aI5
a.(lp0
I2
aI30
aI30
aI30
a.(lp0
I7
aI10
aI7
aI7
a.(lp0
I2
aI14
aI14
aI14
a.(lp0
I2
aI5
aI5
aI5
a.(lp0
I2
aI4
aI30
aI30
a.(lp0
I5
aI5
aI8
aI7
a.(lp0
I2
aI14
aI14
aI14
a.(lp0
I2
aI5
aI5
aI5
a.(lp0
I3
aI30
aI30
aI30
a.(lp0
I2
aI10
aI9
aI9
a.(lp0
I3
aI5
aI12
aI14
a.(lp0
I2
aI3
aI5
aI5
a.(lp0
I3
aI13
aI30
aI30
a.(lp0
I2
aI6
aI11
aI11
a.(lp0
I2
aI4
aI14
aI14
a.(lp0
I2
aI3
aI5
aI5
a.(lp0
I3
aI5
aI7
aI15
a.(lp0
I2
aI2
aI3
aI6
a.