(lp0
I29
aI51
aI90
aI118
aI142
aI159
aI174
aI186
aI193
aI200
aI209
aI214
aI219
aI225
aI229
aI231
aI236
aI238
aI241
aI242
aI245
aI248
aI251
aI254
aI256
aI257
aI258
aI259
aI260
aI262
a.(lp0
I34
aI53
aI93
aI108
aI130
aI130
aI139
aI136
aI126
aI126
aI127
aI117
aI118
aI120
aI119
aI113
aI108
aI99
aI99
aI92
aI88
aI84
aI79
aI85
aI83
aI76
aI68
aI62
aI56
aI51
a.(lp0
I72
aI165
aI278
aI379
aI430
aI464
aI482
aI491
aI500
aI500
aI500
aI500
aI500
aI500
aI500
aI500
aI500
aI500
aI500
aI500
aI500
aI500
aI500
aI500
aI500
aI500
aI500
aI500
aI500
aI500
a.(lp0
I22
aI45
aI48
aI44
aI37
aI23
aI21
aI18
aI13
aI12
aI12
aI11
aI10
aI10
aI10
aI9
aI9
aI9
aI8
aI8
aI8
aI8
aI8
aI8
aI8
aI7
aI7
aI7
aI7
aI7
a.(lp0
I500
aI500
aI500
aI500
aI500
aI500
aI500
aI500
aI500
aI500
aI500
aI500
aI500
aI500
aI500
aI500
aI500
aI500
aI500
aI500
aI500
aI500
aI500
aI500
aI500
aI500
aI500
aI500
aI500
aI500
a.(lp0
I37
aI23
aI14
aI11
aI10
aI10
aI9
aI9
aI9
aI8
aI8
aI8
aI8
aI7
aI7
aI7
aI7
aI7
aI7
aI7
aI7
aI7
aI7
aI7
aI7
aI7
aI7
aI7
aI7
aI7
a.