(lp0
I7
aI9
aI18
aI61
aI68
aI78
aI84
aI88
aI100
aI100
aI100
aI100
aI100
aI100
aI100
a.(lp0
I5
aI7
aI10
aI15
aI15
aI17
aI14
aI15
aI14
aI13
aI12
aI12
aI11
aI11
aI10
a.(lp0
I17
aI20
aI58
aI86
aI100
aI100
aI100
aI100
aI100
aI100
aI100
aI100
aI100
aI100
aI100
a.(lp0
I6
aI7
aI9
aI10
aI7
aI7
aI6
aI6
aI5
aI5
aI5
aI5
aI5
aI5
aI5
a.(lp0
I16
aI33
aI46
aI96
aI100
aI100
aI100
aI100
aI100
aI100
aI100
aI100
aI100
aI100
aI100
a.(lp0
I4
aI5
aI8
aI7
aI6
aI5
aI5
aI5
aI5
aI4
aI4
aI4
aI4
aI4
aI4
a.(lp0
I12
aI100
aI100
aI100
aI100
aI100
aI100
aI100
aI100
aI100
aI100
aI100
aI100
aI100
aI100
a.(lp0
I9
aI15
aI13
aI13
aI12
aI12
aI12
aI11
aI10
aI10
aI10
aI10
aI9
aI9
aI8
a.