(lp0
ccopy_reg
_reconstructor
p1
(cnetworkx.classes.multidigraph
MultiDiGraph
p2
c__builtin__
object
p3
Ntp4
Rp5
(dp6
S'node'
p7
(dp8
I0
(dp9
sI1
(dp10
sI2
(dp11
sI3
(dp12
sI4
(dp13
sI5
(dp14
sI6
(dp15
sI7
(dp16
sI8
(dp17
sI9
(dp18
sI10
(dp19
sI11
(dp20
sI12
(dp21
sI13
(dp22
sI14
(dp23
sI15
(dp24
sI16
(dp25
sI17
(dp26
sI18
(dp27
sI19
(dp28
sI20
(dp29
sI21
(dp30
sI22
(dp31
sI23
(dp32
sI24
(dp33
sI25
(dp34
sI26
(dp35
sI27
(dp36
sI28
(dp37
sI29
(dp38
ssS'graph'
p39
(dp40
S'name'
p41
S'my BA graph, directed and muliple(30,2)'
p42
ssS'succ'
p43
(dp44
I0
(dp45
I1
(dp46
I0
(dp47
ssI3
(dp48
I0
(dp49
ssI4
(dp50
I0
(dp51
ssI10
(dp52
I0
(dp53
ssI12
(dp54
I0
(dp55
ssI19
(dp56
I0
(dp57
ssI22
(dp58
I0
(dp59
ssI25
(dp60
I0
(dp61
sssI1
(dp62
I0
(dp63
I0
(dp64
ssI2
(dp65
I0
(dp66
ssI9
(dp67
I0
(dp68
ssI13
(dp69
I0
(dp70
ssI21
(dp71
I0
(dp72
ssI26
(dp73
I0
(dp74
sssI2
(dp75
I0
(dp76
I0
(dp77
ssI8
(dp78
I0
(dp79
ssI10
(dp80
I0
(dp81
sssI3
(dp82
I0
(dp83
I0
(dp84
ssI2
(dp85
I0
(dp86
ssI4
(dp87
I0
(dp88
ssI6
(dp89
I0
(dp90
ssI7
(dp91
I0
(dp92
ssI16
(dp93
I0
(dp94
ssI18
(dp95
I0
(dp96
ssI29
(dp97
I0
(dp98
sssI4
(dp99
I3
(dp100
I0
(dp101
ssI5
(dp102
I0
(dp103
ssI7
(dp104
I0
(dp105
ssI11
(dp106
I0
(dp107
ssI14
(dp108
I0
(dp109
ssI19
(dp110
I0
(dp111
sssI5
(dp112
I3
(dp113
I0
(dp114
ssI23
(dp115
I0
(dp116
sssI6
(dp117
I28
(dp118
I0
(dp119
ssI3
(dp120
I0
(dp121
ssI4
(dp122
I0
(dp123
ssI13
(dp124
I0
(dp125
sssI7
(dp126
I4
(dp127
I0
(dp128
sssI8
(dp129
I0
(dp130
I0
(dp131
sssI9
(dp132
I1
(dp133
I0
(dp134
ssI4
(dp135
I0
(dp136
sssI10
(dp137
I17
(dp138
I0
(dp139
ssI2
(dp140
I0
(dp141
ssI20
(dp142
I0
(dp143
sssI11
(dp144
I25
(dp145
I0
(dp146
ssI10
(dp147
I0
(dp148
ssI15
(dp149
I0
(dp150
sssI12
(dp151
I0
(dp152
I0
(dp153
ssI4
(dp154
I0
(dp155
sssI13
(dp156
I6
(dp157
I0
(dp158
sssI14
(dp159
I3
(dp160
I0
(dp161
sssI15
(dp162
I16
(dp163
I0
(dp164
ssI11
(dp165
I0
(dp166
ssI22
(dp167
I0
(dp168
ssI6
(dp169
I0
(dp170
sssI16
(dp171
I24
(dp172
I0
(dp173
ssI27
(dp174
I0
(dp175
ssI15
(dp176
I0
(dp177
sssI17
(dp178
I0
(dp179
I0
(dp180
sssI18
(dp181
I3
(dp182
I0
(dp183
ssI28
(dp184
I0
(dp185
ssI6
(dp186
I0
(dp187
sssI19
(dp188
I4
(dp189
I0
(dp190
sssI20
(dp191
I9
(dp192
I0
(dp193
sssI21
(dp194
I1
(dp195
I0
(dp196
ssI15
(dp197
I0
(dp198
sssI22
(dp199
I15
(dp200
I0
(dp201
sssI23
(dp202
I8
(dp203
I0
(dp204
sssI24
(dp205
I16
(dp206
I0
(dp207
ssI0
(dp208
I0
(dp209
sssI25
(dp210
I11
(dp211
I0
(dp212
sssI26
(dp213
I9
(dp214
I0
(dp215
sssI27
(dp216
I16
(dp217
I0
(dp218
ssI14
(dp219
I0
(dp220
sssI28
(dp221
I6
(dp222
I0
(dp223
sssI29
(dp224
I24
(dp225
I0
(dp226
ssssS'edge'
p227
g44
sS'pred'
p228
(dp229
I0
(dp230
I1
g63
sI2
g76
sI3
g83
sI8
g130
sI12
g152
sI17
g179
sI24
g208
ssI1
(dp231
I0
g46
sI9
g133
sI21
g195
ssI2
(dp232
I1
g65
sI10
g140
sI3
g85
ssI3
(dp233
I0
g48
sI4
g100
sI5
g113
sI6
g120
sI14
g160
sI18
g182
ssI4
(dp234
I0
g50
sI3
g87
sI6
g122
sI7
g127
sI9
g135
sI12
g154
sI19
g189
ssI5
(dp235
I4
g102
ssI6
(dp236
I18
g186
sI3
g89
sI28
g222
sI13
g157
sI15
g169
ssI7
(dp237
I3
g91
sI4
g104
ssI8
(dp238
I2
g78
sI23
g203
ssI9
(dp239
I1
g67
sI26
g214
sI20
g192
ssI10
(dp240
I0
g52
sI2
g80
sI11
g147
ssI11
(dp241
I25
g211
sI4
g106
sI15
g165
ssI12
(dp242
I0
g54
ssI13
(dp243
I1
g69
sI6
g124
ssI14
(dp244
I27
g219
sI4
g108
ssI15
(dp245
I16
g176
sI11
g149
sI21
g197
sI22
g200
ssI16
(dp246
I24
g206
sI27
g217
sI3
g93
sI15
g163
ssI17
(dp247
I10
g138
ssI18
(dp248
I3
g95
ssI19
(dp249
I0
g56
sI4
g110
ssI20
(dp250
I10
g142
ssI21
(dp251
I1
g71
ssI22
(dp252
I0
g58
sI15
g167
ssI23
(dp253
I5
g115
ssI24
(dp254
I16
g172
sI29
g225
ssI25
(dp255
I0
g60
sI11
g145
ssI26
(dp256
I1
g73
ssI27
(dp257
I16
g174
ssI28
(dp258
I18
g184
sI6
g118
ssI29
(dp259
I3
g97
sssS'adj'
p260
g44
sbag1
(g2
g3
Ntp261
Rp262
(dp263
g7
(dp264
I0
(dp265
sI1
(dp266
sI2
(dp267
sI3
(dp268
sI4
(dp269
sI5
(dp270
sI6
(dp271
sI7
(dp272
sI8
(dp273
sI9
(dp274
sI10
(dp275
sI11
(dp276
sI12
(dp277
sI13
(dp278
sI14
(dp279
sI15
(dp280
sI16
(dp281
sI17
(dp282
sI18
(dp283
sI19
(dp284
sI20
(dp285
sI21
(dp286
sI22
(dp287
sI23
(dp288
sI24
(dp289
sI25
(dp290
sI26
(dp291
sI27
(dp292
sI28
(dp293
sI29
(dp294
ssg39
(dp295
g41
S'complete_graph(30)'
p296
ssg43
(dp297
I0
(dp298
I1
(dp299
I0
(dp300
ssI2
(dp301
I0
(dp302
ssI3
(dp303
I0
(dp304
ssI4
(dp305
I0
(dp306
ssI5
(dp307
I0
(dp308
ssI6
(dp309
I0
(dp310
ssI7
(dp311
I0
(dp312
ssI8
(dp313
I0
(dp314
ssI9
(dp315
I0
(dp316
ssI10
(dp317
I0
(dp318
ssI11
(dp319
I0
(dp320
ssI12
(dp321
I0
(dp322
ssI13
(dp323
I0
(dp324
ssI14
(dp325
I0
(dp326
ssI15
(dp327
I0
(dp328
ssI16
(dp329
I0
(dp330
ssI17
(dp331
I0
(dp332
ssI18
(dp333
I0
(dp334
ssI19
(dp335
I0
(dp336
ssI20
(dp337
I0
(dp338
ssI21
(dp339
I0
(dp340
ssI22
(dp341
I0
(dp342
ssI23
(dp343
I0
(dp344
ssI24
(dp345
I0
(dp346
ssI25
(dp347
I0
(dp348
ssI26
(dp349
I0
(dp350
ssI27
(dp351
I0
(dp352
ssI28
(dp353
I0
(dp354
ssI29
(dp355
I0
(dp356
sssI1
(dp357
I0
(dp358
I0
(dp359
ssI2
(dp360
I0
(dp361
ssI3
(dp362
I0
(dp363
ssI4
(dp364
I0
(dp365
ssI5
(dp366
I0
(dp367
ssI6
(dp368
I0
(dp369
ssI7
(dp370
I0
(dp371
ssI8
(dp372
I0
(dp373
ssI9
(dp374
I0
(dp375
ssI10
(dp376
I0
(dp377
ssI11
(dp378
I0
(dp379
ssI12
(dp380
I0
(dp381
ssI13
(dp382
I0
(dp383
ssI14
(dp384
I0
(dp385
ssI15
(dp386
I0
(dp387
ssI16
(dp388
I0
(dp389
ssI17
(dp390
I0
(dp391
ssI18
(dp392
I0
(dp393
ssI19
(dp394
I0
(dp395
ssI20
(dp396
I0
(dp397
ssI21
(dp398
I0
(dp399
ssI22
(dp400
I0
(dp401
ssI23
(dp402
I0
(dp403
ssI24
(dp404
I0
(dp405
ssI25
(dp406
I0
(dp407
ssI26
(dp408
I0
(dp409
ssI27
(dp410
I0
(dp411
ssI28
(dp412
I0
(dp413
ssI29
(dp414
I0
(dp415
sssI2
(dp416
I0
(dp417
I0
(dp418
ssI1
(dp419
I0
(dp420
ssI3
(dp421
I0
(dp422
ssI4
(dp423
I0
(dp424
ssI5
(dp425
I0
(dp426
ssI6
(dp427
I0
(dp428
ssI7
(dp429
I0
(dp430
ssI8
(dp431
I0
(dp432
ssI9
(dp433
I0
(dp434
ssI10
(dp435
I0
(dp436
ssI11
(dp437
I0
(dp438
ssI12
(dp439
I0
(dp440
ssI13
(dp441
I0
(dp442
ssI14
(dp443
I0
(dp444
ssI15
(dp445
I0
(dp446
ssI16
(dp447
I0
(dp448
ssI17
(dp449
I0
(dp450
ssI18
(dp451
I0
(dp452
ssI19
(dp453
I0
(dp454
ssI20
(dp455
I0
(dp456
ssI21
(dp457
I0
(dp458
ssI22
(dp459
I0
(dp460
ssI23
(dp461
I0
(dp462
ssI24
(dp463
I0
(dp464
ssI25
(dp465
I0
(dp466
ssI26
(dp467
I0
(dp468
ssI27
(dp469
I0
(dp470
ssI28
(dp471
I0
(dp472
ssI29
(dp473
I0
(dp474
sssI3
(dp475
I0
(dp476
I0
(dp477
ssI1
(dp478
I0
(dp479
ssI2
(dp480
I0
(dp481
ssI4
(dp482
I0
(dp483
ssI5
(dp484
I0
(dp485
ssI6
(dp486
I0
(dp487
ssI7
(dp488
I0
(dp489
ssI8
(dp490
I0
(dp491
ssI9
(dp492
I0
(dp493
ssI10
(dp494
I0
(dp495
ssI11
(dp496
I0
(dp497
ssI12
(dp498
I0
(dp499
ssI13
(dp500
I0
(dp501
ssI14
(dp502
I0
(dp503
ssI15
(dp504
I0
(dp505
ssI16
(dp506
I0
(dp507
ssI17
(dp508
I0
(dp509
ssI18
(dp510
I0
(dp511
ssI19
(dp512
I0
(dp513
ssI20
(dp514
I0
(dp515
ssI21
(dp516
I0
(dp517
ssI22
(dp518
I0
(dp519
ssI23
(dp520
I0
(dp521
ssI24
(dp522
I0
(dp523
ssI25
(dp524
I0
(dp525
ssI26
(dp526
I0
(dp527
ssI27
(dp528
I0
(dp529
ssI28
(dp530
I0
(dp531
ssI29
(dp532
I0
(dp533
sssI4
(dp534
I0
(dp535
I0
(dp536
ssI1
(dp537
I0
(dp538
ssI2
(dp539
I0
(dp540
ssI3
(dp541
I0
(dp542
ssI5
(dp543
I0
(dp544
ssI6
(dp545
I0
(dp546
ssI7
(dp547
I0
(dp548
ssI8
(dp549
I0
(dp550
ssI9
(dp551
I0
(dp552
ssI10
(dp553
I0
(dp554
ssI11
(dp555
I0
(dp556
ssI12
(dp557
I0
(dp558
ssI13
(dp559
I0
(dp560
ssI14
(dp561
I0
(dp562
ssI15
(dp563
I0
(dp564
ssI16
(dp565
I0
(dp566
ssI17
(dp567
I0
(dp568
ssI18
(dp569
I0
(dp570
ssI19
(dp571
I0
(dp572
ssI20
(dp573
I0
(dp574
ssI21
(dp575
I0
(dp576
ssI22
(dp577
I0
(dp578
ssI23
(dp579
I0
(dp580
ssI24
(dp581
I0
(dp582
ssI25
(dp583
I0
(dp584
ssI26
(dp585
I0
(dp586
ssI27
(dp587
I0
(dp588
ssI28
(dp589
I0
(dp590
ssI29
(dp591
I0
(dp592
sssI5
(dp593
I0
(dp594
I0
(dp595
ssI1
(dp596
I0
(dp597
ssI2
(dp598
I0
(dp599
ssI3
(dp600
I0
(dp601
ssI4
(dp602
I0
(dp603
ssI6
(dp604
I0
(dp605
ssI7
(dp606
I0
(dp607
ssI8
(dp608
I0
(dp609
ssI9
(dp610
I0
(dp611
ssI10
(dp612
I0
(dp613
ssI11
(dp614
I0
(dp615
ssI12
(dp616
I0
(dp617
ssI13
(dp618
I0
(dp619
ssI14
(dp620
I0
(dp621
ssI15
(dp622
I0
(dp623
ssI16
(dp624
I0
(dp625
ssI17
(dp626
I0
(dp627
ssI18
(dp628
I0
(dp629
ssI19
(dp630
I0
(dp631
ssI20
(dp632
I0
(dp633
ssI21
(dp634
I0
(dp635
ssI22
(dp636
I0
(dp637
ssI23
(dp638
I0
(dp639
ssI24
(dp640
I0
(dp641
ssI25
(dp642
I0
(dp643
ssI26
(dp644
I0
(dp645
ssI27
(dp646
I0
(dp647
ssI28
(dp648
I0
(dp649
ssI29
(dp650
I0
(dp651
sssI6
(dp652
I0
(dp653
I0
(dp654
ssI1
(dp655
I0
(dp656
ssI2
(dp657
I0
(dp658
ssI3
(dp659
I0
(dp660
ssI4
(dp661
I0
(dp662
ssI5
(dp663
I0
(dp664
ssI7
(dp665
I0
(dp666
ssI8
(dp667
I0
(dp668
ssI9
(dp669
I0
(dp670
ssI10
(dp671
I0
(dp672
ssI11
(dp673
I0
(dp674
ssI12
(dp675
I0
(dp676
ssI13
(dp677
I0
(dp678
ssI14
(dp679
I0
(dp680
ssI15
(dp681
I0
(dp682
ssI16
(dp683
I0
(dp684
ssI17
(dp685
I0
(dp686
ssI18
(dp687
I0
(dp688
ssI19
(dp689
I0
(dp690
ssI20
(dp691
I0
(dp692
ssI21
(dp693
I0
(dp694
ssI22
(dp695
I0
(dp696
ssI23
(dp697
I0
(dp698
ssI24
(dp699
I0
(dp700
ssI25
(dp701
I0
(dp702
ssI26
(dp703
I0
(dp704
ssI27
(dp705
I0
(dp706
ssI28
(dp707
I0
(dp708
ssI29
(dp709
I0
(dp710
sssI7
(dp711
I0
(dp712
I0
(dp713
ssI1
(dp714
I0
(dp715
ssI2
(dp716
I0
(dp717
ssI3
(dp718
I0
(dp719
ssI4
(dp720
I0
(dp721
ssI5
(dp722
I0
(dp723
ssI6
(dp724
I0
(dp725
ssI8
(dp726
I0
(dp727
ssI9
(dp728
I0
(dp729
ssI10
(dp730
I0
(dp731
ssI11
(dp732
I0
(dp733
ssI12
(dp734
I0
(dp735
ssI13
(dp736
I0
(dp737
ssI14
(dp738
I0
(dp739
ssI15
(dp740
I0
(dp741
ssI16
(dp742
I0
(dp743
ssI17
(dp744
I0
(dp745
ssI18
(dp746
I0
(dp747
ssI19
(dp748
I0
(dp749
ssI20
(dp750
I0
(dp751
ssI21
(dp752
I0
(dp753
ssI22
(dp754
I0
(dp755
ssI23
(dp756
I0
(dp757
ssI24
(dp758
I0
(dp759
ssI25
(dp760
I0
(dp761
ssI26
(dp762
I0
(dp763
ssI27
(dp764
I0
(dp765
ssI28
(dp766
I0
(dp767
ssI29
(dp768
I0
(dp769
sssI8
(dp770
I0
(dp771
I0
(dp772
ssI1
(dp773
I0
(dp774
ssI2
(dp775
I0
(dp776
ssI3
(dp777
I0
(dp778
ssI4
(dp779
I0
(dp780
ssI5
(dp781
I0
(dp782
ssI6
(dp783
I0
(dp784
ssI7
(dp785
I0
(dp786
ssI9
(dp787
I0
(dp788
ssI10
(dp789
I0
(dp790
ssI11
(dp791
I0
(dp792
ssI12
(dp793
I0
(dp794
ssI13
(dp795
I0
(dp796
ssI14
(dp797
I0
(dp798
ssI15
(dp799
I0
(dp800
ssI16
(dp801
I0
(dp802
ssI17
(dp803
I0
(dp804
ssI18
(dp805
I0
(dp806
ssI19
(dp807
I0
(dp808
ssI20
(dp809
I0
(dp810
ssI21
(dp811
I0
(dp812
ssI22
(dp813
I0
(dp814
ssI23
(dp815
I0
(dp816
ssI24
(dp817
I0
(dp818
ssI25
(dp819
I0
(dp820
ssI26
(dp821
I0
(dp822
ssI27
(dp823
I0
(dp824
ssI28
(dp825
I0
(dp826
ssI29
(dp827
I0
(dp828
sssI9
(dp829
I0
(dp830
I0
(dp831
ssI1
(dp832
I0
(dp833
ssI2
(dp834
I0
(dp835
ssI3
(dp836
I0
(dp837
ssI4
(dp838
I0
(dp839
ssI5
(dp840
I0
(dp841
ssI6
(dp842
I0
(dp843
ssI7
(dp844
I0
(dp845
ssI8
(dp846
I0
(dp847
ssI10
(dp848
I0
(dp849
ssI11
(dp850
I0
(dp851
ssI12
(dp852
I0
(dp853
ssI13
(dp854
I0
(dp855
ssI14
(dp856
I0
(dp857
ssI15
(dp858
I0
(dp859
ssI16
(dp860
I0
(dp861
ssI17
(dp862
I0
(dp863
ssI18
(dp864
I0
(dp865
ssI19
(dp866
I0
(dp867
ssI20
(dp868
I0
(dp869
ssI21
(dp870
I0
(dp871
ssI22
(dp872
I0
(dp873
ssI23
(dp874
I0
(dp875
ssI24
(dp876
I0
(dp877
ssI25
(dp878
I0
(dp879
ssI26
(dp880
I0
(dp881
ssI27
(dp882
I0
(dp883
ssI28
(dp884
I0
(dp885
ssI29
(dp886
I0
(dp887
sssI10
(dp888
I0
(dp889
I0
(dp890
ssI1
(dp891
I0
(dp892
ssI2
(dp893
I0
(dp894
ssI3
(dp895
I0
(dp896
ssI4
(dp897
I0
(dp898
ssI5
(dp899
I0
(dp900
ssI6
(dp901
I0
(dp902
ssI7
(dp903
I0
(dp904
ssI8
(dp905
I0
(dp906
ssI9
(dp907
I0
(dp908
ssI11
(dp909
I0
(dp910
ssI12
(dp911
I0
(dp912
ssI13
(dp913
I0
(dp914
ssI14
(dp915
I0
(dp916
ssI15
(dp917
I0
(dp918
ssI16
(dp919
I0
(dp920
ssI17
(dp921
I0
(dp922
ssI18
(dp923
I0
(dp924
ssI19
(dp925
I0
(dp926
ssI20
(dp927
I0
(dp928
ssI21
(dp929
I0
(dp930
ssI22
(dp931
I0
(dp932
ssI23
(dp933
I0
(dp934
ssI24
(dp935
I0
(dp936
ssI25
(dp937
I0
(dp938
ssI26
(dp939
I0
(dp940
ssI27
(dp941
I0
(dp942
ssI28
(dp943
I0
(dp944
ssI29
(dp945
I0
(dp946
sssI11
(dp947
I0
(dp948
I0
(dp949
ssI1
(dp950
I0
(dp951
ssI2
(dp952
I0
(dp953
ssI3
(dp954
I0
(dp955
ssI4
(dp956
I0
(dp957
ssI5
(dp958
I0
(dp959
ssI6
(dp960
I0
(dp961
ssI7
(dp962
I0
(dp963
ssI8
(dp964
I0
(dp965
ssI9
(dp966
I0
(dp967
ssI10
(dp968
I0
(dp969
ssI12
(dp970
I0
(dp971
ssI13
(dp972
I0
(dp973
ssI14
(dp974
I0
(dp975
ssI15
(dp976
I0
(dp977
ssI16
(dp978
I0
(dp979
ssI17
(dp980
I0
(dp981
ssI18
(dp982
I0
(dp983
ssI19
(dp984
I0
(dp985
ssI20
(dp986
I0
(dp987
ssI21
(dp988
I0
(dp989
ssI22
(dp990
I0
(dp991
ssI23
(dp992
I0
(dp993
ssI24
(dp994
I0
(dp995
ssI25
(dp996
I0
(dp997
ssI26
(dp998
I0
(dp999
ssI27
(dp1000
I0
(dp1001
ssI28
(dp1002
I0
(dp1003
ssI29
(dp1004
I0
(dp1005
sssI12
(dp1006
I0
(dp1007
I0
(dp1008
ssI1
(dp1009
I0
(dp1010
ssI2
(dp1011
I0
(dp1012
ssI3
(dp1013
I0
(dp1014
ssI4
(dp1015
I0
(dp1016
ssI5
(dp1017
I0
(dp1018
ssI6
(dp1019
I0
(dp1020
ssI7
(dp1021
I0
(dp1022
ssI8
(dp1023
I0
(dp1024
ssI9
(dp1025
I0
(dp1026
ssI10
(dp1027
I0
(dp1028
ssI11
(dp1029
I0
(dp1030
ssI13
(dp1031
I0
(dp1032
ssI14
(dp1033
I0
(dp1034
ssI15
(dp1035
I0
(dp1036
ssI16
(dp1037
I0
(dp1038
ssI17
(dp1039
I0
(dp1040
ssI18
(dp1041
I0
(dp1042
ssI19
(dp1043
I0
(dp1044
ssI20
(dp1045
I0
(dp1046
ssI21
(dp1047
I0
(dp1048
ssI22
(dp1049
I0
(dp1050
ssI23
(dp1051
I0
(dp1052
ssI24
(dp1053
I0
(dp1054
ssI25
(dp1055
I0
(dp1056
ssI26
(dp1057
I0
(dp1058
ssI27
(dp1059
I0
(dp1060
ssI28
(dp1061
I0
(dp1062
ssI29
(dp1063
I0
(dp1064
sssI13
(dp1065
I0
(dp1066
I0
(dp1067
ssI1
(dp1068
I0
(dp1069
ssI2
(dp1070
I0
(dp1071
ssI3
(dp1072
I0
(dp1073
ssI4
(dp1074
I0
(dp1075
ssI5
(dp1076
I0
(dp1077
ssI6
(dp1078
I0
(dp1079
ssI7
(dp1080
I0
(dp1081
ssI8
(dp1082
I0
(dp1083
ssI9
(dp1084
I0
(dp1085
ssI10
(dp1086
I0
(dp1087
ssI11
(dp1088
I0
(dp1089
ssI12
(dp1090
I0
(dp1091
ssI14
(dp1092
I0
(dp1093
ssI15
(dp1094
I0
(dp1095
ssI16
(dp1096
I0
(dp1097
ssI17
(dp1098
I0
(dp1099
ssI18
(dp1100
I0
(dp1101
ssI19
(dp1102
I0
(dp1103
ssI20
(dp1104
I0
(dp1105
ssI21
(dp1106
I0
(dp1107
ssI22
(dp1108
I0
(dp1109
ssI23
(dp1110
I0
(dp1111
ssI24
(dp1112
I0
(dp1113
ssI25
(dp1114
I0
(dp1115
ssI26
(dp1116
I0
(dp1117
ssI27
(dp1118
I0
(dp1119
ssI28
(dp1120
I0
(dp1121
ssI29
(dp1122
I0
(dp1123
sssI14
(dp1124
I0
(dp1125
I0
(dp1126
ssI1
(dp1127
I0
(dp1128
ssI2
(dp1129
I0
(dp1130
ssI3
(dp1131
I0
(dp1132
ssI4
(dp1133
I0
(dp1134
ssI5
(dp1135
I0
(dp1136
ssI6
(dp1137
I0
(dp1138
ssI7
(dp1139
I0
(dp1140
ssI8
(dp1141
I0
(dp1142
ssI9
(dp1143
I0
(dp1144
ssI10
(dp1145
I0
(dp1146
ssI11
(dp1147
I0
(dp1148
ssI12
(dp1149
I0
(dp1150
ssI13
(dp1151
I0
(dp1152
ssI15
(dp1153
I0
(dp1154
ssI16
(dp1155
I0
(dp1156
ssI17
(dp1157
I0
(dp1158
ssI18
(dp1159
I0
(dp1160
ssI19
(dp1161
I0
(dp1162
ssI20
(dp1163
I0
(dp1164
ssI21
(dp1165
I0
(dp1166
ssI22
(dp1167
I0
(dp1168
ssI23
(dp1169
I0
(dp1170
ssI24
(dp1171
I0
(dp1172
ssI25
(dp1173
I0
(dp1174
ssI26
(dp1175
I0
(dp1176
ssI27
(dp1177
I0
(dp1178
ssI28
(dp1179
I0
(dp1180
ssI29
(dp1181
I0
(dp1182
sssI15
(dp1183
I0
(dp1184
I0
(dp1185
ssI1
(dp1186
I0
(dp1187
ssI2
(dp1188
I0
(dp1189
ssI3
(dp1190
I0
(dp1191
ssI4
(dp1192
I0
(dp1193
ssI5
(dp1194
I0
(dp1195
ssI6
(dp1196
I0
(dp1197
ssI7
(dp1198
I0
(dp1199
ssI8
(dp1200
I0
(dp1201
ssI9
(dp1202
I0
(dp1203
ssI10
(dp1204
I0
(dp1205
ssI11
(dp1206
I0
(dp1207
ssI12
(dp1208
I0
(dp1209
ssI13
(dp1210
I0
(dp1211
ssI14
(dp1212
I0
(dp1213
ssI16
(dp1214
I0
(dp1215
ssI17
(dp1216
I0
(dp1217
ssI18
(dp1218
I0
(dp1219
ssI19
(dp1220
I0
(dp1221
ssI20
(dp1222
I0
(dp1223
ssI21
(dp1224
I0
(dp1225
ssI22
(dp1226
I0
(dp1227
ssI23
(dp1228
I0
(dp1229
ssI24
(dp1230
I0
(dp1231
ssI25
(dp1232
I0
(dp1233
ssI26
(dp1234
I0
(dp1235
ssI27
(dp1236
I0
(dp1237
ssI28
(dp1238
I0
(dp1239
ssI29
(dp1240
I0
(dp1241
sssI16
(dp1242
I0
(dp1243
I0
(dp1244
ssI1
(dp1245
I0
(dp1246
ssI2
(dp1247
I0
(dp1248
ssI3
(dp1249
I0
(dp1250
ssI4
(dp1251
I0
(dp1252
ssI5
(dp1253
I0
(dp1254
ssI6
(dp1255
I0
(dp1256
ssI7
(dp1257
I0
(dp1258
ssI8
(dp1259
I0
(dp1260
ssI9
(dp1261
I0
(dp1262
ssI10
(dp1263
I0
(dp1264
ssI11
(dp1265
I0
(dp1266
ssI12
(dp1267
I0
(dp1268
ssI13
(dp1269
I0
(dp1270
ssI14
(dp1271
I0
(dp1272
ssI15
(dp1273
I0
(dp1274
ssI17
(dp1275
I0
(dp1276
ssI18
(dp1277
I0
(dp1278
ssI19
(dp1279
I0
(dp1280
ssI20
(dp1281
I0
(dp1282
ssI21
(dp1283
I0
(dp1284
ssI22
(dp1285
I0
(dp1286
ssI23
(dp1287
I0
(dp1288
ssI24
(dp1289
I0
(dp1290
ssI25
(dp1291
I0
(dp1292
ssI26
(dp1293
I0
(dp1294
ssI27
(dp1295
I0
(dp1296
ssI28
(dp1297
I0
(dp1298
ssI29
(dp1299
I0
(dp1300
sssI17
(dp1301
I0
(dp1302
I0
(dp1303
ssI1
(dp1304
I0
(dp1305
ssI2
(dp1306
I0
(dp1307
ssI3
(dp1308
I0
(dp1309
ssI4
(dp1310
I0
(dp1311
ssI5
(dp1312
I0
(dp1313
ssI6
(dp1314
I0
(dp1315
ssI7
(dp1316
I0
(dp1317
ssI8
(dp1318
I0
(dp1319
ssI9
(dp1320
I0
(dp1321
ssI10
(dp1322
I0
(dp1323
ssI11
(dp1324
I0
(dp1325
ssI12
(dp1326
I0
(dp1327
ssI13
(dp1328
I0
(dp1329
ssI14
(dp1330
I0
(dp1331
ssI15
(dp1332
I0
(dp1333
ssI16
(dp1334
I0
(dp1335
ssI18
(dp1336
I0
(dp1337
ssI19
(dp1338
I0
(dp1339
ssI20
(dp1340
I0
(dp1341
ssI21
(dp1342
I0
(dp1343
ssI22
(dp1344
I0
(dp1345
ssI23
(dp1346
I0
(dp1347
ssI24
(dp1348
I0
(dp1349
ssI25
(dp1350
I0
(dp1351
ssI26
(dp1352
I0
(dp1353
ssI27
(dp1354
I0
(dp1355
ssI28
(dp1356
I0
(dp1357
ssI29
(dp1358
I0
(dp1359
sssI18
(dp1360
I0
(dp1361
I0
(dp1362
ssI1
(dp1363
I0
(dp1364
ssI2
(dp1365
I0
(dp1366
ssI3
(dp1367
I0
(dp1368
ssI4
(dp1369
I0
(dp1370
ssI5
(dp1371
I0
(dp1372
ssI6
(dp1373
I0
(dp1374
ssI7
(dp1375
I0
(dp1376
ssI8
(dp1377
I0
(dp1378
ssI9
(dp1379
I0
(dp1380
ssI10
(dp1381
I0
(dp1382
ssI11
(dp1383
I0
(dp1384
ssI12
(dp1385
I0
(dp1386
ssI13
(dp1387
I0
(dp1388
ssI14
(dp1389
I0
(dp1390
ssI15
(dp1391
I0
(dp1392
ssI16
(dp1393
I0
(dp1394
ssI17
(dp1395
I0
(dp1396
ssI19
(dp1397
I0
(dp1398
ssI20
(dp1399
I0
(dp1400
ssI21
(dp1401
I0
(dp1402
ssI22
(dp1403
I0
(dp1404
ssI23
(dp1405
I0
(dp1406
ssI24
(dp1407
I0
(dp1408
ssI25
(dp1409
I0
(dp1410
ssI26
(dp1411
I0
(dp1412
ssI27
(dp1413
I0
(dp1414
ssI28
(dp1415
I0
(dp1416
ssI29
(dp1417
I0
(dp1418
sssI19
(dp1419
I0
(dp1420
I0
(dp1421
ssI1
(dp1422
I0
(dp1423
ssI2
(dp1424
I0
(dp1425
ssI3
(dp1426
I0
(dp1427
ssI4
(dp1428
I0
(dp1429
ssI5
(dp1430
I0
(dp1431
ssI6
(dp1432
I0
(dp1433
ssI7
(dp1434
I0
(dp1435
ssI8
(dp1436
I0
(dp1437
ssI9
(dp1438
I0
(dp1439
ssI10
(dp1440
I0
(dp1441
ssI11
(dp1442
I0
(dp1443
ssI12
(dp1444
I0
(dp1445
ssI13
(dp1446
I0
(dp1447
ssI14
(dp1448
I0
(dp1449
ssI15
(dp1450
I0
(dp1451
ssI16
(dp1452
I0
(dp1453
ssI17
(dp1454
I0
(dp1455
ssI18
(dp1456
I0
(dp1457
ssI20
(dp1458
I0
(dp1459
ssI21
(dp1460
I0
(dp1461
ssI22
(dp1462
I0
(dp1463
ssI23
(dp1464
I0
(dp1465
ssI24
(dp1466
I0
(dp1467
ssI25
(dp1468
I0
(dp1469
ssI26
(dp1470
I0
(dp1471
ssI27
(dp1472
I0
(dp1473
ssI28
(dp1474
I0
(dp1475
ssI29
(dp1476
I0
(dp1477
sssI20
(dp1478
I0
(dp1479
I0
(dp1480
ssI1
(dp1481
I0
(dp1482
ssI2
(dp1483
I0
(dp1484
ssI3
(dp1485
I0
(dp1486
ssI4
(dp1487
I0
(dp1488
ssI5
(dp1489
I0
(dp1490
ssI6
(dp1491
I0
(dp1492
ssI7
(dp1493
I0
(dp1494
ssI8
(dp1495
I0
(dp1496
ssI9
(dp1497
I0
(dp1498
ssI10
(dp1499
I0
(dp1500
ssI11
(dp1501
I0
(dp1502
ssI12
(dp1503
I0
(dp1504
ssI13
(dp1505
I0
(dp1506
ssI14
(dp1507
I0
(dp1508
ssI15
(dp1509
I0
(dp1510
ssI16
(dp1511
I0
(dp1512
ssI17
(dp1513
I0
(dp1514
ssI18
(dp1515
I0
(dp1516
ssI19
(dp1517
I0
(dp1518
ssI21
(dp1519
I0
(dp1520
ssI22
(dp1521
I0
(dp1522
ssI23
(dp1523
I0
(dp1524
ssI24
(dp1525
I0
(dp1526
ssI25
(dp1527
I0
(dp1528
ssI26
(dp1529
I0
(dp1530
ssI27
(dp1531
I0
(dp1532
ssI28
(dp1533
I0
(dp1534
ssI29
(dp1535
I0
(dp1536
sssI21
(dp1537
I0
(dp1538
I0
(dp1539
ssI1
(dp1540
I0
(dp1541
ssI2
(dp1542
I0
(dp1543
ssI3
(dp1544
I0
(dp1545
ssI4
(dp1546
I0
(dp1547
ssI5
(dp1548
I0
(dp1549
ssI6
(dp1550
I0
(dp1551
ssI7
(dp1552
I0
(dp1553
ssI8
(dp1554
I0
(dp1555
ssI9
(dp1556
I0
(dp1557
ssI10
(dp1558
I0
(dp1559
ssI11
(dp1560
I0
(dp1561
ssI12
(dp1562
I0
(dp1563
ssI13
(dp1564
I0
(dp1565
ssI14
(dp1566
I0
(dp1567
ssI15
(dp1568
I0
(dp1569
ssI16
(dp1570
I0
(dp1571
ssI17
(dp1572
I0
(dp1573
ssI18
(dp1574
I0
(dp1575
ssI19
(dp1576
I0
(dp1577
ssI20
(dp1578
I0
(dp1579
ssI22
(dp1580
I0
(dp1581
ssI23
(dp1582
I0
(dp1583
ssI24
(dp1584
I0
(dp1585
ssI25
(dp1586
I0
(dp1587
ssI26
(dp1588
I0
(dp1589
ssI27
(dp1590
I0
(dp1591
ssI28
(dp1592
I0
(dp1593
ssI29
(dp1594
I0
(dp1595
sssI22
(dp1596
I0
(dp1597
I0
(dp1598
ssI1
(dp1599
I0
(dp1600
ssI2
(dp1601
I0
(dp1602
ssI3
(dp1603
I0
(dp1604
ssI4
(dp1605
I0
(dp1606
ssI5
(dp1607
I0
(dp1608
ssI6
(dp1609
I0
(dp1610
ssI7
(dp1611
I0
(dp1612
ssI8
(dp1613
I0
(dp1614
ssI9
(dp1615
I0
(dp1616
ssI10
(dp1617
I0
(dp1618
ssI11
(dp1619
I0
(dp1620
ssI12
(dp1621
I0
(dp1622
ssI13
(dp1623
I0
(dp1624
ssI14
(dp1625
I0
(dp1626
ssI15
(dp1627
I0
(dp1628
ssI16
(dp1629
I0
(dp1630
ssI17
(dp1631
I0
(dp1632
ssI18
(dp1633
I0
(dp1634
ssI19
(dp1635
I0
(dp1636
ssI20
(dp1637
I0
(dp1638
ssI21
(dp1639
I0
(dp1640
ssI23
(dp1641
I0
(dp1642
ssI24
(dp1643
I0
(dp1644
ssI25
(dp1645
I0
(dp1646
ssI26
(dp1647
I0
(dp1648
ssI27
(dp1649
I0
(dp1650
ssI28
(dp1651
I0
(dp1652
ssI29
(dp1653
I0
(dp1654
sssI23
(dp1655
I0
(dp1656
I0
(dp1657
ssI1
(dp1658
I0
(dp1659
ssI2
(dp1660
I0
(dp1661
ssI3
(dp1662
I0
(dp1663
ssI4
(dp1664
I0
(dp1665
ssI5
(dp1666
I0
(dp1667
ssI6
(dp1668
I0
(dp1669
ssI7
(dp1670
I0
(dp1671
ssI8
(dp1672
I0
(dp1673
ssI9
(dp1674
I0
(dp1675
ssI10
(dp1676
I0
(dp1677
ssI11
(dp1678
I0
(dp1679
ssI12
(dp1680
I0
(dp1681
ssI13
(dp1682
I0
(dp1683
ssI14
(dp1684
I0
(dp1685
ssI15
(dp1686
I0
(dp1687
ssI16
(dp1688
I0
(dp1689
ssI17
(dp1690
I0
(dp1691
ssI18
(dp1692
I0
(dp1693
ssI19
(dp1694
I0
(dp1695
ssI20
(dp1696
I0
(dp1697
ssI21
(dp1698
I0
(dp1699
ssI22
(dp1700
I0
(dp1701
ssI24
(dp1702
I0
(dp1703
ssI25
(dp1704
I0
(dp1705
ssI26
(dp1706
I0
(dp1707
ssI27
(dp1708
I0
(dp1709
ssI28
(dp1710
I0
(dp1711
ssI29
(dp1712
I0
(dp1713
sssI24
(dp1714
I0
(dp1715
I0
(dp1716
ssI1
(dp1717
I0
(dp1718
ssI2
(dp1719
I0
(dp1720
ssI3
(dp1721
I0
(dp1722
ssI4
(dp1723
I0
(dp1724
ssI5
(dp1725
I0
(dp1726
ssI6
(dp1727
I0
(dp1728
ssI7
(dp1729
I0
(dp1730
ssI8
(dp1731
I0
(dp1732
ssI9
(dp1733
I0
(dp1734
ssI10
(dp1735
I0
(dp1736
ssI11
(dp1737
I0
(dp1738
ssI12
(dp1739
I0
(dp1740
ssI13
(dp1741
I0
(dp1742
ssI14
(dp1743
I0
(dp1744
ssI15
(dp1745
I0
(dp1746
ssI16
(dp1747
I0
(dp1748
ssI17
(dp1749
I0
(dp1750
ssI18
(dp1751
I0
(dp1752
ssI19
(dp1753
I0
(dp1754
ssI20
(dp1755
I0
(dp1756
ssI21
(dp1757
I0
(dp1758
ssI22
(dp1759
I0
(dp1760
ssI23
(dp1761
I0
(dp1762
ssI25
(dp1763
I0
(dp1764
ssI26
(dp1765
I0
(dp1766
ssI27
(dp1767
I0
(dp1768
ssI28
(dp1769
I0
(dp1770
ssI29
(dp1771
I0
(dp1772
sssI25
(dp1773
I0
(dp1774
I0
(dp1775
ssI1
(dp1776
I0
(dp1777
ssI2
(dp1778
I0
(dp1779
ssI3
(dp1780
I0
(dp1781
ssI4
(dp1782
I0
(dp1783
ssI5
(dp1784
I0
(dp1785
ssI6
(dp1786
I0
(dp1787
ssI7
(dp1788
I0
(dp1789
ssI8
(dp1790
I0
(dp1791
ssI9
(dp1792
I0
(dp1793
ssI10
(dp1794
I0
(dp1795
ssI11
(dp1796
I0
(dp1797
ssI12
(dp1798
I0
(dp1799
ssI13
(dp1800
I0
(dp1801
ssI14
(dp1802
I0
(dp1803
ssI15
(dp1804
I0
(dp1805
ssI16
(dp1806
I0
(dp1807
ssI17
(dp1808
I0
(dp1809
ssI18
(dp1810
I0
(dp1811
ssI19
(dp1812
I0
(dp1813
ssI20
(dp1814
I0
(dp1815
ssI21
(dp1816
I0
(dp1817
ssI22
(dp1818
I0
(dp1819
ssI23
(dp1820
I0
(dp1821
ssI24
(dp1822
I0
(dp1823
ssI26
(dp1824
I0
(dp1825
ssI27
(dp1826
I0
(dp1827
ssI28
(dp1828
I0
(dp1829
ssI29
(dp1830
I0
(dp1831
sssI26
(dp1832
I0
(dp1833
I0
(dp1834
ssI1
(dp1835
I0
(dp1836
ssI2
(dp1837
I0
(dp1838
ssI3
(dp1839
I0
(dp1840
ssI4
(dp1841
I0
(dp1842
ssI5
(dp1843
I0
(dp1844
ssI6
(dp1845
I0
(dp1846
ssI7
(dp1847
I0
(dp1848
ssI8
(dp1849
I0
(dp1850
ssI9
(dp1851
I0
(dp1852
ssI10
(dp1853
I0
(dp1854
ssI11
(dp1855
I0
(dp1856
ssI12
(dp1857
I0
(dp1858
ssI13
(dp1859
I0
(dp1860
ssI14
(dp1861
I0
(dp1862
ssI15
(dp1863
I0
(dp1864
ssI16
(dp1865
I0
(dp1866
ssI17
(dp1867
I0
(dp1868
ssI18
(dp1869
I0
(dp1870
ssI19
(dp1871
I0
(dp1872
ssI20
(dp1873
I0
(dp1874
ssI21
(dp1875
I0
(dp1876
ssI22
(dp1877
I0
(dp1878
ssI23
(dp1879
I0
(dp1880
ssI24
(dp1881
I0
(dp1882
ssI25
(dp1883
I0
(dp1884
ssI27
(dp1885
I0
(dp1886
ssI28
(dp1887
I0
(dp1888
ssI29
(dp1889
I0
(dp1890
sssI27
(dp1891
I0
(dp1892
I0
(dp1893
ssI1
(dp1894
I0
(dp1895
ssI2
(dp1896
I0
(dp1897
ssI3
(dp1898
I0
(dp1899
ssI4
(dp1900
I0
(dp1901
ssI5
(dp1902
I0
(dp1903
ssI6
(dp1904
I0
(dp1905
ssI7
(dp1906
I0
(dp1907
ssI8
(dp1908
I0
(dp1909
ssI9
(dp1910
I0
(dp1911
ssI10
(dp1912
I0
(dp1913
ssI11
(dp1914
I0
(dp1915
ssI12
(dp1916
I0
(dp1917
ssI13
(dp1918
I0
(dp1919
ssI14
(dp1920
I0
(dp1921
ssI15
(dp1922
I0
(dp1923
ssI16
(dp1924
I0
(dp1925
ssI17
(dp1926
I0
(dp1927
ssI18
(dp1928
I0
(dp1929
ssI19
(dp1930
I0
(dp1931
ssI20
(dp1932
I0
(dp1933
ssI21
(dp1934
I0
(dp1935
ssI22
(dp1936
I0
(dp1937
ssI23
(dp1938
I0
(dp1939
ssI24
(dp1940
I0
(dp1941
ssI25
(dp1942
I0
(dp1943
ssI26
(dp1944
I0
(dp1945
ssI28
(dp1946
I0
(dp1947
ssI29
(dp1948
I0
(dp1949
sssI28
(dp1950
I0
(dp1951
I0
(dp1952
ssI1
(dp1953
I0
(dp1954
ssI2
(dp1955
I0
(dp1956
ssI3
(dp1957
I0
(dp1958
ssI4
(dp1959
I0
(dp1960
ssI5
(dp1961
I0
(dp1962
ssI6
(dp1963
I0
(dp1964
ssI7
(dp1965
I0
(dp1966
ssI8
(dp1967
I0
(dp1968
ssI9
(dp1969
I0
(dp1970
ssI10
(dp1971
I0
(dp1972
ssI11
(dp1973
I0
(dp1974
ssI12
(dp1975
I0
(dp1976
ssI13
(dp1977
I0
(dp1978
ssI14
(dp1979
I0
(dp1980
ssI15
(dp1981
I0
(dp1982
ssI16
(dp1983
I0
(dp1984
ssI17
(dp1985
I0
(dp1986
ssI18
(dp1987
I0
(dp1988
ssI19
(dp1989
I0
(dp1990
ssI20
(dp1991
I0
(dp1992
ssI21
(dp1993
I0
(dp1994
ssI22
(dp1995
I0
(dp1996
ssI23
(dp1997
I0
(dp1998
ssI24
(dp1999
I0
(dp2000
ssI25
(dp2001
I0
(dp2002
ssI26
(dp2003
I0
(dp2004
ssI27
(dp2005
I0
(dp2006
ssI29
(dp2007
I0
(dp2008
sssI29
(dp2009
I0
(dp2010
I0
(dp2011
ssI1
(dp2012
I0
(dp2013
ssI2
(dp2014
I0
(dp2015
ssI3
(dp2016
I0
(dp2017
ssI4
(dp2018
I0
(dp2019
ssI5
(dp2020
I0
(dp2021
ssI6
(dp2022
I0
(dp2023
ssI7
(dp2024
I0
(dp2025
ssI8
(dp2026
I0
(dp2027
ssI9
(dp2028
I0
(dp2029
ssI10
(dp2030
I0
(dp2031
ssI11
(dp2032
I0
(dp2033
ssI12
(dp2034
I0
(dp2035
ssI13
(dp2036
I0
(dp2037
ssI14
(dp2038
I0
(dp2039
ssI15
(dp2040
I0
(dp2041
ssI16
(dp2042
I0
(dp2043
ssI17
(dp2044
I0
(dp2045
ssI18
(dp2046
I0
(dp2047
ssI19
(dp2048
I0
(dp2049
ssI20
(dp2050
I0
(dp2051
ssI21
(dp2052
I0
(dp2053
ssI22
(dp2054
I0
(dp2055
ssI23
(dp2056
I0
(dp2057
ssI24
(dp2058
I0
(dp2059
ssI25
(dp2060
I0
(dp2061
ssI26
(dp2062
I0
(dp2063
ssI27
(dp2064
I0
(dp2065
ssI28
(dp2066
I0
(dp2067
ssssg227
g297
sg228
(dp2068
I0
(dp2069
I1
g358
sI2
g417
sI3
g476
sI4
g535
sI5
g594
sI6
g653
sI7
g712
sI8
g771
sI9
g830
sI10
g889
sI11
g948
sI12
g1007
sI13
g1066
sI14
g1125
sI15
g1184
sI16
g1243
sI17
g1302
sI18
g1361
sI19
g1420
sI20
g1479
sI21
g1538
sI22
g1597
sI23
g1656
sI24
g1715
sI25
g1774
sI26
g1833
sI27
g1892
sI28
g1951
sI29
g2010
ssI1
(dp2070
I0
g299
sI2
g419
sI3
g478
sI4
g537
sI5
g596
sI6
g655
sI7
g714
sI8
g773
sI9
g832
sI10
g891
sI11
g950
sI12
g1009
sI13
g1068
sI14
g1127
sI15
g1186
sI16
g1245
sI17
g1304
sI18
g1363
sI19
g1422
sI20
g1481
sI21
g1540
sI22
g1599
sI23
g1658
sI24
g1717
sI25
g1776
sI26
g1835
sI27
g1894
sI28
g1953
sI29
g2012
ssI2
(dp2071
I0
g301
sI1
g360
sI3
g480
sI4
g539
sI5
g598
sI6
g657
sI7
g716
sI8
g775
sI9
g834
sI10
g893
sI11
g952
sI12
g1011
sI13
g1070
sI14
g1129
sI15
g1188
sI16
g1247
sI17
g1306
sI18
g1365
sI19
g1424
sI20
g1483
sI21
g1542
sI22
g1601
sI23
g1660
sI24
g1719
sI25
g1778
sI26
g1837
sI27
g1896
sI28
g1955
sI29
g2014
ssI3
(dp2072
I0
g303
sI1
g362
sI2
g421
sI4
g541
sI5
g600
sI6
g659
sI7
g718
sI8
g777
sI9
g836
sI10
g895
sI11
g954
sI12
g1013
sI13
g1072
sI14
g1131
sI15
g1190
sI16
g1249
sI17
g1308
sI18
g1367
sI19
g1426
sI20
g1485
sI21
g1544
sI22
g1603
sI23
g1662
sI24
g1721
sI25
g1780
sI26
g1839
sI27
g1898
sI28
g1957
sI29
g2016
ssI4
(dp2073
I0
g305
sI1
g364
sI2
g423
sI3
g482
sI5
g602
sI6
g661
sI7
g720
sI8
g779
sI9
g838
sI10
g897
sI11
g956
sI12
g1015
sI13
g1074
sI14
g1133
sI15
g1192
sI16
g1251
sI17
g1310
sI18
g1369
sI19
g1428
sI20
g1487
sI21
g1546
sI22
g1605
sI23
g1664
sI24
g1723
sI25
g1782
sI26
g1841
sI27
g1900
sI28
g1959
sI29
g2018
ssI5
(dp2074
I0
g307
sI1
g366
sI2
g425
sI3
g484
sI4
g543
sI6
g663
sI7
g722
sI8
g781
sI9
g840
sI10
g899
sI11
g958
sI12
g1017
sI13
g1076
sI14
g1135
sI15
g1194
sI16
g1253
sI17
g1312
sI18
g1371
sI19
g1430
sI20
g1489
sI21
g1548
sI22
g1607
sI23
g1666
sI24
g1725
sI25
g1784
sI26
g1843
sI27
g1902
sI28
g1961
sI29
g2020
ssI6
(dp2075
I0
g309
sI1
g368
sI2
g427
sI3
g486
sI4
g545
sI5
g604
sI7
g724
sI8
g783
sI9
g842
sI10
g901
sI11
g960
sI12
g1019
sI13
g1078
sI14
g1137
sI15
g1196
sI16
g1255
sI17
g1314
sI18
g1373
sI19
g1432
sI20
g1491
sI21
g1550
sI22
g1609
sI23
g1668
sI24
g1727
sI25
g1786
sI26
g1845
sI27
g1904
sI28
g1963
sI29
g2022
ssI7
(dp2076
I0
g311
sI1
g370
sI2
g429
sI3
g488
sI4
g547
sI5
g606
sI6
g665
sI8
g785
sI9
g844
sI10
g903
sI11
g962
sI12
g1021
sI13
g1080
sI14
g1139
sI15
g1198
sI16
g1257
sI17
g1316
sI18
g1375
sI19
g1434
sI20
g1493
sI21
g1552
sI22
g1611
sI23
g1670
sI24
g1729
sI25
g1788
sI26
g1847
sI27
g1906
sI28
g1965
sI29
g2024
ssI8
(dp2077
I0
g313
sI1
g372
sI2
g431
sI3
g490
sI4
g549
sI5
g608
sI6
g667
sI7
g726
sI9
g846
sI10
g905
sI11
g964
sI12
g1023
sI13
g1082
sI14
g1141
sI15
g1200
sI16
g1259
sI17
g1318
sI18
g1377
sI19
g1436
sI20
g1495
sI21
g1554
sI22
g1613
sI23
g1672
sI24
g1731
sI25
g1790
sI26
g1849
sI27
g1908
sI28
g1967
sI29
g2026
ssI9
(dp2078
I0
g315
sI1
g374
sI2
g433
sI3
g492
sI4
g551
sI5
g610
sI6
g669
sI7
g728
sI8
g787
sI10
g907
sI11
g966
sI12
g1025
sI13
g1084
sI14
g1143
sI15
g1202
sI16
g1261
sI17
g1320
sI18
g1379
sI19
g1438
sI20
g1497
sI21
g1556
sI22
g1615
sI23
g1674
sI24
g1733
sI25
g1792
sI26
g1851
sI27
g1910
sI28
g1969
sI29
g2028
ssI10
(dp2079
I0
g317
sI1
g376
sI2
g435
sI3
g494
sI4
g553
sI5
g612
sI6
g671
sI7
g730
sI8
g789
sI9
g848
sI11
g968
sI12
g1027
sI13
g1086
sI14
g1145
sI15
g1204
sI16
g1263
sI17
g1322
sI18
g1381
sI19
g1440
sI20
g1499
sI21
g1558
sI22
g1617
sI23
g1676
sI24
g1735
sI25
g1794
sI26
g1853
sI27
g1912
sI28
g1971
sI29
g2030
ssI11
(dp2080
I0
g319
sI1
g378
sI2
g437
sI3
g496
sI4
g555
sI5
g614
sI6
g673
sI7
g732
sI8
g791
sI9
g850
sI10
g909
sI12
g1029
sI13
g1088
sI14
g1147
sI15
g1206
sI16
g1265
sI17
g1324
sI18
g1383
sI19
g1442
sI20
g1501
sI21
g1560
sI22
g1619
sI23
g1678
sI24
g1737
sI25
g1796
sI26
g1855
sI27
g1914
sI28
g1973
sI29
g2032
ssI12
(dp2081
I0
g321
sI1
g380
sI2
g439
sI3
g498
sI4
g557
sI5
g616
sI6
g675
sI7
g734
sI8
g793
sI9
g852
sI10
g911
sI11
g970
sI13
g1090
sI14
g1149
sI15
g1208
sI16
g1267
sI17
g1326
sI18
g1385
sI19
g1444
sI20
g1503
sI21
g1562
sI22
g1621
sI23
g1680
sI24
g1739
sI25
g1798
sI26
g1857
sI27
g1916
sI28
g1975
sI29
g2034
ssI13
(dp2082
I0
g323
sI1
g382
sI2
g441
sI3
g500
sI4
g559
sI5
g618
sI6
g677
sI7
g736
sI8
g795
sI9
g854
sI10
g913
sI11
g972
sI12
g1031
sI14
g1151
sI15
g1210
sI16
g1269
sI17
g1328
sI18
g1387
sI19
g1446
sI20
g1505
sI21
g1564
sI22
g1623
sI23
g1682
sI24
g1741
sI25
g1800
sI26
g1859
sI27
g1918
sI28
g1977
sI29
g2036
ssI14
(dp2083
I0
g325
sI1
g384
sI2
g443
sI3
g502
sI4
g561
sI5
g620
sI6
g679
sI7
g738
sI8
g797
sI9
g856
sI10
g915
sI11
g974
sI12
g1033
sI13
g1092
sI15
g1212
sI16
g1271
sI17
g1330
sI18
g1389
sI19
g1448
sI20
g1507
sI21
g1566
sI22
g1625
sI23
g1684
sI24
g1743
sI25
g1802
sI26
g1861
sI27
g1920
sI28
g1979
sI29
g2038
ssI15
(dp2084
I0
g327
sI1
g386
sI2
g445
sI3
g504
sI4
g563
sI5
g622
sI6
g681
sI7
g740
sI8
g799
sI9
g858
sI10
g917
sI11
g976
sI12
g1035
sI13
g1094
sI14
g1153
sI16
g1273
sI17
g1332
sI18
g1391
sI19
g1450
sI20
g1509
sI21
g1568
sI22
g1627
sI23
g1686
sI24
g1745
sI25
g1804
sI26
g1863
sI27
g1922
sI28
g1981
sI29
g2040
ssI16
(dp2085
I0
g329
sI1
g388
sI2
g447
sI3
g506
sI4
g565
sI5
g624
sI6
g683
sI7
g742
sI8
g801
sI9
g860
sI10
g919
sI11
g978
sI12
g1037
sI13
g1096
sI14
g1155
sI15
g1214
sI17
g1334
sI18
g1393
sI19
g1452
sI20
g1511
sI21
g1570
sI22
g1629
sI23
g1688
sI24
g1747
sI25
g1806
sI26
g1865
sI27
g1924
sI28
g1983
sI29
g2042
ssI17
(dp2086
I0
g331
sI1
g390
sI2
g449
sI3
g508
sI4
g567
sI5
g626
sI6
g685
sI7
g744
sI8
g803
sI9
g862
sI10
g921
sI11
g980
sI12
g1039
sI13
g1098
sI14
g1157
sI15
g1216
sI16
g1275
sI18
g1395
sI19
g1454
sI20
g1513
sI21
g1572
sI22
g1631
sI23
g1690
sI24
g1749
sI25
g1808
sI26
g1867
sI27
g1926
sI28
g1985
sI29
g2044
ssI18
(dp2087
I0
g333
sI1
g392
sI2
g451
sI3
g510
sI4
g569
sI5
g628
sI6
g687
sI7
g746
sI8
g805
sI9
g864
sI10
g923
sI11
g982
sI12
g1041
sI13
g1100
sI14
g1159
sI15
g1218
sI16
g1277
sI17
g1336
sI19
g1456
sI20
g1515
sI21
g1574
sI22
g1633
sI23
g1692
sI24
g1751
sI25
g1810
sI26
g1869
sI27
g1928
sI28
g1987
sI29
g2046
ssI19
(dp2088
I0
g335
sI1
g394
sI2
g453
sI3
g512
sI4
g571
sI5
g630
sI6
g689
sI7
g748
sI8
g807
sI9
g866
sI10
g925
sI11
g984
sI12
g1043
sI13
g1102
sI14
g1161
sI15
g1220
sI16
g1279
sI17
g1338
sI18
g1397
sI20
g1517
sI21
g1576
sI22
g1635
sI23
g1694
sI24
g1753
sI25
g1812
sI26
g1871
sI27
g1930
sI28
g1989
sI29
g2048
ssI20
(dp2089
I0
g337
sI1
g396
sI2
g455
sI3
g514
sI4
g573
sI5
g632
sI6
g691
sI7
g750
sI8
g809
sI9
g868
sI10
g927
sI11
g986
sI12
g1045
sI13
g1104
sI14
g1163
sI15
g1222
sI16
g1281
sI17
g1340
sI18
g1399
sI19
g1458
sI21
g1578
sI22
g1637
sI23
g1696
sI24
g1755
sI25
g1814
sI26
g1873
sI27
g1932
sI28
g1991
sI29
g2050
ssI21
(dp2090
I0
g339
sI1
g398
sI2
g457
sI3
g516
sI4
g575
sI5
g634
sI6
g693
sI7
g752
sI8
g811
sI9
g870
sI10
g929
sI11
g988
sI12
g1047
sI13
g1106
sI14
g1165
sI15
g1224
sI16
g1283
sI17
g1342
sI18
g1401
sI19
g1460
sI20
g1519
sI22
g1639
sI23
g1698
sI24
g1757
sI25
g1816
sI26
g1875
sI27
g1934
sI28
g1993
sI29
g2052
ssI22
(dp2091
I0
g341
sI1
g400
sI2
g459
sI3
g518
sI4
g577
sI5
g636
sI6
g695
sI7
g754
sI8
g813
sI9
g872
sI10
g931
sI11
g990
sI12
g1049
sI13
g1108
sI14
g1167
sI15
g1226
sI16
g1285
sI17
g1344
sI18
g1403
sI19
g1462
sI20
g1521
sI21
g1580
sI23
g1700
sI24
g1759
sI25
g1818
sI26
g1877
sI27
g1936
sI28
g1995
sI29
g2054
ssI23
(dp2092
I0
g343
sI1
g402
sI2
g461
sI3
g520
sI4
g579
sI5
g638
sI6
g697
sI7
g756
sI8
g815
sI9
g874
sI10
g933
sI11
g992
sI12
g1051
sI13
g1110
sI14
g1169
sI15
g1228
sI16
g1287
sI17
g1346
sI18
g1405
sI19
g1464
sI20
g1523
sI21
g1582
sI22
g1641
sI24
g1761
sI25
g1820
sI26
g1879
sI27
g1938
sI28
g1997
sI29
g2056
ssI24
(dp2093
I0
g345
sI1
g404
sI2
g463
sI3
g522
sI4
g581
sI5
g640
sI6
g699
sI7
g758
sI8
g817
sI9
g876
sI10
g935
sI11
g994
sI12
g1053
sI13
g1112
sI14
g1171
sI15
g1230
sI16
g1289
sI17
g1348
sI18
g1407
sI19
g1466
sI20
g1525
sI21
g1584
sI22
g1643
sI23
g1702
sI25
g1822
sI26
g1881
sI27
g1940
sI28
g1999
sI29
g2058
ssI25
(dp2094
I0
g347
sI1
g406
sI2
g465
sI3
g524
sI4
g583
sI5
g642
sI6
g701
sI7
g760
sI8
g819
sI9
g878
sI10
g937
sI11
g996
sI12
g1055
sI13
g1114
sI14
g1173
sI15
g1232
sI16
g1291
sI17
g1350
sI18
g1409
sI19
g1468
sI20
g1527
sI21
g1586
sI22
g1645
sI23
g1704
sI24
g1763
sI26
g1883
sI27
g1942
sI28
g2001
sI29
g2060
ssI26
(dp2095
I0
g349
sI1
g408
sI2
g467
sI3
g526
sI4
g585
sI5
g644
sI6
g703
sI7
g762
sI8
g821
sI9
g880
sI10
g939
sI11
g998
sI12
g1057
sI13
g1116
sI14
g1175
sI15
g1234
sI16
g1293
sI17
g1352
sI18
g1411
sI19
g1470
sI20
g1529
sI21
g1588
sI22
g1647
sI23
g1706
sI24
g1765
sI25
g1824
sI27
g1944
sI28
g2003
sI29
g2062
ssI27
(dp2096
I0
g351
sI1
g410
sI2
g469
sI3
g528
sI4
g587
sI5
g646
sI6
g705
sI7
g764
sI8
g823
sI9
g882
sI10
g941
sI11
g1000
sI12
g1059
sI13
g1118
sI14
g1177
sI15
g1236
sI16
g1295
sI17
g1354
sI18
g1413
sI19
g1472
sI20
g1531
sI21
g1590
sI22
g1649
sI23
g1708
sI24
g1767
sI25
g1826
sI26
g1885
sI28
g2005
sI29
g2064
ssI28
(dp2097
I0
g353
sI1
g412
sI2
g471
sI3
g530
sI4
g589
sI5
g648
sI6
g707
sI7
g766
sI8
g825
sI9
g884
sI10
g943
sI11
g1002
sI12
g1061
sI13
g1120
sI14
g1179
sI15
g1238
sI16
g1297
sI17
g1356
sI18
g1415
sI19
g1474
sI20
g1533
sI21
g1592
sI22
g1651
sI23
g1710
sI24
g1769
sI25
g1828
sI26
g1887
sI27
g1946
sI29
g2066
ssI29
(dp2098
I0
g355
sI1
g414
sI2
g473
sI3
g532
sI4
g591
sI5
g650
sI6
g709
sI7
g768
sI8
g827
sI9
g886
sI10
g945
sI11
g1004
sI12
g1063
sI13
g1122
sI14
g1181
sI15
g1240
sI16
g1299
sI17
g1358
sI18
g1417
sI19
g1476
sI20
g1535
sI21
g1594
sI22
g1653
sI23
g1712
sI24
g1771
sI25
g1830
sI26
g1889
sI27
g1948
sI28
g2007
sssg260
g297
sbag1
(cnetworkx.classes.multigraph
MultiGraph
p2099
g3
Ntp2100
Rp2101
(dp2102
g7
(dp2103
I0
(dp2104
S'neibor'
p2105
(lp2106
I1
aI2
aI3
aI4
aI5
aI8
aI9
aI10
aI11
aI12
aI13
aI15
aI16
aI17
aI18
aI19
aI20
aI22
aI24
aI25
aI26
aI27
aI29
asS'dirty'
p2107
I0
ssI1
(dp2108
g2105
(lp2109
I0
aI2
aI4
aI5
aI6
aI7
aI8
aI9
aI12
aI13
aI14
aI15
aI16
aI18
aI20
aI21
aI24
aI25
aI26
aI27
asg2107
I0
ssI2
(dp2110
g2105
(lp2111
I0
aI1
aI3
aI4
aI5
aI7
aI8
aI9
aI10
aI13
aI15
aI17
aI18
aI19
aI26
aI27
aI28
aI29
asg2107
I0
ssI3
(dp2112
g2105
(lp2113
I0
aI2
aI4
aI5
aI6
aI7
aI9
aI10
aI11
aI12
aI13
aI14
aI15
aI16
aI17
aI18
aI19
aI20
aI22
aI25
aI26
aI27
aI29
asg2107
I0
ssI4
(dp2114
g2105
(lp2115
I0
aI1
aI2
aI3
aI5
aI6
aI7
aI8
aI9
aI11
aI12
aI13
aI14
aI15
aI16
aI18
aI19
aI21
aI23
aI25
aI26
aI27
aI29
asg2107
I0
ssI5
(dp2116
g2105
(lp2117
I0
aI1
aI2
aI3
aI4
aI9
aI15
aI20
aI21
aI23
aI24
aI26
aI27
aI28
asg2107
I0
ssI6
(dp2118
g2105
(lp2119
I1
aI3
aI4
aI7
aI9
aI10
aI11
aI13
aI14
aI15
aI16
aI17
aI18
aI19
aI20
aI21
aI22
aI23
aI25
aI27
aI28
aI29
asg2107
I0
ssI7
(dp2120
g2105
(lp2121
I1
aI2
aI3
aI4
aI6
aI9
aI10
aI14
aI20
aI21
aI24
asg2107
I0
ssI8
(dp2122
g2105
(lp2123
I0
aI1
aI2
aI4
aI10
aI12
aI13
aI21
aI22
aI23
aI25
aI26
aI29
asg2107
I0
ssI9
(dp2124
g2105
(lp2125
I0
aI1
aI2
aI3
aI4
aI5
aI6
aI7
aI10
aI12
aI13
aI15
aI16
aI19
aI20
aI21
aI22
aI25
aI26
asg2107
I0
ssI10
(dp2126
g2105
(lp2127
I0
aI2
aI3
aI6
aI7
aI8
aI9
aI11
aI12
aI14
aI15
aI16
aI17
aI19
aI20
aI21
aI22
aI23
aI24
aI25
aI26
aI27
aI28
aI29
asg2107
I0
ssI11
(dp2128
g2105
(lp2129
I0
aI3
aI4
aI6
aI10
aI12
aI13
aI15
aI22
aI25
aI26
aI29
asg2107
I0
ssI12
(dp2130
g2105
(lp2131
I0
aI1
aI3
aI4
aI8
aI9
aI10
aI11
aI14
aI19
aI21
aI22
aI23
aI29
asg2107
I0
ssI13
(dp2132
g2105
(lp2133
I0
aI1
aI2
aI3
aI4
aI6
aI8
aI9
aI11
aI15
aI19
aI24
aI29
asg2107
I0
ssI14
(dp2134
g2105
(lp2135
I1
aI3
aI4
aI6
aI7
aI10
aI12
aI16
aI17
aI19
aI21
aI25
aI27
aI28
aI29
asg2107
I0
ssI15
(dp2136
g2105
(lp2137
I0
aI1
aI2
aI3
aI4
aI5
aI6
aI9
aI10
aI11
aI13
aI16
aI17
aI18
aI19
aI20
aI21
aI22
aI25
aI27
aI29
asg2107
I0
ssI16
(dp2138
g2105
(lp2139
I0
aI1
aI3
aI4
aI6
aI9
aI10
aI14
aI15
aI19
aI22
aI24
aI26
aI27
asg2107
I0
ssI17
(dp2140
g2105
(lp2141
I0
aI2
aI3
aI6
aI10
aI14
aI15
aI18
aI21
aI22
aI24
aI27
aI29
asg2107
I0
ssI18
(dp2142
g2105
(lp2143
I0
aI1
aI2
aI3
aI4
aI6
aI15
aI17
aI22
aI24
aI28
asg2107
I0
ssI19
(dp2144
g2105
(lp2145
I0
aI2
aI3
aI4
aI6
aI9
aI10
aI12
aI13
aI14
aI15
aI16
aI21
aI22
aI24
aI25
aI26
aI29
asg2107
I0
ssI20
(dp2146
g2105
(lp2147
I0
aI1
aI3
aI5
aI6
aI7
aI9
aI10
aI15
aI23
aI25
aI29
asg2107
I0
ssI21
(dp2148
g2105
(lp2149
I1
aI4
aI5
aI6
aI7
aI8
aI9
aI10
aI12
aI14
aI15
aI17
aI19
aI22
aI25
aI27
asg2107
I0
ssI22
(dp2150
g2105
(lp2151
I0
aI3
aI6
aI8
aI9
aI10
aI11
aI12
aI15
aI16
aI17
aI18
aI19
aI21
aI28
aI29
asg2107
I0
ssI23
(dp2152
g2105
(lp2153
I4
aI5
aI6
aI8
aI10
aI12
aI20
aI27
aI28
aI29
asg2107
I0
ssI24
(dp2154
g2105
(lp2155
I0
aI1
aI5
aI7
aI10
aI13
aI16
aI17
aI18
aI19
aI25
aI26
aI27
aI28
aI29
asg2107
I0
ssI25
(dp2156
g2105
(lp2157
I0
aI1
aI3
aI4
aI6
aI8
aI9
aI10
aI11
aI14
aI15
aI19
aI20
aI21
aI24
aI27
asg2107
I0
ssI26
(dp2158
g2105
(lp2159
I0
aI1
aI2
aI3
aI4
aI5
aI8
aI9
aI10
aI11
aI16
aI19
aI24
asg2107
I0
ssI27
(dp2160
g2105
(lp2161
I0
aI1
aI2
aI3
aI4
aI5
aI6
aI10
aI14
aI15
aI16
aI17
aI21
aI23
aI24
aI25
asg2107
I0
ssI28
(dp2162
g2105
(lp2163
I2
aI5
aI6
aI10
aI14
aI18
aI22
aI23
aI24
aI29
asg2107
I0
ssI29
(dp2164
g2105
(lp2165
I0
aI2
aI3
aI4
aI6
aI8
aI10
aI11
aI12
aI13
aI14
aI15
aI17
aI19
aI20
aI22
aI23
aI24
aI28
asg2107
I0
sssg39
(dp2166
sg227
(dp2167
I0
(dp2168
I1
(dp2169
I0
(dp2170
sI1
(dp2171
ssI2
(dp2172
I0
(dp2173
sI1
(dp2174
ssI3
(dp2175
I0
(dp2176
sI1
(dp2177
sI2
(dp2178
sI3
(dp2179
sI4
(dp2180
ssI4
(dp2181
I0
(dp2182
sI1
(dp2183
ssI5
(dp2184
I0
(dp2185
ssI8
(dp2186
I0
(dp2187
sI1
(dp2188
sI2
(dp2189
ssI9
(dp2190
I0
(dp2191
sI1
(dp2192
sI2
(dp2193
ssI10
(dp2194
I0
(dp2195
ssI11
(dp2196
I0
(dp2197
ssI12
(dp2198
I0
(dp2199
sI1
(dp2200
ssI13
(dp2201
I0
(dp2202
ssI15
(dp2203
I0
(dp2204
sI1
(dp2205
ssI16
(dp2206
I0
(dp2207
sI1
(dp2208
ssI17
(dp2209
I0
(dp2210
ssI18
(dp2211
I0
(dp2212
sI1
(dp2213
ssI19
(dp2214
I0
(dp2215
sI1
(dp2216
ssI20
(dp2217
I0
(dp2218
ssI22
(dp2219
I0
(dp2220
ssI24
(dp2221
I0
(dp2222
ssI25
(dp2223
I0
(dp2224
ssI26
(dp2225
I0
(dp2226
ssI27
(dp2227
I0
(dp2228
sI1
(dp2229
ssI29
(dp2230
I0
(dp2231
sssI1
(dp2232
I0
g2169
sI2
(dp2233
I0
(dp2234
sI1
(dp2235
ssI4
(dp2236
I0
(dp2237
sI1
(dp2238
sI2
(dp2239
ssI5
(dp2240
I0
(dp2241
ssI6
(dp2242
I0
(dp2243
ssI7
(dp2244
I0
(dp2245
ssI8
(dp2246
I0
(dp2247
ssI9
(dp2248
I0
(dp2249
sI1
(dp2250
sI2
(dp2251
ssI12
(dp2252
I0
(dp2253
ssI13
(dp2254
I0
(dp2255
ssI14
(dp2256
I0
(dp2257
ssI15
(dp2258
I0
(dp2259
sI1
(dp2260
sI2
(dp2261
ssI16
(dp2262
I0
(dp2263
ssI18
(dp2264
I0
(dp2265
ssI20
(dp2266
I0
(dp2267
ssI21
(dp2268
I0
(dp2269
sI1
(dp2270
sI2
(dp2271
ssI24
(dp2272
I0
(dp2273
ssI25
(dp2274
I0
(dp2275
ssI26
(dp2276
I0
(dp2277
ssI27
(dp2278
I0
(dp2279
sssI2
(dp2280
I0
g2172
sI1
g2233
sI3
(dp2281
I0
(dp2282
sI1
(dp2283
sI2
(dp2284
ssI4
(dp2285
I0
(dp2286
ssI5
(dp2287
I0
(dp2288
ssI7
(dp2289
I0
(dp2290
ssI8
(dp2291
I0
(dp2292
sI1
(dp2293
sI2
(dp2294
ssI9
(dp2295
I0
(dp2296
sI1
(dp2297
ssI10
(dp2298
I0
(dp2299
sI1
(dp2300
ssI13
(dp2301
I0
(dp2302
ssI15
(dp2303
I0
(dp2304
sI1
(dp2305
ssI17
(dp2306
I0
(dp2307
ssI18
(dp2308
I0
(dp2309
ssI19
(dp2310
I0
(dp2311
ssI26
(dp2312
I0
(dp2313
ssI27
(dp2314
I0
(dp2315
ssI28
(dp2316
I0
(dp2317
ssI29
(dp2318
I0
(dp2319
sI1
(dp2320
sssI3
(dp2321
I0
g2175
sI2
g2281
sI4
(dp2322
I0
(dp2323
sI1
(dp2324
sI2
(dp2325
ssI5
(dp2326
I0
(dp2327
sI1
(dp2328
sI2
(dp2329
ssI6
(dp2330
I0
(dp2331
sI1
(dp2332
ssI7
(dp2333
I0
(dp2334
sI1
(dp2335
sI2
(dp2336
ssI9
(dp2337
I0
(dp2338
ssI10
(dp2339
I0
(dp2340
sI1
(dp2341
ssI11
(dp2342
I0
(dp2343
ssI12
(dp2344
I0
(dp2345
sI1
(dp2346
sI2
(dp2347
ssI13
(dp2348
I0
(dp2349
ssI14
(dp2350
I0
(dp2351
sI1
(dp2352
sI2
(dp2353
ssI15
(dp2354
I0
(dp2355
ssI16
(dp2356
I0
(dp2357
sI1
(dp2358
ssI17
(dp2359
I0
(dp2360
ssI18
(dp2361
I0
(dp2362
sI1
(dp2363
sI2
(dp2364
sI3
(dp2365
sI4
(dp2366
ssI19
(dp2367
I0
(dp2368
sI1
(dp2369
ssI20
(dp2370
I0
(dp2371
sI1
(dp2372
ssI22
(dp2373
I0
(dp2374
sI1
(dp2375
sI2
(dp2376
ssI25
(dp2377
I0
(dp2378
ssI26
(dp2379
I0
(dp2380
ssI27
(dp2381
I0
(dp2382
ssI29
(dp2383
I0
(dp2384
sssI4
(dp2385
I0
g2181
sI1
g2236
sI2
g2285
sI3
g2322
sI5
(dp2386
I0
(dp2387
ssI6
(dp2388
I0
(dp2389
sI1
(dp2390
sI2
(dp2391
sI3
(dp2392
sI4
(dp2393
ssI7
(dp2394
I0
(dp2395
sI1
(dp2396
ssI8
(dp2397
I0
(dp2398
ssI9
(dp2399
I0
(dp2400
sI1
(dp2401
ssI11
(dp2402
I0
(dp2403
sI1
(dp2404
sI2
(dp2405
sI3
(dp2406
ssI12
(dp2407
I0
(dp2408
sI1
(dp2409
ssI13
(dp2410
I0
(dp2411
sI1
(dp2412
ssI14
(dp2413
I0
(dp2414
sI1
(dp2415
ssI15
(dp2416
I0
(dp2417
ssI16
(dp2418
I0
(dp2419
ssI18
(dp2420
I0
(dp2421
ssI19
(dp2422
I0
(dp2423
sI1
(dp2424
ssI21
(dp2425
I0
(dp2426
sI1
(dp2427
sI2
(dp2428
ssI23
(dp2429
I0
(dp2430
sI1
(dp2431
ssI25
(dp2432
I0
(dp2433
ssI26
(dp2434
I0
(dp2435
sI1
(dp2436
ssI27
(dp2437
I0
(dp2438
ssI29
(dp2439
I0
(dp2440
sssI5
(dp2441
I0
g2184
sI1
g2240
sI2
g2287
sI3
g2326
sI4
g2386
sI9
(dp2442
I0
(dp2443
ssI15
(dp2444
I0
(dp2445
ssI20
(dp2446
I0
(dp2447
ssI21
(dp2448
I0
(dp2449
ssI23
(dp2450
I0
(dp2451
sI1
(dp2452
ssI24
(dp2453
I0
(dp2454
ssI26
(dp2455
I0
(dp2456
ssI27
(dp2457
I0
(dp2458
ssI28
(dp2459
I0
(dp2460
sssI6
(dp2461
I1
g2242
sI3
g2330
sI4
g2388
sI7
(dp2462
I0
(dp2463
ssI9
(dp2464
I0
(dp2465
sI1
(dp2466
ssI10
(dp2467
I0
(dp2468
ssI11
(dp2469
I0
(dp2470
ssI13
(dp2471
I0
(dp2472
sI1
(dp2473
sI2
(dp2474
ssI14
(dp2475
I0
(dp2476
sI1
(dp2477
ssI15
(dp2478
I0
(dp2479
ssI16
(dp2480
I0
(dp2481
ssI17
(dp2482
I0
(dp2483
sI1
(dp2484
ssI18
(dp2485
I0
(dp2486
sI1
(dp2487
sI2
(dp2488
sI3
(dp2489
ssI19
(dp2490
I0
(dp2491
ssI20
(dp2492
I0
(dp2493
sI1
(dp2494
sI2
(dp2495
ssI21
(dp2496
I0
(dp2497
sI1
(dp2498
sI2
(dp2499
sI3
(dp2500
ssI22
(dp2501
I0
(dp2502
ssI23
(dp2503
I0
(dp2504
ssI25
(dp2505
I0
(dp2506
sI1
(dp2507
ssI27
(dp2508
I0
(dp2509
ssI28
(dp2510
I0
(dp2511
sI1
(dp2512
sI2
(dp2513
ssI29
(dp2514
I0
(dp2515
sssI7
(dp2516
I1
g2244
sI2
g2289
sI3
g2333
sI4
g2394
sI6
g2462
sI9
(dp2517
I0
(dp2518
ssI10
(dp2519
I0
(dp2520
ssI14
(dp2521
I0
(dp2522
ssI20
(dp2523
I0
(dp2524
ssI21
(dp2525
I0
(dp2526
sI1
(dp2527
sI2
(dp2528
ssI24
(dp2529
I0
(dp2530
sssI8
(dp2531
I0
g2186
sI1
g2246
sI2
g2291
sI4
g2397
sI10
(dp2532
I0
(dp2533
ssI12
(dp2534
I0
(dp2535
ssI13
(dp2536
I0
(dp2537
ssI21
(dp2538
I0
(dp2539
ssI22
(dp2540
I0
(dp2541
ssI23
(dp2542
I0
(dp2543
ssI25
(dp2544
I0
(dp2545
ssI26
(dp2546
I0
(dp2547
sI1
(dp2548
ssI29
(dp2549
I0
(dp2550
sssI9
(dp2551
I0
g2190
sI1
g2248
sI2
g2295
sI3
g2337
sI4
g2399
sI5
g2442
sI6
g2464
sI7
g2517
sI10
(dp2552
I0
(dp2553
ssI12
(dp2554
I0
(dp2555
ssI13
(dp2556
I0
(dp2557
ssI15
(dp2558
I0
(dp2559
sI1
(dp2560
sI2
(dp2561
ssI16
(dp2562
I0
(dp2563
ssI19
(dp2564
I0
(dp2565
ssI20
(dp2566
I0
(dp2567
ssI21
(dp2568
I0
(dp2569
ssI22
(dp2570
I0
(dp2571
ssI25
(dp2572
I0
(dp2573
sI1
(dp2574
ssI26
(dp2575
I0
(dp2576
sI1
(dp2577
sssI10
(dp2578
I0
g2194
sI2
g2298
sI3
g2339
sI6
g2467
sI7
g2519
sI8
g2532
sI9
g2552
sI11
(dp2579
I0
(dp2580
sI1
(dp2581
sI2
(dp2582
ssI12
(dp2583
I0
(dp2584
ssI14
(dp2585
I0
(dp2586
ssI15
(dp2587
I0
(dp2588
ssI16
(dp2589
I0
(dp2590
sI1
(dp2591
sI2
(dp2592
ssI17
(dp2593
I0
(dp2594
sI1
(dp2595
ssI19
(dp2596
I0
(dp2597
ssI20
(dp2598
I0
(dp2599
ssI21
(dp2600
I0
(dp2601
ssI22
(dp2602
I0
(dp2603
sI1
(dp2604
sI2
(dp2605
ssI23
(dp2606
I0
(dp2607
sI1
(dp2608
ssI24
(dp2609
I0
(dp2610
sI1
(dp2611
ssI25
(dp2612
I0
(dp2613
ssI26
(dp2614
I0
(dp2615
ssI27
(dp2616
I0
(dp2617
sI1
(dp2618
ssI28
(dp2619
I0
(dp2620
ssI29
(dp2621
I0
(dp2622
sI1
(dp2623
sI2
(dp2624
sssI11
(dp2625
I0
g2196
sI3
g2342
sI4
g2402
sI6
g2469
sI10
g2579
sI12
(dp2626
I0
(dp2627
sI1
(dp2628
ssI13
(dp2629
I0
(dp2630
ssI15
(dp2631
I0
(dp2632
sI1
(dp2633
sI2
(dp2634
sI3
(dp2635
ssI22
(dp2636
I0
(dp2637
ssI25
(dp2638
I0
(dp2639
sI1
(dp2640
ssI26
(dp2641
I0
(dp2642
ssI29
(dp2643
I0
(dp2644
sssI12
(dp2645
I0
g2198
sI1
g2252
sI3
g2344
sI4
g2407
sI8
g2534
sI9
g2554
sI10
g2583
sI11
g2626
sI14
(dp2646
I0
(dp2647
ssI19
(dp2648
I0
(dp2649
ssI21
(dp2650
I0
(dp2651
ssI22
(dp2652
I0
(dp2653
ssI23
(dp2654
I0
(dp2655
ssI29
(dp2656
I0
(dp2657
sssI13
(dp2658
I0
g2201
sI1
g2254
sI2
g2301
sI3
g2348
sI4
g2410
sI6
g2471
sI8
g2536
sI9
g2556
sI11
g2629
sI15
(dp2659
I0
(dp2660
ssI19
(dp2661
I0
(dp2662
sI1
(dp2663
ssI24
(dp2664
I0
(dp2665
ssI29
(dp2666
I0
(dp2667
sssI14
(dp2668
I1
g2256
sI3
g2350
sI4
g2413
sI6
g2475
sI7
g2521
sI10
g2585
sI12
g2646
sI16
(dp2669
I0
(dp2670
ssI17
(dp2671
I0
(dp2672
ssI19
(dp2673
I0
(dp2674
ssI21
(dp2675
I0
(dp2676
ssI25
(dp2677
I0
(dp2678
ssI27
(dp2679
I0
(dp2680
sI1
(dp2681
ssI28
(dp2682
I0
(dp2683
sI1
(dp2684
ssI29
(dp2685
I0
(dp2686
sssI15
(dp2687
I0
g2203
sI1
g2258
sI2
g2303
sI3
g2354
sI4
g2416
sI5
g2444
sI6
g2478
sI9
g2558
sI10
g2587
sI11
g2631
sI13
g2659
sI16
(dp2688
I0
(dp2689
sI1
(dp2690
ssI17
(dp2691
I0
(dp2692
sI1
(dp2693
ssI18
(dp2694
I0
(dp2695
sI1
(dp2696
ssI19
(dp2697
I0
(dp2698
ssI20
(dp2699
I0
(dp2700
ssI21
(dp2701
I0
(dp2702
sI1
(dp2703
sI2
(dp2704
ssI22
(dp2705
I0
(dp2706
sI1
(dp2707
sI2
(dp2708
ssI25
(dp2709
I0
(dp2710
ssI27
(dp2711
I0
(dp2712
ssI29
(dp2713
I0
(dp2714
sssI16
(dp2715
I0
g2206
sI1
g2262
sI3
g2356
sI4
g2418
sI6
g2480
sI9
g2562
sI10
g2589
sI14
g2669
sI15
g2688
sI19
(dp2716
I0
(dp2717
sI1
(dp2718
ssI22
(dp2719
I0
(dp2720
ssI24
(dp2721
I0
(dp2722
sI1
(dp2723
sI2
(dp2724
ssI26
(dp2725
I0
(dp2726
ssI27
(dp2727
I0
(dp2728
sI1
(dp2729
sssI17
(dp2730
I0
g2209
sI2
g2306
sI3
g2359
sI6
g2482
sI10
g2593
sI14
g2671
sI15
g2691
sI18
(dp2731
I0
(dp2732
ssI21
(dp2733
I0
(dp2734
ssI22
(dp2735
I0
(dp2736
ssI24
(dp2737
I0
(dp2738
ssI27
(dp2739
I0
(dp2740
ssI29
(dp2741
I0
(dp2742
sssI18
(dp2743
I0
g2211
sI1
g2264
sI2
g2308
sI3
g2361
sI4
g2420
sI6
g2485
sI15
g2694
sI17
g2731
sI22
(dp2744
I0
(dp2745
ssI24
(dp2746
I0
(dp2747
ssI28
(dp2748
I0
(dp2749
sI1
(dp2750
sssI19
(dp2751
I0
g2214
sI2
g2310
sI3
g2367
sI4
g2422
sI6
g2490
sI9
g2564
sI10
g2596
sI12
g2648
sI13
g2661
sI14
g2673
sI15
g2697
sI16
g2716
sI21
(dp2752
I0
(dp2753
ssI22
(dp2754
I0
(dp2755
ssI24
(dp2756
I0
(dp2757
ssI25
(dp2758
I0
(dp2759
ssI26
(dp2760
I0
(dp2761
ssI29
(dp2762
I0
(dp2763
sI1
(dp2764
sssI20
(dp2765
I0
g2217
sI1
g2266
sI3
g2370
sI5
g2446
sI6
g2492
sI7
g2523
sI9
g2566
sI10
g2598
sI15
g2699
sI23
(dp2766
I0
(dp2767
ssI25
(dp2768
I0
(dp2769
sI1
(dp2770
ssI29
(dp2771
I0
(dp2772
sssI21
(dp2773
I1
g2268
sI4
g2425
sI5
g2448
sI6
g2496
sI7
g2525
sI8
g2538
sI9
g2568
sI10
g2600
sI12
g2650
sI14
g2675
sI15
g2701
sI17
g2733
sI19
g2752
sI22
(dp2774
I0
(dp2775
ssI25
(dp2776
I0
(dp2777
ssI27
(dp2778
I0
(dp2779
sssI22
(dp2780
I0
g2219
sI3
g2373
sI6
g2501
sI8
g2540
sI9
g2570
sI10
g2602
sI11
g2636
sI12
g2652
sI15
g2705
sI16
g2719
sI17
g2735
sI18
g2744
sI19
g2754
sI21
g2774
sI28
(dp2781
I0
(dp2782
sI1
(dp2783
ssI29
(dp2784
I0
(dp2785
sssI23
(dp2786
I4
g2429
sI5
g2450
sI6
g2503
sI8
g2542
sI10
g2606
sI12
g2654
sI20
g2766
sI27
(dp2787
I0
(dp2788
sI1
(dp2789
ssI28
(dp2790
I0
(dp2791
ssI29
(dp2792
I0
(dp2793
sssI24
(dp2794
I0
g2221
sI1
g2272
sI5
g2453
sI7
g2529
sI10
g2609
sI13
g2664
sI16
g2721
sI17
g2737
sI18
g2746
sI19
g2756
sI25
(dp2795
I0
(dp2796
ssI26
(dp2797
I0
(dp2798
ssI27
(dp2799
I0
(dp2800
ssI28
(dp2801
I0
(dp2802
sI1
(dp2803
sI2
(dp2804
ssI29
(dp2805
I0
(dp2806
sssI25
(dp2807
I0
g2223
sI1
g2274
sI3
g2377
sI4
g2432
sI6
g2505
sI8
g2544
sI9
g2572
sI10
g2612
sI11
g2638
sI14
g2677
sI15
g2709
sI19
g2758
sI20
g2768
sI21
g2776
sI24
g2795
sI27
(dp2808
I0
(dp2809
sssI26
(dp2810
I0
g2225
sI1
g2276
sI2
g2312
sI3
g2379
sI4
g2434
sI5
g2455
sI8
g2546
sI9
g2575
sI10
g2614
sI11
g2641
sI16
g2725
sI19
g2760
sI24
g2797
ssI27
(dp2811
I0
g2227
sI1
g2278
sI2
g2314
sI3
g2381
sI4
g2437
sI5
g2457
sI6
g2508
sI10
g2616
sI14
g2679
sI15
g2711
sI16
g2727
sI17
g2739
sI21
g2778
sI23
g2787
sI24
g2799
sI25
g2808
ssI28
(dp2812
I2
g2316
sI5
g2459
sI6
g2510
sI10
g2619
sI14
g2682
sI18
g2748
sI22
g2781
sI23
g2790
sI24
g2801
sI29
(dp2813
I0
(dp2814
sssI29
(dp2815
I0
g2230
sI2
g2318
sI3
g2383
sI4
g2439
sI6
g2514
sI8
g2549
sI10
g2621
sI11
g2643
sI12
g2656
sI13
g2666
sI14
g2685
sI15
g2713
sI17
g2741
sI19
g2762
sI20
g2771
sI22
g2784
sI23
g2792
sI24
g2805
sI28
g2813
sssg260
g2167
sba.