(lp0
(lp1
I15
aa(lp2
I13
aI15
aa(lp3
I6
aI13
aI15
aa(lp4
I14
aI6
aI13
aI15
aa(lp5
I2
aI14
aI6
aI13
aI15
aa(lp6
I11
aI2
aI14
aI6
aI13
aI15
aa(lp7
I1
aI11
aI2
aI14
aI6
aI13
aI15
aa(lp8
I3
aI1
aI11
aI2
aI14
aI6
aI13
aI15
aa(lp9
I5
aI3
aI1
aI11
aI2
aI14
aI6
aI13
aI15
aa(lp10
I9
aI5
aI3
aI1
aI11
aI2
aI14
aI6
aI13
aI15
aa(lp11
I12
aI9
aI5
aI3
aI1
aI11
aI2
aI14
aI6
aI13
aI15
aa(lp12
I7
aI12
aI9
aI5
aI3
aI1
aI11
aI2
aI14
aI6
aI13
aI15
aa(lp13
I4
aI7
aI12
aI9
aI5
aI3
aI1
aI11
aI2
aI14
aI6
aI13
aI15
aa(lp14
I10
aI4
aI7
aI12
aI9
aI5
aI3
aI1
aI11
aI2
aI14
aI6
aI13
aI15
aa(lp15
I8
aI10
aI4
aI7
aI12
aI9
aI5
aI3
aI1
aI11
aI2
aI14
aI6
aI13
aI15
aa.(lp0
(lp1
I6
aa(lp2
I8
aI6
aa(lp3
I9
aI8
aI6
aa(lp4
I12
aI9
aI8
aI6
aa(lp5
I1
aI12
aI9
aI8
aI6
aa(lp6
I7
aI1
aI12
aI9
aI8
aI6
aa(lp7
I4
aI7
aI1
aI12
aI9
aI8
aI6
aa(lp8
I14
aI4
aI7
aI1
aI12
aI9
aI8
aI6
aa(lp9
I15
aI14
aI4
aI7
aI1
aI12
aI9
aI8
aI6
aa(lp10
I3
aI15
aI14
aI4
aI7
aI1
aI12
aI9
aI8
aI6
aa(lp11
I2
aI3
aI15
aI14
aI4
aI7
aI1
aI12
aI9
aI8
aI6
aa(lp12
I13
aI2
aI3
aI15
aI14
aI4
aI7
aI1
aI12
aI9
aI8
aI6
aa(lp13
I10
aI13
aI2
aI3
aI15
aI14
aI4
aI7
aI1
aI12
aI9
aI8
aI6
aa(lp14
I5
aI10
aI13
aI2
aI3
aI15
aI14
aI4
aI7
aI1
aI12
aI9
aI8
aI6
aa(lp15
I11
aI5
aI10
aI13
aI2
aI3
aI15
aI14
aI4
aI7
aI1
aI12
aI9
aI8
aI6
aa.(lp0
(lp1
I11
aa(lp2
I8
aI11
aa(lp3
I10
aI8
aI11
aa(lp4
I5
aI10
aI8
aI11
aa(lp5
I15
aI5
aI10
aI8
aI11
aa(lp6
I3
aI15
aI5
aI10
aI8
aI11
aa(lp7
I12
aI3
aI15
aI5
aI10
aI8
aI11
aa(lp8
I4
aI12
aI3
aI15
aI5
aI10
aI8
aI11
aa(lp9
I2
aI4
aI12
aI3
aI15
aI5
aI10
aI8
aI11
aa(lp10
I1
aI2
aI4
aI12
aI3
aI15
aI5
aI10
aI8
aI11
aa(lp11
I13
aI1
aI2
aI4
aI12
aI3
aI15
aI5
aI10
aI8
aI11
aa(lp12
I7
aI13
aI1
aI2
aI4
aI12
aI3
aI15
aI5
aI10
aI8
aI11
aa(lp13
I14
aI7
aI13
aI1
aI2
aI4
aI12
aI3
aI15
aI5
aI10
aI8
aI11
aa(lp14
I6
aI14
aI7
aI13
aI1
aI2
aI4
aI12
aI3
aI15
aI5
aI10
aI8
aI11
aa(lp15
I9
aI6
aI14
aI7
aI13
aI1
aI2
aI4
aI12
aI3
aI15
aI5
aI10
aI8
aI11
aa.(lp0
(lp1
I7
aa(lp2
I14
aI7
aa(lp3
I5
aI14
aI7
aa(lp4
I15
aI5
aI14
aI7
aa(lp5
I1
aI15
aI5
aI14
aI7
aa(lp6
I9
aI1
aI15
aI5
aI14
aI7
aa(lp7
I12
aI9
aI1
aI15
aI5
aI14
aI7
aa(lp8
I2
aI12
aI9
aI1
aI15
aI5
aI14
aI7
aa(lp9
I3
aI2
aI12
aI9
aI1
aI15
aI5
aI14
aI7
aa(lp10
I10
aI3
aI2
aI12
aI9
aI1
aI15
aI5
aI14
aI7
aa(lp11
I4
aI10
aI3
aI2
aI12
aI9
aI1
aI15
aI5
aI14
aI7
aa(lp12
I13
aI4
aI10
aI3
aI2
aI12
aI9
aI1
aI15
aI5
aI14
aI7
aa(lp13
I6
aI13
aI4
aI10
aI3
aI2
aI12
aI9
aI1
aI15
aI5
aI14
aI7
aa(lp14
I11
aI6
aI13
aI4
aI10
aI3
aI2
aI12
aI9
aI1
aI15
aI5
aI14
aI7
aa(lp15
I8
aI11
aI6
aI13
aI4
aI10
aI3
aI2
aI12
aI9
aI1
aI15
aI5
aI14
aI7
aa.(lp0
(lp1
I3
aa(lp2
I5
aI3
aa(lp3
I2
aI5
aI3
aa(lp4
I7
aI2
aI5
aI3
aa(lp5
I1
aI7
aI2
aI5
aI3
aa(lp6
I14
aI1
aI7
aI2
aI5
aI3
aa(lp7
I13
aI14
aI1
aI7
aI2
aI5
aI3
aa(lp8
I4
aI13
aI14
aI1
aI7
aI2
aI5
aI3
aa(lp9
I11
aI4
aI13
aI14
aI1
aI7
aI2
aI5
aI3
aa(lp10
I8
aI11
aI4
aI13
aI14
aI1
aI7
aI2
aI5
aI3
aa(lp11
I9
aI8
aI11
aI4
aI13
aI14
aI1
aI7
aI2
aI5
aI3
aa(lp12
I6
aI9
aI8
aI11
aI4
aI13
aI14
aI1
aI7
aI2
aI5
aI3
aa(lp13
I15
aI6
aI9
aI8
aI11
aI4
aI13
aI14
aI1
aI7
aI2
aI5
aI3
aa(lp14
I10
aI15
aI6
aI9
aI8
aI11
aI4
aI13
aI14
aI1
aI7
aI2
aI5
aI3
aa(lp15
I12
aI10
aI15
aI6
aI9
aI8
aI11
aI4
aI13
aI14
aI1
aI7
aI2
aI5
aI3
aa.(lp0
(lp1
I8
aa(lp2
I7
aI8
aa(lp3
I5
aI7
aI8
aa(lp4
I9
aI5
aI7
aI8
aa(lp5
I14
aI9
aI5
aI7
aI8
aa(lp6
I10
aI14
aI9
aI5
aI7
aI8
aa(lp7
I1
aI10
aI14
aI9
aI5
aI7
aI8
aa(lp8
I6
aI1
aI10
aI14
aI9
aI5
aI7
aI8
aa(lp9
I11
aI6
aI1
aI10
aI14
aI9
aI5
aI7
aI8
aa(lp10
I3
aI11
aI6
aI1
aI10
aI14
aI9
aI5
aI7
aI8
aa(lp11
I12
aI3
aI11
aI6
aI1
aI10
aI14
aI9
aI5
aI7
aI8
aa(lp12
I2
aI12
aI3
aI11
aI6
aI1
aI10
aI14
aI9
aI5
aI7
aI8
aa(lp13
I4
aI2
aI12
aI3
aI11
aI6
aI1
aI10
aI14
aI9
aI5
aI7
aI8
aa(lp14
I13
aI4
aI2
aI12
aI3
aI11
aI6
aI1
aI10
aI14
aI9
aI5
aI7
aI8
aa(lp15
I15
aI13
aI4
aI2
aI12
aI3
aI11
aI6
aI1
aI10
aI14
aI9
aI5
aI7
aI8
aa.(lp0
(lp1
I1
aa(lp2
I12
aI1
aa(lp3
I6
aI12
aI1
aa(lp4
I2
aI6
aI12
aI1
aa(lp5
I13
aI2
aI6
aI12
aI1
aa(lp6
I15
aI13
aI2
aI6
aI12
aI1
aa(lp7
I14
aI15
aI13
aI2
aI6
aI12
aI1
aa(lp8
I11
aI14
aI15
aI13
aI2
aI6
aI12
aI1
aa(lp9
I4
aI11
aI14
aI15
aI13
aI2
aI6
aI12
aI1
aa(lp10
I7
aI4
aI11
aI14
aI15
aI13
aI2
aI6
aI12
aI1
aa(lp11
I5
aI7
aI4
aI11
aI14
aI15
aI13
aI2
aI6
aI12
aI1
aa(lp12
I10
aI5
aI7
aI4
aI11
aI14
aI15
aI13
aI2
aI6
aI12
aI1
aa(lp13
I9
aI10
aI5
aI7
aI4
aI11
aI14
aI15
aI13
aI2
aI6
aI12
aI1
aa(lp14
I8
aI9
aI10
aI5
aI7
aI4
aI11
aI14
aI15
aI13
aI2
aI6
aI12
aI1
aa(lp15
I3
aI8
aI9
aI10
aI5
aI7
aI4
aI11
aI14
aI15
aI13
aI2
aI6
aI12
aI1
aa.(lp0
(lp1
I13
aa(lp2
I9
aI13
aa(lp3
I14
aI9
aI13
aa(lp4
I6
aI14
aI9
aI13
aa(lp5
I11
aI6
aI14
aI9
aI13
aa(lp6
I1
aI11
aI6
aI14
aI9
aI13
aa(lp7
I10
aI1
aI11
aI6
aI14
aI9
aI13
aa(lp8
I3
aI10
aI1
aI11
aI6
aI14
aI9
aI13
aa(lp9
I15
aI3
aI10
aI1
aI11
aI6
aI14
aI9
aI13
aa(lp10
I12
aI15
aI3
aI10
aI1
aI11
aI6
aI14
aI9
aI13
aa(lp11
I2
aI12
aI15
aI3
aI10
aI1
aI11
aI6
aI14
aI9
aI13
aa(lp12
I5
aI2
aI12
aI15
aI3
aI10
aI1
aI11
aI6
aI14
aI9
aI13
aa(lp13
I4
aI5
aI2
aI12
aI15
aI3
aI10
aI1
aI11
aI6
aI14
aI9
aI13
aa(lp14
I7
aI4
aI5
aI2
aI12
aI15
aI3
aI10
aI1
aI11
aI6
aI14
aI9
aI13
aa(lp15
I8
aI7
aI4
aI5
aI2
aI12
aI15
aI3
aI10
aI1
aI11
aI6
aI14
aI9
aI13
aa.(lp0
(lp1
I2
aa(lp2
I13
aI2
aa(lp3
I10
aI13
aI2
aa(lp4
I6
aI10
aI13
aI2
aa(lp5
I1
aI6
aI10
aI13
aI2
aa(lp6
I11
aI1
aI6
aI10
aI13
aI2
aa(lp7
I15
aI11
aI1
aI6
aI10
aI13
aI2
aa(lp8
I3
aI15
aI11
aI1
aI6
aI10
aI13
aI2
aa(lp9
I9
aI3
aI15
aI11
aI1
aI6
aI10
aI13
aI2
aa(lp10
I8
aI9
aI3
aI15
aI11
aI1
aI6
aI10
aI13
aI2
aa(lp11
I14
aI8
aI9
aI3
aI15
aI11
aI1
aI6
aI10
aI13
aI2
aa(lp12
I4
aI14
aI8
aI9
aI3
aI15
aI11
aI1
aI6
aI10
aI13
aI2
aa(lp13
I7
aI4
aI14
aI8
aI9
aI3
aI15
aI11
aI1
aI6
aI10
aI13
aI2
aa(lp14
I12
aI7
aI4
aI14
aI8
aI9
aI3
aI15
aI11
aI1
aI6
aI10
aI13
aI2
aa(lp15
I5
aI12
aI7
aI4
aI14
aI8
aI9
aI3
aI15
aI11
aI1
aI6
aI10
aI13
aI2
aa.(lp0
(lp1
I11
aa(lp2
I2
aI11
aa(lp3
I13
aI2
aI11
aa(lp4
I6
aI13
aI2
aI11
aa(lp5
I9
aI6
aI13
aI2
aI11
aa(lp6
I10
aI9
aI6
aI13
aI2
aI11
aa(lp7
I5
aI10
aI9
aI6
aI13
aI2
aI11
aa(lp8
I15
aI5
aI10
aI9
aI6
aI13
aI2
aI11
aa(lp9
I4
aI15
aI5
aI10
aI9
aI6
aI13
aI2
aI11
aa(lp10
I1
aI4
aI15
aI5
aI10
aI9
aI6
aI13
aI2
aI11
aa(lp11
I12
aI1
aI4
aI15
aI5
aI10
aI9
aI6
aI13
aI2
aI11
aa(lp12
I14
aI12
aI1
aI4
aI15
aI5
aI10
aI9
aI6
aI13
aI2
aI11
aa(lp13
I8
aI14
aI12
aI1
aI4
aI15
aI5
aI10
aI9
aI6
aI13
aI2
aI11
aa(lp14
I3
aI8
aI14
aI12
aI1
aI4
aI15
aI5
aI10
aI9
aI6
aI13
aI2
aI11
aa(lp15
I7
aI3
aI8
aI14
aI12
aI1
aI4
aI15
aI5
aI10
aI9
aI6
aI13
aI2
aI11
aa.(lp0
(lp1
I4
aa(lp2
I7
aI4
aa(lp3
I3
aI7
aI4
aa(lp4
I10
aI3
aI7
aI4
aa(lp5
I11
aI10
aI3
aI7
aI4
aa(lp6
I14
aI11
aI10
aI3
aI7
aI4
aa(lp7
I2
aI14
aI11
aI10
aI3
aI7
aI4
aa(lp8
I6
aI2
aI14
aI11
aI10
aI3
aI7
aI4
aa(lp9
I12
aI6
aI2
aI14
aI11
aI10
aI3
aI7
aI4
aa(lp10
I5
aI12
aI6
aI2
aI14
aI11
aI10
aI3
aI7
aI4
aa(lp11
I1
aI5
aI12
aI6
aI2
aI14
aI11
aI10
aI3
aI7
aI4
aa(lp12
I15
aI1
aI5
aI12
aI6
aI2
aI14
aI11
aI10
aI3
aI7
aI4
aa(lp13
I13
aI15
aI1
aI5
aI12
aI6
aI2
aI14
aI11
aI10
aI3
aI7
aI4
aa(lp14
I8
aI13
aI15
aI1
aI5
aI12
aI6
aI2
aI14
aI11
aI10
aI3
aI7
aI4
aa(lp15
I9
aI8
aI13
aI15
aI1
aI5
aI12
aI6
aI2
aI14
aI11
aI10
aI3
aI7
aI4
aa.(lp0
(lp1
I9
aa(lp2
I5
aI9
aa(lp3
I15
aI5
aI9
aa(lp4
I4
aI15
aI5
aI9
aa(lp5
I3
aI4
aI15
aI5
aI9
aa(lp6
I14
aI3
aI4
aI15
aI5
aI9
aa(lp7
I13
aI14
aI3
aI4
aI15
aI5
aI9
aa(lp8
I7
aI13
aI14
aI3
aI4
aI15
aI5
aI9
aa(lp9
I10
aI7
aI13
aI14
aI3
aI4
aI15
aI5
aI9
aa(lp10
I2
aI10
aI7
aI13
aI14
aI3
aI4
aI15
aI5
aI9
aa(lp11
I1
aI2
aI10
aI7
aI13
aI14
aI3
aI4
aI15
aI5
aI9
aa(lp12
I6
aI1
aI2
aI10
aI7
aI13
aI14
aI3
aI4
aI15
aI5
aI9
aa(lp13
I12
aI6
aI1
aI2
aI10
aI7
aI13
aI14
aI3
aI4
aI15
aI5
aI9
aa(lp14
I11
aI12
aI6
aI1
aI2
aI10
aI7
aI13
aI14
aI3
aI4
aI15
aI5
aI9
aa(lp15
I8
aI11
aI12
aI6
aI1
aI2
aI10
aI7
aI13
aI14
aI3
aI4
aI15
aI5
aI9
aa.(lp0
(lp1
I0
aa(lp2
I0
aI1
aa(lp3
I0
aI1
aI3
aa(lp4
I0
aI1
aI3
aI6
aa(lp5
I0
aI1
aI3
aI6
aI12
aa(lp6
I0
aI1
aI3
aI6
aI12
aI19
aa(lp7
I0
aI1
aI3
aI6
aI12
aI19
aI4
aa(lp8
I0
aI1
aI3
aI6
aI12
aI19
aI4
aI9
aa(lp9
I0
aI1
aI3
aI6
aI12
aI19
aI4
aI9
aI27
aa(lp10
I0
aI1
aI3
aI6
aI12
aI19
aI4
aI9
aI27
aI40
aa(lp11
I0
aI1
aI3
aI6
aI12
aI19
aI4
aI9
aI27
aI40
aI2
aa(lp12
I0
aI1
aI3
aI6
aI12
aI19
aI4
aI9
aI27
aI40
aI2
aI22
aa(lp13
I0
aI1
aI3
aI6
aI12
aI19
aI4
aI9
aI27
aI40
aI2
aI22
aI51
aa(lp14
I0
aI1
aI3
aI6
aI12
aI19
aI4
aI9
aI27
aI40
aI2
aI22
aI51
aI7
aa(lp15
I0
aI1
aI3
aI6
aI12
aI19
aI4
aI9
aI27
aI40
aI2
aI22
aI51
aI7
aI24
aa.