(lp0
I133
aI236
aI314
aI394
aI424
aI452
aI471
aI481
aI481
aI482
aI491
aI491
aI500
aI500
aI500
aI500
aI500
aI500
aI500
aI500
aI500
aI500
aI500
aI500
aI500
aI500
aI500
aI500
aI500
aI500
a.(lp0
I39
aI57
aI69
aI74
aI63
aI57
aI50
aI48
aI45
aI44
aI44
aI42
aI43
aI42
aI42
aI42
aI40
aI39
aI40
aI39
aI39
aI39
aI39
aI40
aI40
aI38
aI36
aI35
aI37
aI42
a.(lp0
I113
aI195
aI295
aI384
aI414
aI453
aI500
aI500
aI500
aI500
aI500
aI500
aI500
aI500
aI500
aI500
aI500
aI500
aI500
aI500
aI500
aI500
aI500
aI500
aI500
aI500
aI500
aI500
aI500
aI500
a.(lp0
I7
aI10
aI12
aI12
aI12
aI12
aI10
aI9
aI9
aI8
aI8
aI8
aI7
aI7
aI7
aI7
aI7
aI7
aI6
aI6
aI6
aI6
aI6
aI6
aI6
aI6
aI6
aI6
aI6
aI6
a.(lp0
I1
aI500
aI500
aI500
aI500
aI500
aI500
aI500
aI500
aI500
aI500
aI500
aI500
aI500
aI500
aI500
aI500
aI500
aI500
aI500
aI500
aI500
aI500
aI500
aI500
aI500
aI500
aI500
aI500
aI500
a.(lp0
I4
aI16
aI12
aI9
aI8
aI7
aI7
aI7
aI6
aI6
aI6
aI6
aI6
aI6
aI6
aI6
aI6
aI6
aI6
aI6
aI6
aI5
aI5
aI5
aI5
aI5
aI5
aI5
aI5
aI5
a.