(lp0
I12
aI25
aI28
aI40
aI55
aI68
aI71
aI87
aI91
aI97
aI100
aI100
aI100
aI100
aI100
aI100
aI100
aI100
aI100
aI100
a.(lp0
I9
aI16
aI17
aI21
aI26
aI25
aI25
aI27
aI24
aI24
aI23
aI22
aI20
aI20
aI18
aI17
aI17
aI17
aI16
aI16
a.(lp0
I12
aI43
aI73
aI100
aI100
aI100
aI100
aI100
aI100
aI100
aI100
aI100
aI100
aI100
aI100
aI100
aI100
aI100
aI100
aI100
a.(lp0
I5
aI9
aI11
aI9
aI7
aI6
aI6
aI6
aI5
aI5
aI5
aI5
aI5
aI5
aI4
aI4
aI4
aI4
aI4
aI4
a.(lp0
I100
aI100
aI100
aI100
aI100
aI100
aI100
aI100
aI100
aI100
aI100
aI100
aI100
aI100
aI100
aI100
aI100
aI100
aI100
aI100
a.(lp0
I8
aI7
aI6
aI6
aI5
aI5
aI5
aI5
aI5
aI5
aI5
aI4
aI4
aI4
aI4
aI4
aI4
aI4
aI4
aI4
a.