(lp0
I6
aI13
aI24
aI39
aI56
aI69
aI96
aI111
aI137
aI151
aI164
aI165
aI168
aI177
aI187
aI190
aI194
aI195
aI198
aI205
aI207
aI211
aI211
aI214
aI217
aI220
aI222
aI224
aI225
aI227
aI229
aI231
aI232
aI234
aI236
aI237
aI238
aI239
aI240
aI241
aI242
aI243
aI245
aI247
aI248
aI249
aI251
aI253
aI254
aI256
a.(lp0
I4
aI6
aI10
aI20
aI23
aI24
aI34
aI37
aI42
aI46
aI46
aI44
aI36
aI33
aI36
aI35
aI36
aI36
aI36
aI37
aI35
aI36
aI35
aI34
aI35
aI35
aI36
aI35
aI34
aI32
aI29
aI29
aI28
aI28
aI27
aI26
aI26
aI25
aI25
aI24
aI23
aI22
aI21
aI21
aI22
aI22
aI22
aI22
aI21
aI21
a.(lp0
I25
aI79
aI218
aI316
aI375
aI433
aI461
aI490
aI500
aI500
aI500
aI500
aI500
aI500
aI500
aI500
aI500
aI500
aI500
aI500
aI500
aI500
aI500
aI500
aI500
aI500
aI500
aI500
aI500
aI500
aI500
aI500
aI500
aI500
aI500
aI500
aI500
aI500
aI500
aI500
aI500
aI500
aI500
aI500
aI500
aI500
aI500
aI500
aI500
aI500
a.(lp0
I4
aI8
aI11
aI12
aI12
aI11
aI10
aI10
aI9
aI9
aI8
aI8
aI7
aI7
aI7
aI7
aI6
aI6
aI6
aI6
aI6
aI6
aI6
aI5
aI5
aI5
aI5
aI5
aI5
aI5
aI5
aI5
aI5
aI5
aI5
aI5
aI5
aI5
aI5
aI5
aI5
aI5
aI5
aI5
aI5
aI5
aI5
aI5
aI5
aI5
a.(lp0
I5
aI11
aI24
aI39
aI44
aI64
aI77
aI86
aI102
aI115
aI121
aI142
aI161
aI166
aI178
aI181
aI187
aI194
aI197
aI199
aI208
aI214
aI215
aI217
aI218
aI221
aI226
aI228
aI229
aI230
aI232
aI233
aI234
aI236
aI236
aI237
aI239
aI239
aI240
aI241
aI243
aI245
aI247
aI249
aI250
aI252
aI252
aI253
aI255
aI256
a.(lp0
I3
aI7
aI12
aI19
aI21
aI30
aI32
aI36
aI39
aI46
aI44
aI51
aI48
aI46
aI46
aI44
aI43
aI46
aI43
aI45
aI47
aI48
aI46
aI45
aI43
aI43
aI42
aI41
aI41
aI41
aI40
aI41
aI38
aI37
aI36
aI35
aI35
aI34
aI33
aI32
aI32
aI31
aI30
aI29
aI29
aI28
aI27
aI27
aI27
aI27
a.(lp0
I64
aI107
aI170
aI221
aI318
aI377
aI406
aI444
aI472
aI481
aI490
aI490
aI500
aI500
aI500
aI500
aI500
aI500
aI500
aI500
aI500
aI500
aI500
aI500
aI500
aI500
aI500
aI500
aI500
aI500
aI500
aI500
aI500
aI500
aI500
aI500
aI500
aI500
aI500
aI500
aI500
aI500
aI500
aI500
aI500
aI500
aI500
aI500
aI500
aI500
a.(lp0
I7
aI10
aI13
aI14
aI16
aI16
aI15
aI15
aI13
aI12
aI11
aI10
aI10
aI9
aI9
aI9
aI8
aI8
aI8
aI7
aI7
aI7
aI7
aI7
aI7
aI7
aI6
aI6
aI6
aI6
aI6
aI6
aI6
aI6
aI6
aI6
aI6
aI5
aI5
aI5
aI5
aI5
aI5
aI5
aI5
aI5
aI5
aI5
aI5
aI5
a.(lp0
I4
aI15
aI25
aI39
aI55
aI73
aI82
aI100
aI121
aI127
aI124
aI143
aI154
aI160
aI169
aI177
aI183
aI189
aI192
aI200
aI203
aI206
aI210
aI212
aI214
aI215
aI218
aI220
aI223
aI225
aI226
aI227
aI229
aI231
aI232
aI234
aI235
aI237
aI239
aI241
aI243
aI244
aI246
aI247
aI248
aI250
aI250
aI252
aI252
aI254
a.(lp0
I3
aI14
aI20
aI29
aI35
aI34
aI41
aI46
aI57
aI51
aI43
aI54
aI58
aI56
aI57
aI52
aI51
aI50
aI48
aI51
aI50
aI51
aI54
aI55
aI55
aI54
aI53
aI49
aI50
aI48
aI48
aI47
aI46
aI45
aI45
aI46
aI44
aI44
aI44
aI43
aI42
aI41
aI41
aI40
aI37
aI37
aI36
aI33
aI31
aI31
a.(lp0
I5
aI30
aI95
aI117
aI175
aI236
aI323
aI370
aI426
aI454
aI481
aI472
aI482
aI482
aI482
aI500
aI500
aI500
aI500
aI500
aI500
aI500
aI500
aI500
aI500
aI500
aI500
aI500
aI500
aI500
aI500
aI500
aI500
aI500
aI500
aI500
aI500
aI500
aI500
aI500
aI500
aI500
aI500
aI500
aI500
aI500
aI500
aI500
aI500
aI500
a.(lp0
I3
aI7
aI19
aI20
aI16
aI17
aI25
aI21
aI20
aI19
aI18
aI16
aI14
aI13
aI12
aI12
aI11
aI11
aI10
aI9
aI9
aI9
aI9
aI8
aI8
aI8
aI8
aI8
aI8
aI7
aI7
aI7
aI7
aI7
aI7
aI7
aI7
aI7
aI6
aI6
aI6
aI6
aI6
aI6
aI6
aI6
aI6
aI6
aI6
aI6
a.(lp0
I5
aI12
aI18
aI32
aI43
aI52
aI65
aI75
aI85
aI91
aI100
aI112
aI128
aI140
aI152
aI163
aI169
aI172
aI181
aI186
aI191
aI194
aI199
aI201
aI208
aI209
aI212
aI214
aI216
aI220
aI221
aI223
aI224
aI226
aI227
aI228
aI229
aI230
aI232
aI232
aI234
aI236
aI237
aI238
aI240
aI241
aI242
aI243
aI244
aI245
a.(lp0
I4
aI11
aI14
aI21
aI20
aI28
aI34
aI40
aI39
aI43
aI46
aI50
aI60
aI57
aI58
aI56
aI53
aI51
aI60
aI61
aI58
aI57
aI60
aI62
aI64
aI65
aI63
aI60
aI62
aI64
aI64
aI63
aI60
aI59
aI61
aI59
aI59
aI57
aI56
aI56
aI52
aI52
aI49
aI48
aI46
aI46
aI44
aI42
aI41
aI39
a.(lp0
I13
aI29
aI111
aI154
aI190
aI211
aI277
aI317
aI373
aI410
aI447
aI455
aI490
aI490
aI473
aI500
aI500
aI500
aI500
aI500
aI500
aI500
aI500
aI500
aI500
aI500
aI500
aI500
aI500
aI500
aI500
aI500
aI500
aI500
aI500
aI500
aI500
aI500
aI500
aI500
aI500
aI500
aI500
aI500
aI500
aI500
aI500
aI500
aI500
aI500
a.(lp0
I6
aI9
aI22
aI25
aI39
aI31
aI35
aI36
aI35
aI34
aI27
aI24
aI22
aI21
aI17
aI17
aI16
aI14
aI13
aI12
aI12
aI12
aI11
aI11
aI10
aI10
aI10
aI9
aI9
aI9
aI9
aI8
aI8
aI8
aI8
aI8
aI8
aI8
aI8
aI7
aI7
aI7
aI7
aI7
aI7
aI7
aI7
aI7
aI7
aI7
a.(lp0
I4
aI11
aI20
aI31
aI37
aI43
aI54
aI67
aI69
aI86
aI94
aI107
aI114
aI124
aI137
aI143
aI149
aI154
aI161
aI170
aI172
aI179
aI182
aI193
aI199
aI202
aI204
aI208
aI210
aI212
aI213
aI216
aI219
aI220
aI222
aI225
aI225
aI227
aI228
aI229
aI230
aI231
aI232
aI233
aI235
aI237
aI237
aI238
aI239
aI241
a.(lp0
I3
aI13
aI19
aI34
aI39
aI42
aI50
aI59
aI61
aI71
aI87
aI78
aI79
aI88
aI92
aI90
aI92
aI88
aI87
aI91
aI81
aI78
aI80
aI91
aI92
aI90
aI91
aI92
aI94
aI97
aI99
aI96
aI99
aI97
aI98
aI97
aI96
aI96
aI99
aI96
aI95
aI91
aI92
aI91
aI92
aI89
aI88
aI84
aI84
aI82
a.(lp0
I9
aI32
aI58
aI86
aI115
aI163
aI184
aI216
aI288
aI327
aI364
aI398
aI422
aI448
aI457
aI457
aI475
aI467
aI491
aI491
aI500
aI500
aI500
aI500
aI500
aI500
aI500
aI499
aI499
aI500
aI500
aI500
aI500
aI500
aI500
aI500
aI500
aI500
aI500
aI500
aI499
aI500
aI500
aI500
aI500
aI500
aI500
aI500
aI500
aI500
a.(lp0
I14
aI22
aI41
aI37
aI54
aI56
aI63
aI67
aI61
aI52
aI55
aI55
aI44
aI36
aI32
aI29
aI31
aI26
aI20
aI18
aI17
aI16
aI14
aI14
aI13
aI13
aI12
aI12
aI11
aI11
aI11
aI11
aI10
aI10
aI10
aI9
aI9
aI9
aI9
aI9
aI9
aI9
aI8
aI8
aI8
aI8
aI8
aI8
aI8
aI8
a.(lp0
I4
aI8
aI17
aI22
aI31
aI41
aI45
aI56
aI63
aI70
aI78
aI95
aI110
aI117
aI131
aI144
aI150
aI156
aI161
aI168
aI174
aI183
aI187
aI189
aI195
aI197
aI202
aI200
aI206
aI207
aI210
aI211
aI214
aI217
aI218
aI219
aI221
aI222
aI222
aI223
aI225
aI225
aI226
aI227
aI230
aI230
aI232
aI233
aI234
aI236
a.(lp0
I4
aI6
aI16
aI19
aI35
aI44
aI43
aI55
aI52
aI52
aI66
aI76
aI85
aI100
aI123
aI127
aI118
aI119
aI117
aI122
aI120
aI117
aI115
aI107
aI110
aI110
aI116
aI111
aI116
aI115
aI111
aI111
aI110
aI109
aI112
aI114
aI118
aI113
aI112
aI109
aI110
aI111
aI108
aI111
aI113
aI111
aI112
aI109
aI108
aI108
a.(lp0
I8
aI25
aI33
aI41
aI55
aI80
aI117
aI160
aI217
aI257
aI305
aI317
aI351
aI394
aI404
aI431
aI458
aI459
aI459
aI460
aI474
aI491
aI499
aI499
aI500
aI500
aI500
aI499
aI499
aI500
aI500
aI500
aI500
aI500
aI500
aI500
aI499
aI499
aI499
aI499
aI500
aI500
aI500
aI500
aI499
aI500
aI500
aI500
aI500
aI500
a.(lp0
I16
aI36
aI51
aI55
aI55
aI84
aI110
aI74
aI92
aI68
aI76
aI75
aI78
aI69
aI62
aI50
aI36
aI32
aI30
aI28
aI23
aI21
aI20
aI18
aI17
aI16
aI15
aI15
aI14
aI14
aI13
aI13
aI12
aI12
aI12
aI12
aI11
aI11
aI11
aI11
aI10
aI10
aI10
aI10
aI10
aI10
aI10
aI10
aI9
aI10
a.(lp0
I3
aI8
aI13
aI17
aI26
aI33
aI38
aI53
aI57
aI68
aI82
aI87
aI101
aI111
aI124
aI124
aI133
aI142
aI148
aI153
aI167
aI175
aI180
aI179
aI187
aI189
aI192
aI192
aI197
aI199
aI207
aI207
aI207
aI208
aI210
aI212
aI213
aI214
aI216
aI216
aI217
aI219
aI219
aI220
aI221
aI222
aI223
aI225
aI226
aI228
a.(lp0
I3
aI7
aI11
aI12
aI21
aI31
aI37
aI52
aI55
aI54
aI66
aI67
aI75
aI80
aI88
aI92
aI101
aI101
aI107
aI115
aI121
aI138
aI134
aI126
aI133
aI140
aI134
aI129
aI139
aI132
aI132
aI128
aI126
aI128
aI123
aI123
aI121
aI126
aI129
aI129
aI132
aI136
aI135
aI131
aI129
aI128
aI128
aI130
aI127
aI134
a.(lp0
I10
aI21
aI35
aI51
aI69
aI87
aI116
aI140
aI147
aI192
aI225
aI256
aI277
aI303
aI316
aI357
aI371
aI380
aI396
aI409
aI414
aI427
aI449
aI471
aI485
aI470
aI479
aI493
aI499
aI499
aI499
aI500
aI500
aI500
aI499
aI499
aI499
aI499
aI499
aI499
aI500
aI499
aI499
aI499
aI499
aI499
aI499
aI499
aI500
aI500
a.(lp0
I27
aI52
aI81
aI81
aI117
aI129
aI118
aI122
aI122
aI122
aI119
aI123
aI103
aI114
aI106
aI95
aI92
aI84
aI67
aI68
aI68
aI68
aI53
aI46
aI41
aI37
aI37
aI26
aI20
aI19
aI18
aI17
aI16
aI16
aI15
aI15
aI14
aI14
aI14
aI13
aI13
aI13
aI12
aI12
aI12
aI11
aI11
aI11
aI11
aI11
a.(lp0
I2
aI7
aI14
aI23
aI28
aI40
aI49
aI56
aI63
aI72
aI81
aI93
aI101
aI112
aI128
aI133
aI146
aI154
aI159
aI167
aI174
aI180
aI184
aI187
aI189
aI194
aI196
aI197
aI199
aI200
aI203
aI203
aI207
aI209
aI210
aI211
aI212
aI212
aI213
aI215
aI216
aI216
aI218
aI220
aI222
aI223
aI224
aI225
aI226
aI227
a.(lp0
I2
aI12
aI23
aI24
aI25
aI50
aI56
aI59
aI81
aI99
aI80
aI92
aI97
aI105
aI126
aI128
aI149
aI151
aI148
aI140
aI138
aI143
aI147
aI150
aI145
aI150
aI153
aI149
aI149
aI150
aI152
aI150
aI158
aI161
aI157
aI158
aI158
aI157
aI156
aI155
aI155
aI155
aI156
aI156
aI158
aI156
aI155
aI157
aI157
aI157
a.(lp0
I6
aI13
aI23
aI31
aI52
aI86
aI97
aI122
aI128
aI144
aI192
aI251
aI281
aI293
aI299
aI315
aI341
aI364
aI405
aI415
aI442
aI451
aI472
aI472
aI480
aI493
aI494
aI493
aI499
aI499
aI499
aI499
aI499
aI499
aI499
aI499
aI499
aI499
aI499
aI499
aI499
aI499
aI499
aI499
aI499
aI499
aI499
aI499
aI500
aI500
a.(lp0
I12
aI11
aI33
aI53
aI86
aI145
aI152
aI162
aI181
aI189
aI210
aI194
aI173
aI176
aI167
aI142
aI138
aI141
aI103
aI95
aI74
aI68
aI59
aI52
aI43
aI34
aI29
aI29
aI25
aI23
aI22
aI21
aI20
aI19
aI19
aI18
aI18
aI17
aI17
aI16
aI16
aI15
aI15
aI15
aI14
aI14
aI14
aI13
aI13
aI13
a.