(lp0
I3
aI17
aI55
aI120
aI84
aI80
aI97
aI146
aI150
aI146
aI150
aI150
aI150
aI150
aI150
aI150
aI150
aI150
aI150
aI150
a.(lp0
I114
aI150
aI150
aI150
aI150
aI150
aI150
aI150
aI150
aI150
aI150
aI150
aI150
aI150
aI150
aI150
aI150
aI150
aI150
aI150
a.(lp0
I6
aI12
aI16
aI20
aI24
aI22
aI27
aI32
aI19
aI24
aI17
aI16
aI15
aI16
aI15
aI15
aI14
aI13
aI13
aI12
a.(lp0
I6
aI12
aI16
aI20
aI24
aI22
aI27
aI32
aI19
aI24
aI17
aI16
aI15
aI16
aI15
aI15
aI14
aI13
aI13
aI12
a.