(lp0
I20
aI42
aI64
aI88
aI110
aI124
aI143
aI159
aI172
aI186
aI195
aI207
aI213
aI221
aI229
aI232
aI240
aI244
aI249
aI253
aI256
aI261
aI265
aI267
aI271
aI273
aI275
aI278
aI280
aI283
a.(lp0
I25
aI41
aI58
aI70
aI73
aI82
aI95
aI99
aI92
aI92
aI93
aI96
aI97
aI93
aI91
aI89
aI82
aI79
aI79
aI74
aI69
aI64
aI56
aI53
aI50
aI47
aI43
aI41
aI39
aI36
a.(lp0
I99
aI193
aI280
aI392
aI421
aI466
aI490
aI491
aI491
aI500
aI500
aI500
aI500
aI500
aI500
aI500
aI500
aI500
aI500
aI500
aI500
aI500
aI500
aI500
aI500
aI500
aI500
aI500
aI500
aI500
a.(lp0
I53
aI57
aI56
aI37
aI34
aI26
aI17
aI14
aI14
aI12
aI11
aI10
aI10
aI9
aI9
aI9
aI9
aI8
aI8
aI8
aI8
aI8
aI7
aI7
aI7
aI7
aI7
aI7
aI7
aI7
a.(lp0
I21
aI48
aI63
aI75
aI93
aI112
aI130
aI145
aI162
aI175
aI184
aI195
aI212
aI218
aI226
aI231
aI236
aI242
aI246
aI251
aI253
aI258
aI262
aI265
aI268
aI271
aI272
aI275
aI276
aI280
a.(lp0
I28
aI61
aI68
aI76
aI87
aI97
aI105
aI112
aI116
aI112
aI110
aI109
aI108
aI105
aI104
aI96
aI97
aI93
aI93
aI87
aI78
aI76
aI72
aI68
aI64
aI64
aI55
aI50
aI47
aI44
a.(lp0
I108
aI186
aI227
aI334
aI384
aI456
aI491
aI491
aI500
aI500
aI500
aI500
aI500
aI500
aI500
aI500
aI500
aI500
aI500
aI500
aI500
aI500
aI500
aI500
aI500
aI500
aI500
aI500
aI500
aI500
a.(lp0
I36
aI48
aI44
aI35
aI42
aI33
aI20
aI17
aI15
aI14
aI12
aI11
aI11
aI10
aI10
aI9
aI9
aI9
aI8
aI8
aI8
aI8
aI8
aI8
aI8
aI7
aI7
aI7
aI7
aI7
a.(lp0
I19
aI40
aI57
aI78
aI97
aI117
aI130
aI149
aI162
aI178
aI184
aI195
aI202
aI211
aI218
aI223
aI228
aI233
aI237
aI245
aI250
aI255
aI260
aI264
aI269
aI271
aI271
aI274
aI277
aI278
a.(lp0
I30
aI51
aI66
aI88
aI108
aI118
aI118
aI138
aI134
aI135
aI135
aI141
aI129
aI125
aI123
aI117
aI115
aI112
aI97
aI93
aI94
aI92
aI90
aI81
aI78
aI69
aI65
aI63
aI54
aI50
a.(lp0
I77
aI152
aI192
aI268
aI340
aI392
aI421
aI456
aI491
aI491
aI500
aI500
aI500
aI500
aI500
aI500
aI500
aI500
aI500
aI500
aI500
aI500
aI500
aI500
aI500
aI500
aI500
aI500
aI500
aI500
a.(lp0
I58
aI64
aI47
aI33
aI49
aI44
aI38
aI32
aI17
aI16
aI14
aI13
aI12
aI11
aI10
aI10
aI10
aI9
aI9
aI9
aI9
aI8
aI8
aI8
aI8
aI8
aI8
aI8
aI8
aI8
a.(lp0
I24
aI40
aI53
aI72
aI92
aI108
aI126
aI141
aI151
aI163
aI174
aI189
aI199
aI211
aI219
aI227
aI234
aI238
aI242
aI248
aI253
aI257
aI261
aI263
aI265
aI269
aI271
aI274
aI276
aI278
a.(lp0
I59
aI77
aI91
aI108
aI130
aI140
aI144
aI141
aI132
aI130
aI127
aI144
aI136
aI141
aI138
aI132
aI133
aI127
aI126
aI118
aI109
aI96
aI95
aI90
aI84
aI83
aI74
aI68
aI62
aI56
a.(lp0
I57
aI95
aI205
aI317
aI364
aI419
aI447
aI464
aI473
aI500
aI491
aI500
aI500
aI500
aI500
aI500
aI500
aI500
aI500
aI500
aI500
aI500
aI500
aI500
aI500
aI500
aI500
aI500
aI500
aI500
a.(lp0
I20
aI65
aI66
aI55
aI40
aI31
aI28
aI19
aI17
aI14
aI14
aI12
aI12
aI11
aI11
aI10
aI10
aI9
aI9
aI9
aI9
aI9
aI8
aI8
aI8
aI8
aI8
aI8
aI8
aI8
a.(lp0
I21
aI39
aI56
aI71
aI94
aI123
aI138
aI158
aI172
aI184
aI195
aI202
aI209
aI217
aI219
aI226
aI231
aI237
aI242
aI246
aI250
aI255
aI258
aI262
aI264
aI266
aI269
aI272
aI275
aI278
a.(lp0
I30
aI51
aI72
aI92
aI117
aI154
aI155
aI176
aI180
aI179
aI184
aI175
aI174
aI166
aI157
aI153
aI148
aI151
aI133
aI122
aI117
aI116
aI107
aI105
aI103
aI100
aI85
aI81
aI73
aI64
a.(lp0
I9
aI60
aI135
aI228
aI310
aI350
aI411
aI428
aI464
aI473
aI484
aI484
aI500
aI500
aI500
aI500
aI500
aI500
aI500
aI500
aI500
aI500
aI500
aI500
aI500
aI500
aI500
aI500
aI500
aI500
a.(lp0
I32
aI54
aI71
aI123
aI61
aI59
aI44
aI33
aI21
aI17
aI22
aI21
aI13
aI12
aI12
aI11
aI11
aI10
aI10
aI10
aI9
aI9
aI9
aI9
aI8
aI8
aI8
aI8
aI8
aI8
a.(lp0
I16
aI37
aI49
aI64
aI77
aI90
aI117
aI129
aI148
aI161
aI177
aI185
aI196
aI209
aI219
aI224
aI229
aI237
aI241
aI248
aI251
aI256
aI258
aI261
aI266
aI269
aI272
aI274
aI275
aI278
a.(lp0
I24
aI70
aI95
aI99
aI113
aI120
aI154
aI160
aI178
aI186
aI177
aI172
aI183
aI171
aI173
aI178
aI172
aI172
aI158
aI145
aI134
aI129
aI123
aI116
aI114
aI108
aI95
aI87
aI80
aI72
a.(lp0
I53
aI96
aI178
aI252
aI289
aI335
aI384
aI429
aI465
aI465
aI474
aI500
aI500
aI500
aI500
aI500
aI500
aI500
aI500
aI500
aI500
aI500
aI500
aI500
aI500
aI500
aI500
aI500
aI500
aI500
a.(lp0
I62
aI117
aI136
aI139
aI115
aI118
aI87
aI53
aI31
aI29
aI27
aI15
aI14
aI13
aI12
aI12
aI11
aI11
aI10
aI10
aI10
aI9
aI9
aI9
aI9
aI8
aI8
aI8
aI8
aI8
a.