(lp0
I4
aI26
aI30
aI47
aI50
aI50
aI50
aI50
aI50
aI50
a.(lp0
I7
aI16
aI31
aI34
aI24
aI14
aI14
aI11
aI13
aI11
a.(lp0
I6
aI25
aI49
aI49
aI50
aI50
aI50
aI50
aI50
aI50
a.(lp0
I14
aI18
aI22
aI16
aI15
aI11
aI8
aI9
aI8
aI8
a.(lp0
I2
aI11
aI30
aI35
aI50
aI50
aI50
aI50
aI50
aI50
a.(lp0
I3
aI12
aI23
aI25
aI19
aI17
aI16
aI13
aI12
aI9
a.(lp0
I5
aI25
aI41
aI49
aI50
aI50
aI50
aI50
aI50
aI50
a.(lp0
I6
aI17
aI32
aI22
aI20
aI12
aI10
aI9
aI11
aI8
a.(lp0
I3
aI10
aI11
aI15
aI41
aI42
aI50
aI50
aI50
aI50
a.(lp0
I6
aI13
aI14
aI17
aI20
aI53
aI18
aI17
aI35
aI14
a.(lp0
I2
aI20
aI17
aI25
aI45
aI49
aI50
aI50
aI50
aI50
a.(lp0
I4
aI9
aI18
aI24
aI28
aI26
aI20
aI12
aI11
aI11
a.