(lp0
I52
aI109
aI17
aI70
aI358
aI266
aI136
aI274
aI231
aI321
aI325
aI374
aI296
aI464
aI417
aI384
aI500
aI393
aI427
aI500
aI500
aI401
aI371
aI469
a.(lp0
I9
aI56
aI10
aI33
aI28
aI34
aI40
aI32
aI65
aI90
aI46
aI49
aI48
aI41
aI57
aI45
aI52
aI34
aI30
aI52
aI37
aI29
aI37
aI37
a.(lp0
I4
aI109
aI112
aI213
aI216
aI223
aI54
aI183
aI233
aI254
aI373
aI250
aI342
aI388
aI398
aI434
aI500
aI469
aI496
aI498
aI499
aI499
aI500
aI499
a.(lp0
I7
aI16
aI13
aI30
aI28
aI23
aI22
aI21
aI43
aI27
aI25
aI29
aI30
aI30
aI25
aI23
aI20
aI21
aI29
aI20
aI19
aI18
aI15
aI16
a.(lp0
I4
aI58
aI158
aI70
aI117
aI77
aI313
aI270
aI313
aI321
aI277
aI284
aI280
aI370
aI291
aI500
aI340
aI463
aI385
aI346
aI428
aI461
aI401
aI425
a.(lp0
I5
aI9
aI50
aI13
aI17
aI29
aI79
aI69
aI57
aI72
aI68
aI29
aI32
aI44
aI32
aI90
aI45
aI51
aI59
aI36
aI74
aI40
aI34
aI47
a.(lp0
I4
aI7
aI10
aI69
aI30
aI171
aI131
aI84
aI182
aI229
aI237
aI236
aI246
aI338
aI209
aI376
aI374
aI386
aI353
aI422
aI500
aI433
aI488
aI449
a.(lp0
I5
aI7
aI10
aI16
aI17
aI26
aI29
aI18
aI37
aI42
aI35
aI30
aI51
aI38
aI27
aI31
aI36
aI25
aI28
aI21
aI27
aI26
aI26
aI30
a.(lp0
I3
aI57
aI15
aI14
aI75
aI119
aI221
aI173
aI34
aI136
aI227
aI96
aI274
aI234
aI196
aI289
aI368
aI327
aI372
aI415
aI375
aI373
aI421
aI385
a.(lp0
I6
aI15
aI10
aI8
aI67
aI71
aI33
aI38
aI14
aI47
aI34
aI20
aI55
aI28
aI30
aI44
aI88
aI45
aI41
aI33
aI32
aI127
aI89
aI40
a.(lp0
I3
aI55
aI108
aI111
aI21
aI70
aI122
aI172
aI130
aI179
aI224
aI233
aI233
aI367
aI202
aI370
aI330
aI290
aI296
aI262
aI340
aI266
aI307
aI461
a.(lp0
I5
aI11
aI17
aI17
aI13
aI17
aI18
aI34
aI16
aI25
aI25
aI35
aI29
aI61
aI47
aI35
aI30
aI77
aI37
aI37
aI42
aI32
aI28
aI40
a.