(lp0
I67
aI68
aI69
aI69
aI100
aI100
aI100
aI100
aI100
aI100
a.(lp0
I18
aI18
aI19
aI18
aI21
aI20
aI19
aI14
aI13
aI13
a.(lp0
I100
aI100
aI100
aI100
aI100
aI100
aI100
aI100
aI100
aI100
a.(lp0
I7
aI6
aI6
aI5
aI5
aI5
aI5
aI5
aI5
aI4
a.(lp0
I68
aI100
aI100
aI100
aI100
aI100
aI100
aI100
aI100
aI100
a.(lp0
I6
aI6
aI5
aI5
aI5
aI4
aI4
aI4
aI4
aI4
a.(lp0
I1
aI4
aI9
aI100
aI100
aI100
aI100
aI100
aI100
aI100
a.(lp0
I3
aI5
aI7
aI8
aI8
aI7
aI6
aI5
aI5
aI5
a.(lp0
I100
aI100
aI100
aI100
aI100
aI100
aI100
aI100
aI100
aI100
a.(lp0
I32
aI17
aI17
aI17
aI17
aI16
aI16
aI16
aI16
aI15
a.