(lp0
I189
aI351
aI368
aI401
aI435
aI467
aI469
aI484
aI484
aI500
aI500
aI500
aI500
aI500
aI500
aI500
aI500
aI500
aI500
aI500
aI500
aI500
aI500
aI500
aI500
aI500
aI500
aI500
aI500
aI500
a.(lp0
I19
aI35
aI31
aI30
aI30
aI31
aI30
aI29
aI27
aI27
aI26
aI25
aI23
aI23
aI22
aI22
aI21
aI21
aI21
aI21
aI20
aI20
aI20
aI20
aI20
aI20
aI20
aI19
aI20
aI20
a.(lp0
I184
aI318
aI450
aI483
aI500
aI500
aI500
aI500
aI500
aI500
aI500
aI500
aI500
aI500
aI500
aI500
aI500
aI500
aI500
aI500
aI500
aI500
aI500
aI500
aI500
aI500
aI500
aI500
aI500
aI500
a.(lp0
I7
aI10
aI11
aI11
aI10
aI9
aI9
aI8
aI8
aI8
aI7
aI7
aI7
aI7
aI6
aI6
aI6
aI6
aI6
aI6
aI6
aI6
aI5
aI5
aI5
aI5
aI5
aI5
aI5
aI5
a.(lp0
I218
aI401
aI450
aI500
aI500
aI500
aI500
aI500
aI500
aI500
aI500
aI500
aI500
aI500
aI500
aI500
aI500
aI500
aI500
aI500
aI500
aI500
aI500
aI500
aI500
aI500
aI500
aI500
aI500
aI500
a.(lp0
I6
aI8
aI7
aI7
aI7
aI6
aI6
aI6
aI6
aI5
aI5
aI5
aI5
aI5
aI5
aI4
aI4
aI4
aI4
aI4
aI4
aI4
aI4
aI4
aI4
aI4
aI4
aI4
aI4
aI4
a.(lp0
I117
aI219
aI335
aI434
aI451
aI483
aI484
aI500
aI500
aI500
aI500
aI500
aI500
aI500
aI500
aI500
aI500
aI500
aI500
aI500
aI500
aI500
aI500
aI500
aI500
aI500
aI500
aI500
aI500
aI500
a.(lp0
I5
aI8
aI10
aI10
aI9
aI9
aI8
aI8
aI7
aI7
aI7
aI6
aI6
aI6
aI6
aI6
aI6
aI6
aI5
aI5
aI5
aI5
aI5
aI5
aI5
aI5
aI5
aI5
aI5
aI5
a.(lp0
I500
aI500
aI500
aI500
aI500
aI500
aI500
aI500
aI500
aI500
aI500
aI500
aI500
aI500
aI500
aI500
aI500
aI500
aI500
aI500
aI500
aI500
aI500
aI500
aI500
aI500
aI500
aI500
aI500
aI500
a.(lp0
I33
aI30
aI26
aI25
aI25
aI23
aI22
aI22
aI19
aI20
aI19
aI19
aI19
aI20
aI20
aI20
aI20
aI20
aI20
aI19
aI19
aI20
aI19
aI19
aI19
aI19
aI19
aI19
aI19
aI19
a.