(lp0
I23
aI52
aI93
aI123
aI187
aI193
aI218
aI293
aI304
aI349
aI407
aI430
aI474
aI488
aI488
aI500
aI500
aI500
aI500
aI500
aI500
aI500
aI500
aI500
aI500
aI500
aI500
aI500
aI500
aI500
a.(lp0
I10
aI19
aI37
aI43
aI48
aI39
aI38
aI47
aI42
aI46
aI45
aI41
aI39
aI38
aI35
aI33
aI29
aI29
aI28
aI27
aI27
aI27
aI26
aI25
aI25
aI25
aI24
aI24
aI24
aI23
a.(lp0
I87
aI155
aI177
aI306
aI309
aI355
aI436
aI467
aI483
aI500
aI500
aI500
aI500
aI500
aI500
aI500
aI500
aI500
aI500
aI500
aI500
aI500
aI500
aI500
aI500
aI500
aI500
aI500
aI500
aI500
a.(lp0
I6
aI10
aI12
aI13
aI12
aI13
aI12
aI11
aI10
aI10
aI9
aI9
aI9
aI8
aI8
aI8
aI7
aI7
aI7
aI7
aI7
aI7
aI7
aI7
aI7
aI6
aI6
aI6
aI6
aI6
a.(lp0
I69
aI203
aI301
aI401
aI419
aI467
aI483
aI500
aI500
aI500
aI500
aI500
aI500
aI500
aI500
aI500
aI500
aI500
aI500
aI500
aI500
aI500
aI500
aI500
aI500
aI500
aI500
aI500
aI500
aI500
a.(lp0
I4
aI8
aI9
aI10
aI10
aI10
aI9
aI9
aI8
aI8
aI7
aI7
aI7
aI7
aI6
aI6
aI6
aI6
aI6
aI6
aI6
aI5
aI5
aI5
aI5
aI5
aI5
aI5
aI5
aI5
a.(lp0
I68
aI103
aI203
aI237
aI288
aI307
aI355
aI404
aI452
aI483
aI500
aI500
aI500
aI500
aI500
aI500
aI500
aI500
aI500
aI500
aI500
aI500
aI500
aI500
aI500
aI500
aI500
aI500
aI500
aI500
a.(lp0
I5
aI7
aI9
aI9
aI11
aI11
aI11
aI12
aI11
aI11
aI11
aI10
aI10
aI9
aI9
aI9
aI8
aI8
aI8
aI8
aI8
aI7
aI7
aI7
aI7
aI7
aI7
aI7
aI7
aI7
a.(lp0
I1
aI4
aI55
aI500
aI500
aI500
aI500
aI500
aI500
aI500
aI500
aI500
aI500
aI500
aI500
aI500
aI500
aI500
aI500
aI500
aI500
aI500
aI500
aI500
aI500
aI500
aI500
aI500
aI500
aI500
a.(lp0
I2
aI6
aI19
aI36
aI35
aI29
aI29
aI24
aI24
aI24
aI23
aI22
aI22
aI22
aI22
aI22
aI21
aI21
aI21
aI21
aI21
aI21
aI21
aI21
aI21
aI21
aI21
aI21
aI21
aI21
a.