(lp0
I169
aI285
aI368
aI371
aI403
aI435
aI436
aI469
aI500
aI500
aI500
aI500
aI500
aI500
aI500
aI500
aI500
aI500
aI500
aI500
aI500
aI500
aI500
aI500
aI500
aI500
aI500
aI500
aI500
aI500
a.(lp0
I39
aI50
aI54
aI52
aI53
aI48
aI47
aI52
aI52
aI48
aI45
aI38
aI36
aI37
aI35
aI34
aI33
aI34
aI32
aI34
aI35
aI32
aI33
aI32
aI32
aI32
aI31
aI30
aI30
aI30
a.(lp0
I122
aI241
aI307
aI339
aI389
aI468
aI500
aI500
aI500
aI500
aI500
aI500
aI500
aI500
aI500
aI500
aI500
aI500
aI500
aI500
aI500
aI500
aI500
aI500
aI500
aI500
aI500
aI500
aI500
aI500
a.(lp0
I10
aI15
aI15
aI14
aI13
aI12
aI11
aI10
aI9
aI9
aI8
aI8
aI8
aI8
aI7
aI7
aI7
aI7
aI7
aI7
aI6
aI6
aI6
aI6
aI6
aI6
aI6
aI6
aI6
aI6
a.(lp0
I120
aI220
aI354
aI387
aI403
aI436
aI500
aI500
aI500
aI500
aI500
aI500
aI500
aI500
aI500
aI500
aI500
aI500
aI500
aI500
aI500
aI500
aI500
aI500
aI500
aI500
aI500
aI500
aI500
aI500
a.(lp0
I7
aI9
aI11
aI11
aI10
aI10
aI9
aI9
aI8
aI8
aI7
aI7
aI7
aI7
aI6
aI6
aI6
aI6
aI6
aI6
aI6
aI5
aI5
aI5
aI5
aI5
aI5
aI5
aI5
aI5
a.(lp0
I119
aI220
aI275
aI356
aI389
aI452
aI452
aI467
aI500
aI500
aI500
aI500
aI500
aI500
aI500
aI500
aI500
aI500
aI500
aI500
aI500
aI500
aI500
aI500
aI500
aI500
aI500
aI500
aI500
aI500
a.(lp0
I9
aI13
aI15
aI15
aI15
aI14
aI13
aI12
aI12
aI11
aI11
aI10
aI10
aI9
aI9
aI8
aI8
aI8
aI8
aI8
aI8
aI7
aI7
aI7
aI7
aI7
aI7
aI7
aI7
aI7
a.(lp0
I1
aI2
aI15
aI500
aI500
aI500
aI500
aI500
aI500
aI500
aI500
aI500
aI500
aI500
aI500
aI500
aI500
aI500
aI500
aI500
aI500
aI500
aI500
aI500
aI500
aI500
aI500
aI500
aI500
aI500
a.(lp0
I2
aI4
aI9
aI44
aI50
aI50
aI55
aI33
aI31
aI30
aI26
aI26
aI31
aI38
aI35
aI35
aI35
aI26
aI26
aI23
aI29
aI37
aI33
aI33
aI33
aI32
aI30
aI30
aI27
aI27
a.